
MP3_dac_CH32V305FBP6_r5.elf:     file format elf32-littleriscv
MP3_dac_CH32V305FBP6_r5.elf
architecture: riscv:rv32, flags 0x00000112:
EXEC_P, HAS_SYMS, D_PAGED
start address 0x00000000

Program Header:
    LOAD off    0x00001000 vaddr 0x00000000 paddr 0x00000000 align 2**12
         filesz 0x00006ae8 memsz 0x00006ae8 flags r-x
    LOAD off    0x00008000 vaddr 0x20000000 paddr 0x00006ae8 align 2**12
         filesz 0x000000a0 memsz 0x00003c94 flags rw-
    LOAD off    0x00009004 vaddr 0x20007004 paddr 0x20007004 align 2**12
         filesz 0x00000000 memsz 0x00000ffc flags rw-

Sections:
Idx Name          Size      VMA       LMA       File off  Algn
  0 .init         00000004  00000000  00000000  00001000  2**1
                  CONTENTS, ALLOC, LOAD, READONLY, CODE
  1 .vector       000001bc  00000004  00000004  00001004  2**1
                  CONTENTS, ALLOC, LOAD, READONLY, CODE
  2 .text         00006928  000001c0  000001c0  000011c0  2**2
                  CONTENTS, ALLOC, LOAD, READONLY, CODE
  3 .fini         00000000  00006ae8  00006ae8  000080a0  2**0
                  CONTENTS, ALLOC, LOAD, CODE
  4 .dalign       00000000  20000000  20000000  000080a0  2**0
                  CONTENTS
  5 .dlalign      00000000  00006ae8  00006ae8  000080a0  2**0
                  CONTENTS
  6 .data         000000a0  20000000  00006ae8  00008000  2**2
                  CONTENTS, ALLOC, LOAD, DATA
  7 .bss          00003bf4  200000a0  00006b88  000080a0  2**2
                  ALLOC
  8 .stack        00000ffc  20007004  20007004  00009004  2**0
                  ALLOC
  9 .debug_info   00014034  00000000  00000000  000080a0  2**0
                  CONTENTS, READONLY, DEBUGGING
 10 .debug_abbrev 00002f60  00000000  00000000  0001c0d4  2**0
                  CONTENTS, READONLY, DEBUGGING
 11 .debug_loc    000080d1  00000000  00000000  0001f034  2**0
                  CONTENTS, READONLY, DEBUGGING
 12 .debug_aranges 00000a98  00000000  00000000  00027108  2**3
                  CONTENTS, READONLY, DEBUGGING
 13 .debug_ranges 00001160  00000000  00000000  00027ba0  2**3
                  CONTENTS, READONLY, DEBUGGING
 14 .debug_line   0001180d  00000000  00000000  00028d00  2**0
                  CONTENTS, READONLY, DEBUGGING
 15 .debug_str    00003abb  00000000  00000000  0003a50d  2**0
                  CONTENTS, READONLY, DEBUGGING
 16 .comment      00000033  00000000  00000000  0003dfc8  2**0
                  CONTENTS, READONLY
 17 .debug_frame  000020e0  00000000  00000000  0003dffc  2**2
                  CONTENTS, READONLY, DEBUGGING
 18 .stab         00000084  00000000  00000000  000400dc  2**2
                  CONTENTS, READONLY, DEBUGGING
 19 .stabstr      00000117  00000000  00000000  00040160  2**0
                  CONTENTS, READONLY, DEBUGGING
SYMBOL TABLE:
00000000 l    d  .init	00000000 .init
00000004 l    d  .vector	00000000 .vector
000001c0 l    d  .text	00000000 .text
00006ae8 l    d  .fini	00000000 .fini
20000000 l    d  .dalign	00000000 .dalign
00006ae8 l    d  .dlalign	00000000 .dlalign
20000000 l    d  .data	00000000 .data
200000a0 l    d  .bss	00000000 .bss
20007004 l    d  .stack	00000000 .stack
00000000 l    d  .debug_info	00000000 .debug_info
00000000 l    d  .debug_abbrev	00000000 .debug_abbrev
00000000 l    d  .debug_loc	00000000 .debug_loc
00000000 l    d  .debug_aranges	00000000 .debug_aranges
00000000 l    d  .debug_ranges	00000000 .debug_ranges
00000000 l    d  .debug_line	00000000 .debug_line
00000000 l    d  .debug_str	00000000 .debug_str
00000000 l    d  .comment	00000000 .comment
00000000 l    d  .debug_frame	00000000 .debug_frame
00000000 l    d  .stab	00000000 .stab
00000000 l    d  .stabstr	00000000 .stabstr
00000000 l    df *ABS*	00000000 ./Startup/startup_ch32v30x_D8C.o
00000004 l       .vector	00000000 _vector_base
00000000 l    df *ABS*	00000000 buffer_fifo.c
00000000 l    df *ABS*	00000000 ch32v30x_it.c
00000000 l    df *ABS*	00000000 flash_spi.c
00000000 l    df *ABS*	00000000 main.c
00000534 l     F .text	00000054 get_bits
00000588 l     F .text	0000004e hdr_valid
000005d6 l     F .text	00000046 hdr_compare
0000061c l     F .text	00000024 hdr_frame_samples
00000640 l     F .text	0000003e L3_ldexp_q2
0000067e l     F .text	00000028 L3_midside_stereo
000006a6 l     F .text	00000104 L3_dct3_9
000007aa l     F .text	00000118 L3_imdct36
000008c2 l     F .text	00000044 mp3d_scale_pcm
00000906 l     F .text	0000015a mp3d_synth_pair
00000a60 l     F .text	0000001a hdr_padding
00000a7a l     F .text	000000d8 L3_imdct12
00000b52 l     F .text	0000008e hdr_frame_bytes
00005964 l     O .text	000010e8 tabs.6490
00004b20 l     O .text	00000040 g_aa.6643
00004b60 l     O .text	00000010 g_expfrac.6431
00004b70 l     O .text	0000000c g_hz.6379
00004b7c l     O .text	00000020 g_linbits.6494
00004b9c l     O .text	00000090 g_mdct_window.6738
00004c2c l     O .text	00000018 g_mod.6454
00004c44 l     O .text	00000038 g_pan.6598
00004c7c l     O .text	00000244 g_pow43
00004ec0 l     O .text	0000000a g_preamp.6469
00004ecc l     O .text	000000b8 g_scf_long.6396
00004f84 l     O .text	00000140 g_scf_mixed.6398
000050c4 l     O .text	00000054 g_scf_partitions.6443
00005118 l     O .text	00000140 g_scf_short.6397
00005258 l     O .text	00000010 g_scfc_decode.6452
00005268 l     O .text	00000060 g_sec.6773
000052c8 l     O .text	00000018 g_twid3.6703
000052e0 l     O .text	00000048 g_twid9.6676
00005328 l     O .text	000003c0 g_win.6827
000056e8 l     O .text	0000005a halfrate.6375
000058f8 l     O .text	0000001c tab32.6491
00005914 l     O .text	00000010 tab33.6492
00005924 l     O .text	00000040 tabindex.6493
200000a8 l     O .bss	00000001 i.6997
00000000 l    df *ABS*	00000000 system_ch32v30x.c
00000000 l    df *ABS*	00000000 ch32v30x_dac.c
00000000 l    df *ABS*	00000000 ch32v30x_dbgmcu.c
00000000 l    df *ABS*	00000000 ch32v30x_dma.c
00000000 l    df *ABS*	00000000 ch32v30x_gpio.c
00000000 l    df *ABS*	00000000 ch32v30x_misc.c
00000000 l    df *ABS*	00000000 ch32v30x_rcc.c
20000010 l     O .data	00000010 APBAHBPrescTable
20000090 l     O .data	00000004 ADCPrescTable
00000000 l    df *ABS*	00000000 ch32v30x_spi.c
00000000 l    df *ABS*	00000000 ch32v30x_tim.c
00000000 l    df *ABS*	00000000 ch32v30x_usart.c
00000000 l    df *ABS*	00000000 debug.c
200000c0 l     O .bss	00000002 p_ms
200000c2 l     O .bss	00000001 p_us
20000094 l     O .data	00000004 curbrk.5275
00000000 l    df *ABS*	00000000 memcpy.c
00000000 l    df *ABS*	00000000 memmove.c
00000000 l    df *ABS*	00000000 printf.c
00000000 l    df *ABS*	00000000 puts.c
00000000 l    df *ABS*	00000000 wbuf.c
00000000 l    df *ABS*	00000000 wsetup.c
00000000 l    df *ABS*	00000000 fflush.c
00000000 l    df *ABS*	00000000 findfp.c
00003d52 l     F .text	00000066 std
00000000 l    df *ABS*	00000000 fwalk.c
00000000 l    df *ABS*	00000000 makebuf.c
00000000 l    df *ABS*	00000000 nano-mallocr.c
00000000 l    df *ABS*	00000000 nano-mallocr.c
00000000 l    df *ABS*	00000000 nano-vfprintf.c
000041d8 l     F .text	00000028 __sfputc_r
00000000 l    df *ABS*	00000000 nano-vfprintf_i.c
00000000 l    df *ABS*	00000000 sbrkr.c
00000000 l    df *ABS*	00000000 stdio.c
00000000 l    df *ABS*	00000000 writer.c
00000000 l    df *ABS*	00000000 closer.c
00000000 l    df *ABS*	00000000 fstatr.c
00000000 l    df *ABS*	00000000 isattyr.c
00000000 l    df *ABS*	00000000 lseekr.c
00000000 l    df *ABS*	00000000 memchr.c
00000000 l    df *ABS*	00000000 mlock.c
00000000 l    df *ABS*	00000000 readr.c
00000000 l    df *ABS*	00000000 close.c
00000000 l    df *ABS*	00000000 fstat.c
00000000 l    df *ABS*	00000000 isatty.c
00000000 l    df *ABS*	00000000 lseek.c
00000000 l    df *ABS*	00000000 read.c
00000000 l    df *ABS*	00000000 impure.c
20000020 l     O .data	00000060 impure_data
00000000 l    df *ABS*	00000000 reent.c
2000106c g     O .bss	00000018 info
000035da g     F .text	00000016 TIM_TimeBaseStructInit
00002fc2  w      .text	00000000 EXTI2_IRQHandler
00002fc2  w      .text	00000000 TIM8_TRG_COM_IRQHandler
00002fc2  w      .text	00000000 TIM8_CC_IRQHandler
000049e8 g     F .text	00000030 _isatty_r
00003928 g     F .text	000000d4 _puts_r
00004a18 g     F .text	00000034 _lseek_r
0000314a g     F .text	00000014 DMA_Cmd
00002fc2  w      .text	00000000 UART8_IRQHandler
200000b0 g     O .bss	00000004 ks
0000038a g     F .text	00000042 SPI1_ReadWriteByte
000038e8 g     F .text	00000040 printf
20000880 g       .data	00000000 __global_pointer$
20000080 g     O .data	00000004 flag_cb
000001c8 g     F .text	00000028 .hidden __riscv_save_8
000031ce g     F .text	0000000a DMA_GetITStatus
00002fc2  w      .text	00000000 TIM1_CC_IRQHandler
0000491a g     F .text	00000030 __sseek
00003e08 g     F .text	00000066 __sinit
000034da g     F .text	00000004 SPI_I2S_SendData
00003a06 g     F .text	000000bc __swbuf_r
0000037a g     F .text	00000010 HardFault_Handler
00003dc2 g     F .text	00000046 __sfmoreglue
00004a66 g     F .text	00000002 __malloc_unlock
00000214 g     F .text	0000000c .hidden __riscv_restore_3
00002fc2  w      .text	00000000 TIM6_IRQHandler
00002fc2  w      .text	00000000 SysTick_Handler
00002fc2  w      .text	00000000 PVD_IRQHandler
00002fc2  w      .text	00000000 SDIO_IRQHandler
000038a2 g     F .text	00000046 memmove
00002fc2  w      .text	00000000 TIM9_BRK_IRQHandler
00000200 g     F .text	00000020 .hidden __riscv_restore_10
000034de g     F .text	00000004 SPI_I2S_ReceiveData
00002fc2  w      .text	00000000 DMA2_Channel8_IRQHandler
00000378 g     F .text	00000002 NMI_Handler
00002fc2  w      .text	00000000 CAN2_RX1_IRQHandler
00002fc2  w      .text	00000000 EXTI3_IRQHandler
000001c8 g     F .text	00000028 .hidden __riscv_save_11
000030da g     F .text	0000000a DBGMCU_GetCHIPID
00002fc2  w      .text	00000000 USBHS_IRQHandler
000036cc g     F .text	0000000a USART_GetFlagStatus
00002fc2  w      .text	00000000 DMA2_Channel9_IRQHandler
000049b6 g     F .text	00000032 _fstat_r
000002f8 g     F .text	00000042 put_sample_FIFO
00002fc2  w      .text	00000000 TIM10_CC_IRQHandler
20003c90 g     O .bss	00000004 errno
200000a0 g       .bss	00000000 _sbss
00000ffc g       *ABS*	00000000 __stack_size
00003732 g     F .text	0000005a USART_Printf_Init
000030e4 g     F .text	00000038 DMA_Init
000002e6 g     F .text	00000012 n_sample_out_FIFO
00002fc2  w      .text	00000000 USBFS_IRQHandler
00000214 g     F .text	0000000c .hidden __riscv_restore_2
0000033a g     F .text	0000003e get_sample_FIFO
000037f0 g     F .text	000000b2 memcpy
200000b4 g     O .bss	00000004 nbuf
00003db8 g     F .text	0000000a _cleanup_r
00002fc2  w      .text	00000000 EXTI0_IRQHandler
00002fc2  w      .text	00000000 I2C2_EV_IRQHandler
00002fc2  w      .text	00000000 TIM10_TRG_COM_IRQHandler
000035f0 g     F .text	00000018 TIM_Cmd
000039fc g     F .text	0000000a puts
2000008c g     O .data	00000004 SystemCoreClock
00004aac g     F .text	00000010 _fstat
00000004 g       .init	00000000 _einit
00003446 g     F .text	0000001e RCC_APB2PeriphClockCmd
000001c0 g     F .text	00000030 .hidden __riscv_save_12
00002fc2  w      .text	00000000 CAN2_SCE_IRQHandler
00002fc2  w      .text	00000000 ADC1_2_IRQHandler
000031e2 g     F .text	000000c0 GPIO_Init
00000be0 g     F .text	00001b9e mp3dec_decode_frame
00002fc2  w      .text	00000000 Break_Point_Handler
00000200 g     F .text	00000020 .hidden __riscv_restore_11
200000bc g     O .bss	00000004 NVIC_Priority_Group
00002fc2  w      .text	00000000 SPI1_IRQHandler
200000cc g     O .bss	00000100 DAC_Value
000036ae g     F .text	00000016 USART_Cmd
00004874 g     F .text	00000032 _sbrk_r
00002fc2  w      .text	00000000 TAMPER_IRQHandler
000001f0 g     F .text	0000000c .hidden __riscv_save_1
00000488 g     F .text	00000050 SPI_Flash_ReadID
00000214 g     F .text	0000000c .hidden __riscv_restore_0
00004a68 g     F .text	00000034 _read_r
000001d6 g     F .text	0000001a .hidden __riscv_save_7
00002fc2  w      .text	00000000 CAN2_RX0_IRQHandler
000031d8 g     F .text	0000000a DMA_ClearITPendingBit
00002fc2  w      .text	00000000 TIM8_UP_IRQHandler
00003464 g     F .text	0000001e RCC_APB1PeriphClockCmd
00002fc2  w      .text	00000000 Ecall_M_Mode_Handler
20007004 g       .stack	00000000 _heap_end
00004abc g     F .text	00000010 _isatty
2000009c g     O .data	00000004 _global_impure_ptr
0000020a g     F .text	00000016 .hidden __riscv_restore_5
000034e2 g     F .text	0000000a SPI_I2S_GetFlagStatus
00002fc2  w      .text	00000000 DMA2_Channel2_IRQHandler
00003428 g     F .text	0000001e RCC_AHBPeriphClockCmd
00002fc2  w      .text	00000000 DMA1_Channel4_IRQHandler
000037c6 g     F .text	0000002a _sbrk
0000311c g     F .text	0000002e DMA_StructInit
20002a90 g     O .bss	00001200 pcm
00002fc2  w      .text	00000000 TIM9_UP_IRQHandler
00003170 g     F .text	00000032 DMA_GetFlagStatus
0000020a g     F .text	00000016 .hidden __riscv_restore_6
00002fc2  w      .text	00000000 USART3_IRQHandler
00002fc2  w      .text	00000000 RTC_IRQHandler
20003c94 g       .bss	00000000 _ebss
000029de g     F .text	0000005a Timer4_Init
00002fc2  w      .text	00000000 DMA1_Channel7_IRQHandler
00002fc2  w      .text	00000000 CAN1_RX1_IRQHandler
000036d6 g     F .text	00000026 Delay_Init
00002fc2  w      .text	00000000 DVP_IRQHandler
00002fc2  w      .text	00000000 UART5_IRQHandler
000004d8 g     F .text	0000005c SPI_Flash_Read
00002fc2  w      .text	00000000 TIM4_IRQHandler
000001c8 g     F .text	00000028 .hidden __riscv_save_9
20000084 g     O .data	00000004 flag_hb
000032a2 g     F .text	0000000a GPIO_WriteBit
00002fc2  w      .text	00000000 DMA2_Channel1_IRQHandler
200000a4 g     O .bss	00000004 frame_size
00006a4c g     O .text	00000020 __sf_fake_stderr
000001d6 g     F .text	0000001a .hidden __riscv_save_4
20001084 g     O .bss	00001a0c mp3d
00002fc2  w      .text	00000000 I2C1_EV_IRQHandler
00002a38 g     F .text	00000040 GPIO_Toggle_INIT
0000277e g     F .text	00000068 Dac_Init
000032b2 g     F .text	00000176 RCC_GetClocksFreq
00002fc2  w      .text	00000000 DMA1_Channel6_IRQHandler
00004200 g     F .text	00000040 __sfputs_r
00002fc2  w      .text	00000000 UART4_IRQHandler
00002880 g     F .text	0000015e DMA2_Channel4_IRQHandler
00004a4c g     F .text	00000018 memchr
00003620 g     F .text	0000008e USART_Init
0000405c g     F .text	000000a8 _free_r
00002fc2  w      .text	00000000 TIM3_IRQHandler
00002fc2  w      .text	00000000 RCC_IRQHandler
000001f0 g     F .text	0000000c .hidden __riscv_save_3
00002fc2  w      .text	00000000 TIM1_TRG_COM_IRQHandler
00002fc2  w      .text	00000000 DMA1_Channel1_IRQHandler
00000000 g       .init	00000000 _start
00002fc2  w      .text	00000000 DMA2_Channel7_IRQHandler
20000000 g     O .data	00000010 AHBPrescTable
00004acc g     F .text	00000010 _lseek
00002fc2  w      .text	00000000 EXTI15_10_IRQHandler
00003608 g     F .text	00000018 TIM_SelectOutputTrigger
00002fc2  w      .text	00000000 TIM7_IRQHandler
00004986 g     F .text	00000030 _close_r
00002fc2  w      .text	00000000 CAN2_TX_IRQHandler
20000000 g       .dalign	00000000 _data_vma
00002fc2  w      .text	00000000 TIM5_IRQHandler
00003ac2 g     F .text	000000fc __swsetup_r
00002fc2  w      .text	00000000 EXTI9_5_IRQHandler
00003e6e g     F .text	0000009c __sfp
000001c8 g     F .text	00000028 .hidden __riscv_save_10
000048a6 g     F .text	0000002c __sread
00002fc2  w      .text	00000000 ETH_WKUP_IRQHandler
00004a64 g     F .text	00000002 __malloc_lock
0000020a g     F .text	00000016 .hidden __riscv_restore_4
00000200 g     F .text	00000020 .hidden __riscv_restore_8
00003cee g     F .text	00000064 _fflush_r
20000bcc g     O .bss	00000020 audio_samples
000001d6 g     F .text	0000001a .hidden __riscv_save_6
00002fc2  w      .text	00000000 SPI2_IRQHandler
00006a6c g     O .text	00000020 __sf_fake_stdin
00000220 g     F .text	000000a8 memset
00000200 g     F .text	00000020 .hidden __riscv_restore_9
0000020a g     F .text	00000016 .hidden __riscv_restore_7
00002a78 g     F .text	0000036e main
00002fc2  w      .text	00000000 TIM10_BRK_IRQHandler
00002fc2  w      .text	00000000 TIM9_CC_IRQHandler
0000494a g     F .text	00000006 __sclose
00002fc2  w      .text	00000000 DMA2_Channel5_IRQHandler
00004104 g     F .text	000000d4 _malloc_r
00002fc2  w      .text	00000000 DMA1_Channel5_IRQHandler
00002fc2  w      .text	00000000 EXTI4_IRQHandler
000036fc g     F .text	00000036 Delay_Ms
00002fc2  w      .text	00000000 USB_LP_CAN1_RX0_IRQHandler
000034c0 g     F .text	0000001a SPI_Cmd
00002de6 g     F .text	000000b2 SystemInit
00002fc2  w      .text	00000000 RNG_IRQHandler
000038e8 g     F .text	00000040 iprintf
00002fc2  w      .text	00000000 USB_HP_CAN1_TX_IRQHandler
00000000 g       .init	00000000 _sinit
00004950 g     F .text	00000036 _write_r
00002fc2  w      .text	00000000 DMA1_Channel3_IRQHandler
00002fc2  w      .text	00000000 ETH_IRQHandler
000044c6 g     F .text	0000010c _printf_common
20000098 g     O .data	00000004 _impure_ptr
00002fc2  w      .text	00000000 TIM1_UP_IRQHandler
00003bbe g     F .text	00000130 __sflush_r
200000a0 g     O .bss	00000004 estado_mp3
00002fc2  w      .text	00000000 WWDG_IRQHandler
20000bec g     O .bss	00000480 buf
00002fc2  w      .text	00000000 USBHSWakeup_IRQHandler
00002fc2  w      .text	00000000 DMA2_Channel11_IRQHandler
00002fc2  w      .text	00000000 Ecall_U_Mode_Handler
200001cc g     O .bss	00000a00 ar_audio_samples
0000315e g     F .text	00000012 DMA_ITConfig
00002fc2  w      .text	00000000 DMA2_Channel6_IRQHandler
00002fc2  w      .text	00000000 TIM2_IRQHandler
20008000 g       .stack	00000000 _eusrstack
000001f0 g     F .text	0000000c .hidden __riscv_save_2
00002fc2  w      .text	00000000 SW_Handler
200000b8 g     O .bss	00000004 pread
000027e6 g     F .text	0000009a Dac_Dma_Init
00002fc2  w      .text	00000000 TIM1_BRK_IRQHandler
00003f74 g     F .text	00000058 __swhatbuf_r
000036c4 g     F .text	00000008 USART_SendData
00002fc2  w      .text	00000000 DMA2_Channel10_IRQHandler
00002fc2  w      .text	00000000 EXTI1_IRQHandler
000030ae g     F .text	0000002c DAC_DMACmd
000001d6 g     F .text	0000001a .hidden __riscv_save_5
0000378c g     F .text	0000003a _write
200000a0 g       .data	00000000 _edata
20003c94 g       .bss	00000000 _end
00003082 g     F .text	0000002c DAC_Cmd
000034ec g     F .text	000000ee TIM_TimeBaseInit
00002fc2  w      .text	00000000 RTCAlarm_IRQHandler
00006ae8 g       .dlalign	00000000 _data_lma
00002fc2  w      .text	00000000 TIM10_UP_IRQHandler
00002fc2  w      .text	00000000 TIM9_TRG_COM_IRQHandler
00002fc2  w      .text	00000000 UART7_IRQHandler
00003052 g     F .text	00000030 DAC_Init
00002fc2  w      .text	00000000 USART2_IRQHandler
00002fc2  w      .text	00000000 UART6_IRQHandler
000048d2 g     F .text	00000048 __swrite
00004240 g     F .text	00000286 _vfiprintf_r
00003f0a g     F .text	0000006a _fwalk_reent
00002e98 g     F .text	0000012a SystemCoreClockUpdate
00002fc2  w      .text	00000000 I2C2_ER_IRQHandler
00002fc2  w      .text	00000000 DMA1_Channel2_IRQHandler
00006a8c g     O .text	00000020 __sf_fake_stdout
000002c8 g     F .text	0000001e Init_FIFO
000001fc g     F .text	00000024 .hidden __riscv_restore_12
00002fc2  w      .text	00000000 TIM8_BRK_IRQHandler
000031a2 g     F .text	0000002c DMA_ClearFlag
00004adc g     F .text	00000010 _read
00002fc4  w      .text	00000000 handle_reset
00002fc2  w      .text	00000000 CAN1_SCE_IRQHandler
00002fc2  w      .text	00000000 FLASH_IRQHandler
000001f0 g     F .text	0000000c .hidden __riscv_save_0
00002fc2  w      .text	00000000 USART1_IRQHandler
00003fcc g     F .text	00000090 __smakebuf_r
000045d2 g     F .text	000002a2 _printf_i
00002fc2  w      .text	00000000 SPI3_IRQHandler
200000ac g     O .bss	00000004 is
200000c8 g     O .bss	00000004 __malloc_sbrk_start
00002fc2  w      .text	00000000 I2C1_ER_IRQHandler
000003cc g     F .text	000000bc SPI_Flash_Init
00003482 g     F .text	0000003e SPI_Init
000032ac g     F .text	00000006 NVIC_PriorityGroupConfig
200000c4 g     O .bss	00000004 __malloc_free_list
00000214 g     F .text	0000000c .hidden __riscv_restore_1
00004240 g     F .text	00000286 _vfprintf_r
00002fc2  w      .text	00000000 USBWakeUp_IRQHandler
20000088 g     O .data	00000004 flash_ok
00004a9c g     F .text	00000010 _close
00002fc2  w      .text	00000000 DMA2_Channel3_IRQHandler



Disassembly of section .init:

00000000 <_sinit>:
   0:	7c50206f          	j	2fc4 <handle_reset>

Disassembly of section .vector:

00000004 <_vector_base>:
	...
   c:	0378                	addi	a4,sp,396
   e:	0000                	unimp
  10:	037a                	slli	t1,t1,0x1e
  12:	0000                	unimp
  14:	0000                	unimp
  16:	0000                	unimp
  18:	2fc2                	lhu	s0,28(a5)
	...
  22:	0000                	unimp
  24:	2fc2                	lhu	s0,28(a5)
  26:	0000                	unimp
  28:	2fc2                	lhu	s0,28(a5)
	...
  32:	0000                	unimp
  34:	2fc2                	lhu	s0,28(a5)
  36:	0000                	unimp
  38:	0000                	unimp
  3a:	0000                	unimp
  3c:	2fc2                	lhu	s0,28(a5)
  3e:	0000                	unimp
  40:	0000                	unimp
  42:	0000                	unimp
  44:	2fc2                	lhu	s0,28(a5)
  46:	0000                	unimp
  48:	2fc2                	lhu	s0,28(a5)
  4a:	0000                	unimp
  4c:	2fc2                	lhu	s0,28(a5)
  4e:	0000                	unimp
  50:	2fc2                	lhu	s0,28(a5)
  52:	0000                	unimp
  54:	2fc2                	lhu	s0,28(a5)
  56:	0000                	unimp
  58:	2fc2                	lhu	s0,28(a5)
  5a:	0000                	unimp
  5c:	2fc2                	lhu	s0,28(a5)
  5e:	0000                	unimp
  60:	2fc2                	lhu	s0,28(a5)
  62:	0000                	unimp
  64:	2fc2                	lhu	s0,28(a5)
  66:	0000                	unimp
  68:	2fc2                	lhu	s0,28(a5)
  6a:	0000                	unimp
  6c:	2fc2                	lhu	s0,28(a5)
  6e:	0000                	unimp
  70:	2fc2                	lhu	s0,28(a5)
  72:	0000                	unimp
  74:	2fc2                	lhu	s0,28(a5)
  76:	0000                	unimp
  78:	2fc2                	lhu	s0,28(a5)
  7a:	0000                	unimp
  7c:	2fc2                	lhu	s0,28(a5)
  7e:	0000                	unimp
  80:	2fc2                	lhu	s0,28(a5)
  82:	0000                	unimp
  84:	2fc2                	lhu	s0,28(a5)
  86:	0000                	unimp
  88:	2fc2                	lhu	s0,28(a5)
  8a:	0000                	unimp
  8c:	2fc2                	lhu	s0,28(a5)
  8e:	0000                	unimp
  90:	2fc2                	lhu	s0,28(a5)
  92:	0000                	unimp
  94:	2fc2                	lhu	s0,28(a5)
  96:	0000                	unimp
  98:	2fc2                	lhu	s0,28(a5)
  9a:	0000                	unimp
  9c:	2fc2                	lhu	s0,28(a5)
  9e:	0000                	unimp
  a0:	2fc2                	lhu	s0,28(a5)
  a2:	0000                	unimp
  a4:	2fc2                	lhu	s0,28(a5)
  a6:	0000                	unimp
  a8:	2fc2                	lhu	s0,28(a5)
  aa:	0000                	unimp
  ac:	2fc2                	lhu	s0,28(a5)
  ae:	0000                	unimp
  b0:	2fc2                	lhu	s0,28(a5)
  b2:	0000                	unimp
  b4:	2fc2                	lhu	s0,28(a5)
  b6:	0000                	unimp
  b8:	2fc2                	lhu	s0,28(a5)
  ba:	0000                	unimp
  bc:	2fc2                	lhu	s0,28(a5)
  be:	0000                	unimp
  c0:	2fc2                	lhu	s0,28(a5)
  c2:	0000                	unimp
  c4:	2fc2                	lhu	s0,28(a5)
  c6:	0000                	unimp
  c8:	2fc2                	lhu	s0,28(a5)
  ca:	0000                	unimp
  cc:	2fc2                	lhu	s0,28(a5)
  ce:	0000                	unimp
  d0:	2fc2                	lhu	s0,28(a5)
  d2:	0000                	unimp
  d4:	2fc2                	lhu	s0,28(a5)
  d6:	0000                	unimp
  d8:	2fc2                	lhu	s0,28(a5)
  da:	0000                	unimp
  dc:	2fc2                	lhu	s0,28(a5)
  de:	0000                	unimp
  e0:	2fc2                	lhu	s0,28(a5)
  e2:	0000                	unimp
  e4:	2fc2                	lhu	s0,28(a5)
  e6:	0000                	unimp
  e8:	2fc2                	lhu	s0,28(a5)
  ea:	0000                	unimp
  ec:	2fc2                	lhu	s0,28(a5)
  ee:	0000                	unimp
  f0:	2fc2                	lhu	s0,28(a5)
  f2:	0000                	unimp
  f4:	2fc2                	lhu	s0,28(a5)
  f6:	0000                	unimp
  f8:	2fc2                	lhu	s0,28(a5)
  fa:	0000                	unimp
  fc:	2fc2                	lhu	s0,28(a5)
  fe:	0000                	unimp
 100:	2fc2                	lhu	s0,28(a5)
 102:	0000                	unimp
 104:	0000                	unimp
 106:	0000                	unimp
 108:	2fc2                	lhu	s0,28(a5)
 10a:	0000                	unimp
 10c:	2fc2                	lhu	s0,28(a5)
 10e:	0000                	unimp
 110:	2fc2                	lhu	s0,28(a5)
 112:	0000                	unimp
 114:	2fc2                	lhu	s0,28(a5)
 116:	0000                	unimp
 118:	2fc2                	lhu	s0,28(a5)
 11a:	0000                	unimp
 11c:	2fc2                	lhu	s0,28(a5)
 11e:	0000                	unimp
 120:	2fc2                	lhu	s0,28(a5)
 122:	0000                	unimp
 124:	2fc2                	lhu	s0,28(a5)
 126:	0000                	unimp
 128:	2fc2                	lhu	s0,28(a5)
 12a:	0000                	unimp
 12c:	2fc2                	lhu	s0,28(a5)
 12e:	0000                	unimp
 130:	2880                	lbu	s0,16(s1)
 132:	0000                	unimp
 134:	2fc2                	lhu	s0,28(a5)
 136:	0000                	unimp
 138:	2fc2                	lhu	s0,28(a5)
 13a:	0000                	unimp
 13c:	2fc2                	lhu	s0,28(a5)
 13e:	0000                	unimp
 140:	2fc2                	lhu	s0,28(a5)
 142:	0000                	unimp
 144:	2fc2                	lhu	s0,28(a5)
 146:	0000                	unimp
 148:	2fc2                	lhu	s0,28(a5)
 14a:	0000                	unimp
 14c:	2fc2                	lhu	s0,28(a5)
 14e:	0000                	unimp
 150:	2fc2                	lhu	s0,28(a5)
 152:	0000                	unimp
 154:	2fc2                	lhu	s0,28(a5)
 156:	0000                	unimp
 158:	2fc2                	lhu	s0,28(a5)
 15a:	0000                	unimp
 15c:	2fc2                	lhu	s0,28(a5)
 15e:	0000                	unimp
 160:	2fc2                	lhu	s0,28(a5)
 162:	0000                	unimp
 164:	2fc2                	lhu	s0,28(a5)
 166:	0000                	unimp
 168:	2fc2                	lhu	s0,28(a5)
 16a:	0000                	unimp
 16c:	2fc2                	lhu	s0,28(a5)
 16e:	0000                	unimp
 170:	2fc2                	lhu	s0,28(a5)
 172:	0000                	unimp
 174:	2fc2                	lhu	s0,28(a5)
 176:	0000                	unimp
 178:	2fc2                	lhu	s0,28(a5)
 17a:	0000                	unimp
 17c:	2fc2                	lhu	s0,28(a5)
 17e:	0000                	unimp
 180:	2fc2                	lhu	s0,28(a5)
 182:	0000                	unimp
 184:	2fc2                	lhu	s0,28(a5)
 186:	0000                	unimp
 188:	2fc2                	lhu	s0,28(a5)
 18a:	0000                	unimp
 18c:	2fc2                	lhu	s0,28(a5)
 18e:	0000                	unimp
 190:	2fc2                	lhu	s0,28(a5)
 192:	0000                	unimp
 194:	2fc2                	lhu	s0,28(a5)
 196:	0000                	unimp
 198:	2fc2                	lhu	s0,28(a5)
 19a:	0000                	unimp
 19c:	2fc2                	lhu	s0,28(a5)
 19e:	0000                	unimp
 1a0:	2fc2                	lhu	s0,28(a5)
	...

Disassembly of section .text:

000001c0 <__riscv_save_12>:
     1c0:	7139                	addi	sp,sp,-64
     1c2:	4301                	li	t1,0
     1c4:	c66e                	sw	s11,12(sp)
     1c6:	a019                	j	1cc <__riscv_save_10+0x4>

000001c8 <__riscv_save_10>:
     1c8:	7139                	addi	sp,sp,-64
     1ca:	5341                	li	t1,-16
     1cc:	c86a                	sw	s10,16(sp)
     1ce:	ca66                	sw	s9,20(sp)
     1d0:	cc62                	sw	s8,24(sp)
     1d2:	ce5e                	sw	s7,28(sp)
     1d4:	a019                	j	1da <__riscv_save_4+0x4>

000001d6 <__riscv_save_4>:
     1d6:	7139                	addi	sp,sp,-64
     1d8:	5301                	li	t1,-32
     1da:	d05a                	sw	s6,32(sp)
     1dc:	d256                	sw	s5,36(sp)
     1de:	d452                	sw	s4,40(sp)
     1e0:	d64e                	sw	s3,44(sp)
     1e2:	d84a                	sw	s2,48(sp)
     1e4:	da26                	sw	s1,52(sp)
     1e6:	dc22                	sw	s0,56(sp)
     1e8:	de06                	sw	ra,60(sp)
     1ea:	40610133          	sub	sp,sp,t1
     1ee:	8282                	jr	t0

000001f0 <__riscv_save_0>:
     1f0:	1141                	addi	sp,sp,-16
     1f2:	c04a                	sw	s2,0(sp)
     1f4:	c226                	sw	s1,4(sp)
     1f6:	c422                	sw	s0,8(sp)
     1f8:	c606                	sw	ra,12(sp)
     1fa:	8282                	jr	t0

000001fc <__riscv_restore_12>:
     1fc:	4db2                	lw	s11,12(sp)
     1fe:	0141                	addi	sp,sp,16

00000200 <__riscv_restore_10>:
     200:	4d02                	lw	s10,0(sp)
     202:	4c92                	lw	s9,4(sp)
     204:	4c22                	lw	s8,8(sp)
     206:	4bb2                	lw	s7,12(sp)
     208:	0141                	addi	sp,sp,16

0000020a <__riscv_restore_4>:
     20a:	4b02                	lw	s6,0(sp)
     20c:	4a92                	lw	s5,4(sp)
     20e:	4a22                	lw	s4,8(sp)
     210:	49b2                	lw	s3,12(sp)
     212:	0141                	addi	sp,sp,16

00000214 <__riscv_restore_0>:
     214:	4902                	lw	s2,0(sp)
     216:	4492                	lw	s1,4(sp)
     218:	4422                	lw	s0,8(sp)
     21a:	40b2                	lw	ra,12(sp)
     21c:	0141                	addi	sp,sp,16
     21e:	8082                	ret

00000220 <memset>:
     220:	433d                	li	t1,15
     222:	872a                	mv	a4,a0
     224:	02c37363          	bgeu	t1,a2,24a <memset+0x2a>
     228:	00f77793          	andi	a5,a4,15
     22c:	efbd                	bnez	a5,2aa <memset+0x8a>
     22e:	e5ad                	bnez	a1,298 <memset+0x78>
     230:	ff067693          	andi	a3,a2,-16
     234:	8a3d                	andi	a2,a2,15
     236:	96ba                	add	a3,a3,a4
     238:	c30c                	sw	a1,0(a4)
     23a:	c34c                	sw	a1,4(a4)
     23c:	c70c                	sw	a1,8(a4)
     23e:	c74c                	sw	a1,12(a4)
     240:	0741                	addi	a4,a4,16
     242:	fed76be3          	bltu	a4,a3,238 <memset+0x18>
     246:	e211                	bnez	a2,24a <memset+0x2a>
     248:	8082                	ret
     24a:	40c306b3          	sub	a3,t1,a2
     24e:	068a                	slli	a3,a3,0x2
     250:	00000297          	auipc	t0,0x0
     254:	9696                	add	a3,a3,t0
     256:	00a68067          	jr	10(a3)
     25a:	00b70723          	sb	a1,14(a4)
     25e:	00b706a3          	sb	a1,13(a4)
     262:	00b70623          	sb	a1,12(a4)
     266:	00b705a3          	sb	a1,11(a4)
     26a:	00b70523          	sb	a1,10(a4)
     26e:	00b704a3          	sb	a1,9(a4)
     272:	00b70423          	sb	a1,8(a4)
     276:	00b703a3          	sb	a1,7(a4)
     27a:	00b70323          	sb	a1,6(a4)
     27e:	00b702a3          	sb	a1,5(a4)
     282:	00b70223          	sb	a1,4(a4)
     286:	00b701a3          	sb	a1,3(a4)
     28a:	00b70123          	sb	a1,2(a4)
     28e:	00b700a3          	sb	a1,1(a4)
     292:	00b70023          	sb	a1,0(a4)
     296:	8082                	ret
     298:	0ff5f593          	andi	a1,a1,255
     29c:	00859693          	slli	a3,a1,0x8
     2a0:	8dd5                	or	a1,a1,a3
     2a2:	01059693          	slli	a3,a1,0x10
     2a6:	8dd5                	or	a1,a1,a3
     2a8:	b761                	j	230 <memset+0x10>
     2aa:	00279693          	slli	a3,a5,0x2
     2ae:	00000297          	auipc	t0,0x0
     2b2:	9696                	add	a3,a3,t0
     2b4:	8286                	mv	t0,ra
     2b6:	fa8680e7          	jalr	-88(a3)
     2ba:	8096                	mv	ra,t0
     2bc:	17c1                	addi	a5,a5,-16
     2be:	8f1d                	sub	a4,a4,a5
     2c0:	963e                	add	a2,a2,a5
     2c2:	f8c374e3          	bgeu	t1,a2,24a <memset+0x2a>
     2c6:	b7a5                	j	22e <memset+0xe>

000002c8 <Init_FIFO>:
     2c8:	c514                	sw	a3,8(a0)
     2ca:	02c686b3          	mul	a3,a3,a2
     2ce:	cd4c                	sw	a1,28(a0)
     2d0:	c950                	sw	a2,20(a0)
     2d2:	00052023          	sw	zero,0(a0)
     2d6:	00052223          	sw	zero,4(a0)
     2da:	00052823          	sw	zero,16(a0)
     2de:	00052c23          	sw	zero,24(a0)
     2e2:	c554                	sw	a3,12(a0)
     2e4:	8082                	ret

000002e6 <n_sample_out_FIFO>:
     2e6:	491c                	lw	a5,16(a0)
     2e8:	e791                	bnez	a5,2f4 <n_sample_out_FIFO+0xe>
     2ea:	451c                	lw	a5,8(a0)
     2ec:	4d08                	lw	a0,24(a0)
     2ee:	40a78533          	sub	a0,a5,a0
     2f2:	8082                	ret
     2f4:	4501                	li	a0,0
     2f6:	8082                	ret

000002f8 <put_sample_FIFO>:
     2f8:	491c                	lw	a5,16(a0)
     2fa:	cb8d                	beqz	a5,32c <put_sample_FIFO+0x34>
     2fc:	4d18                	lw	a4,24(a0)
     2fe:	451c                	lw	a5,8(a0)
     300:	00f71463          	bne	a4,a5,308 <put_sample_FIFO+0x10>
     304:	4785                	li	a5,1
     306:	c91c                	sw	a5,16(a0)
     308:	8082                	ret
     30a:	4114                	lw	a3,0(a0)
     30c:	4d58                	lw	a4,28(a0)
     30e:	00168613          	addi	a2,a3,1
     312:	c110                	sw	a2,0(a0)
     314:	00f58633          	add	a2,a1,a5
     318:	2210                	lbu	a2,0(a2)
     31a:	9736                	add	a4,a4,a3
     31c:	a310                	sb	a2,0(a4)
     31e:	4114                	lw	a3,0(a0)
     320:	4558                	lw	a4,12(a0)
     322:	00e69463          	bne	a3,a4,32a <put_sample_FIFO+0x32>
     326:	00052023          	sw	zero,0(a0)
     32a:	0785                	addi	a5,a5,1
     32c:	4958                	lw	a4,20(a0)
     32e:	fce7cee3          	blt	a5,a4,30a <put_sample_FIFO+0x12>
     332:	4d1c                	lw	a5,24(a0)
     334:	0785                	addi	a5,a5,1
     336:	cd1c                	sw	a5,24(a0)
     338:	b7d1                	j	2fc <put_sample_FIFO+0x4>

0000033a <get_sample_FIFO>:
     33a:	4d18                	lw	a4,24(a0)
     33c:	4781                	li	a5,0
     33e:	02e04463          	bgtz	a4,366 <get_sample_FIFO+0x2c>
     342:	8082                	ret
     344:	4154                	lw	a3,4(a0)
     346:	4d58                	lw	a4,28(a0)
     348:	00168613          	addi	a2,a3,1
     34c:	c150                	sw	a2,4(a0)
     34e:	9736                	add	a4,a4,a3
     350:	2314                	lbu	a3,0(a4)
     352:	00f58733          	add	a4,a1,a5
     356:	a314                	sb	a3,0(a4)
     358:	4154                	lw	a3,4(a0)
     35a:	4558                	lw	a4,12(a0)
     35c:	00e69463          	bne	a3,a4,364 <get_sample_FIFO+0x2a>
     360:	00052223          	sw	zero,4(a0)
     364:	0785                	addi	a5,a5,1
     366:	4958                	lw	a4,20(a0)
     368:	fce7cee3          	blt	a5,a4,344 <get_sample_FIFO+0xa>
     36c:	4d1c                	lw	a5,24(a0)
     36e:	00052823          	sw	zero,16(a0)
     372:	17fd                	addi	a5,a5,-1
     374:	cd1c                	sw	a5,24(a0)
     376:	8082                	ret

00000378 <NMI_Handler>:
     378:	a001                	j	378 <NMI_Handler>

0000037a <HardFault_Handler>:
     37a:	beef07b7          	lui	a5,0xbeef0
     37e:	e000e737          	lui	a4,0xe000e
     382:	08078793          	addi	a5,a5,128 # beef0080 <_eusrstack+0x9eee8080>
     386:	c73c                	sw	a5,72(a4)
     388:	a001                	j	388 <HardFault_Handler+0xe>

0000038a <SPI1_ReadWriteByte>:
     38a:	e67ff2ef          	jal	t0,1f0 <__riscv_save_0>
     38e:	40004437          	lui	s0,0x40004
     392:	84aa                	mv	s1,a0
     394:	80040913          	addi	s2,s0,-2048 # 40003800 <_eusrstack+0x1fffb800>
     398:	4589                	li	a1,2
     39a:	854a                	mv	a0,s2
     39c:	146030ef          	jal	ra,34e2 <SPI_I2S_GetFlagStatus>
     3a0:	dd65                	beqz	a0,398 <SPI1_ReadWriteByte+0xe>
     3a2:	85a6                	mv	a1,s1
     3a4:	80040513          	addi	a0,s0,-2048
     3a8:	40004437          	lui	s0,0x40004
     3ac:	12e030ef          	jal	ra,34da <SPI_I2S_SendData>
     3b0:	80040493          	addi	s1,s0,-2048 # 40003800 <_eusrstack+0x1fffb800>
     3b4:	4585                	li	a1,1
     3b6:	8526                	mv	a0,s1
     3b8:	12a030ef          	jal	ra,34e2 <SPI_I2S_GetFlagStatus>
     3bc:	dd65                	beqz	a0,3b4 <SPI1_ReadWriteByte+0x2a>
     3be:	80040513          	addi	a0,s0,-2048
     3c2:	11c030ef          	jal	ra,34de <SPI_I2S_ReceiveData>
     3c6:	0ff57513          	andi	a0,a0,255
     3ca:	b5a9                	j	214 <__riscv_restore_0>

000003cc <SPI_Flash_Init>:
     3cc:	e0bff2ef          	jal	t0,1d6 <__riscv_save_4>
     3d0:	1101                	addi	sp,sp,-32
     3d2:	4585                	li	a1,1
     3d4:	4521                	li	a0,8
     3d6:	c002                	sw	zero,0(sp)
     3d8:	c202                	sw	zero,4(sp)
     3da:	c402                	sw	zero,8(sp)
     3dc:	c602                	sw	zero,12(sp)
     3de:	c802                	sw	zero,16(sp)
     3e0:	ca02                	sw	zero,20(sp)
     3e2:	cc02                	sw	zero,24(sp)
     3e4:	00011e23          	sh	zero,28(sp)
     3e8:	05e030ef          	jal	ra,3446 <RCC_APB2PeriphClockCmd>
     3ec:	4585                	li	a1,1
     3ee:	6511                	lui	a0,0x4
     3f0:	074030ef          	jal	ra,3464 <RCC_APB1PeriphClockCmd>
     3f4:	40011437          	lui	s0,0x40011
     3f8:	6785                	lui	a5,0x1
     3fa:	448d                	li	s1,3
     3fc:	4941                	li	s2,16
     3fe:	858a                	mv	a1,sp
     400:	c0040513          	addi	a0,s0,-1024 # 40010c00 <_eusrstack+0x20008c00>
     404:	807c                	sh	a5,0(sp)
     406:	c44a                	sw	s2,8(sp)
     408:	c226                	sw	s1,4(sp)
     40a:	5d9020ef          	jal	ra,31e2 <GPIO_Init>
     40e:	4605                	li	a2,1
     410:	c0040513          	addi	a0,s0,-1024
     414:	6585                	lui	a1,0x1
     416:	68d020ef          	jal	ra,32a2 <GPIO_WriteBit>
     41a:	6789                	lui	a5,0x2
     41c:	49e1                	li	s3,24
     41e:	858a                	mv	a1,sp
     420:	c0040513          	addi	a0,s0,-1024
     424:	807c                	sh	a5,0(sp)
     426:	c44e                	sw	s3,8(sp)
     428:	c226                	sw	s1,4(sp)
     42a:	5b9020ef          	jal	ra,31e2 <GPIO_Init>
     42e:	6791                	lui	a5,0x4
     430:	807c                	sh	a5,0(sp)
     432:	858a                	mv	a1,sp
     434:	4791                	li	a5,4
     436:	c0040513          	addi	a0,s0,-1024
     43a:	c43e                	sw	a5,8(sp)
     43c:	5a7020ef          	jal	ra,31e2 <GPIO_Init>
     440:	77e1                	lui	a5,0xffff8
     442:	858a                	mv	a1,sp
     444:	c0040513          	addi	a0,s0,-1024
     448:	807c                	sh	a5,0(sp)
     44a:	c44e                	sw	s3,8(sp)
     44c:	c226                	sw	s1,4(sp)
     44e:	595020ef          	jal	ra,31e2 <GPIO_Init>
     452:	010407b7          	lui	a5,0x1040
     456:	c63e                	sw	a5,12(sp)
     458:	000207b7          	lui	a5,0x20
     45c:	c83e                	sw	a5,16(sp)
     45e:	020007b7          	lui	a5,0x2000
     462:	40004437          	lui	s0,0x40004
     466:	0785                	addi	a5,a5,1
     468:	ca3e                	sw	a5,20(sp)
     46a:	006c                	addi	a1,sp,12
     46c:	479d                	li	a5,7
     46e:	80040513          	addi	a0,s0,-2048 # 40003800 <_eusrstack+0x1fffb800>
     472:	86fc                	sh	a5,28(sp)
     474:	cc4a                	sw	s2,24(sp)
     476:	00c030ef          	jal	ra,3482 <SPI_Init>
     47a:	4585                	li	a1,1
     47c:	80040513          	addi	a0,s0,-2048
     480:	040030ef          	jal	ra,34c0 <SPI_Cmd>
     484:	6105                	addi	sp,sp,32
     486:	b351                	j	20a <__riscv_restore_4>

00000488 <SPI_Flash_ReadID>:
     488:	d69ff2ef          	jal	t0,1f0 <__riscv_save_0>
     48c:	400114b7          	lui	s1,0x40011
     490:	4601                	li	a2,0
     492:	6585                	lui	a1,0x1
     494:	c0048513          	addi	a0,s1,-1024 # 40010c00 <_eusrstack+0x20008c00>
     498:	60b020ef          	jal	ra,32a2 <GPIO_WriteBit>
     49c:	09000513          	li	a0,144
     4a0:	35ed                	jal	38a <SPI1_ReadWriteByte>
     4a2:	4501                	li	a0,0
     4a4:	35dd                	jal	38a <SPI1_ReadWriteByte>
     4a6:	4501                	li	a0,0
     4a8:	35cd                	jal	38a <SPI1_ReadWriteByte>
     4aa:	4501                	li	a0,0
     4ac:	3df9                	jal	38a <SPI1_ReadWriteByte>
     4ae:	0ff00513          	li	a0,255
     4b2:	3de1                	jal	38a <SPI1_ReadWriteByte>
     4b4:	0522                	slli	a0,a0,0x8
     4b6:	01051413          	slli	s0,a0,0x10
     4ba:	0ff00513          	li	a0,255
     4be:	35f1                	jal	38a <SPI1_ReadWriteByte>
     4c0:	8041                	srli	s0,s0,0x10
     4c2:	8c49                	or	s0,s0,a0
     4c4:	4605                	li	a2,1
     4c6:	c0048513          	addi	a0,s1,-1024
     4ca:	6585                	lui	a1,0x1
     4cc:	0442                	slli	s0,s0,0x10
     4ce:	8041                	srli	s0,s0,0x10
     4d0:	5d3020ef          	jal	ra,32a2 <GPIO_WriteBit>
     4d4:	8522                	mv	a0,s0
     4d6:	bb3d                	j	214 <__riscv_restore_0>

000004d8 <SPI_Flash_Read>:
     4d8:	d19ff2ef          	jal	t0,1f0 <__riscv_save_0>
     4dc:	842a                	mv	s0,a0
     4de:	40011537          	lui	a0,0x40011
     4e2:	892e                	mv	s2,a1
     4e4:	84b2                	mv	s1,a2
     4e6:	6585                	lui	a1,0x1
     4e8:	4601                	li	a2,0
     4ea:	c0050513          	addi	a0,a0,-1024 # 40010c00 <_eusrstack+0x20008c00>
     4ee:	5b5020ef          	jal	ra,32a2 <GPIO_WriteBit>
     4f2:	450d                	li	a0,3
     4f4:	3d59                	jal	38a <SPI1_ReadWriteByte>
     4f6:	01095513          	srli	a0,s2,0x10
     4fa:	0ff57513          	andi	a0,a0,255
     4fe:	3571                	jal	38a <SPI1_ReadWriteByte>
     500:	00895513          	srli	a0,s2,0x8
     504:	0ff57513          	andi	a0,a0,255
     508:	3549                	jal	38a <SPI1_ReadWriteByte>
     50a:	0ff97513          	andi	a0,s2,255
     50e:	3db5                	jal	38a <SPI1_ReadWriteByte>
     510:	94a2                	add	s1,s1,s0
     512:	00941b63          	bne	s0,s1,528 <SPI_Flash_Read+0x50>
     516:	40011537          	lui	a0,0x40011
     51a:	4605                	li	a2,1
     51c:	6585                	lui	a1,0x1
     51e:	c0050513          	addi	a0,a0,-1024 # 40010c00 <_eusrstack+0x20008c00>
     522:	581020ef          	jal	ra,32a2 <GPIO_WriteBit>
     526:	b1fd                	j	214 <__riscv_restore_0>
     528:	0ff00513          	li	a0,255
     52c:	3db9                	jal	38a <SPI1_ReadWriteByte>
     52e:	a008                	sb	a0,0(s0)
     530:	0405                	addi	s0,s0,1
     532:	b7c5                	j	512 <SPI_Flash_Read+0x3a>

00000534 <get_bits>:
     534:	4154                	lw	a3,4(a0)
     536:	4510                	lw	a2,8(a0)
     538:	4118                	lw	a4,0(a0)
     53a:	00b687b3          	add	a5,a3,a1
     53e:	c15c                	sw	a5,4(a0)
     540:	04f64263          	blt	a2,a5,584 <get_bits+0x50>
     544:	0076f613          	andi	a2,a3,7
     548:	868d                	srai	a3,a3,0x3
     54a:	9736                	add	a4,a4,a3
     54c:	231c                	lbu	a5,0(a4)
     54e:	0ff00513          	li	a0,255
     552:	40c55533          	sra	a0,a0,a2
     556:	8fe9                	and	a5,a5,a0
     558:	95b2                	add	a1,a1,a2
     55a:	0705                	addi	a4,a4,1
     55c:	4501                	li	a0,0
     55e:	ff858693          	addi	a3,a1,-8 # ff8 <mp3dec_decode_frame+0x418>
     562:	00d04963          	bgtz	a3,574 <get_bits+0x40>
     566:	4721                	li	a4,8
     568:	40b705b3          	sub	a1,a4,a1
     56c:	00b7d7b3          	srl	a5,a5,a1
     570:	8d5d                	or	a0,a0,a5
     572:	8082                	ret
     574:	00d797b3          	sll	a5,a5,a3
     578:	8d5d                	or	a0,a0,a5
     57a:	0705                	addi	a4,a4,1
     57c:	fff74783          	lbu	a5,-1(a4) # e000dfff <_eusrstack+0xc0005fff>
     580:	85b6                	mv	a1,a3
     582:	bff1                	j	55e <get_bits+0x2a>
     584:	4501                	li	a0,0
     586:	8082                	ret

00000588 <hdr_valid>:
     588:	2114                	lbu	a3,0(a0)
     58a:	0ff00713          	li	a4,255
     58e:	87aa                	mv	a5,a0
     590:	4501                	li	a0,0
     592:	04e69163          	bne	a3,a4,5d4 <hdr_valid+0x4c>
     596:	3398                	lbu	a4,1(a5)
     598:	0f000693          	li	a3,240
     59c:	0f077613          	andi	a2,a4,240
     5a0:	00d60963          	beq	a2,a3,5b2 <hdr_valid+0x2a>
     5a4:	0fe77693          	andi	a3,a4,254
     5a8:	0e200613          	li	a2,226
     5ac:	4501                	li	a0,0
     5ae:	02c69363          	bne	a3,a2,5d4 <hdr_valid+0x4c>
     5b2:	8305                	srli	a4,a4,0x1
     5b4:	8b0d                	andi	a4,a4,3
     5b6:	4501                	li	a0,0
     5b8:	cf11                	beqz	a4,5d4 <hdr_valid+0x4c>
     5ba:	23bc                	lbu	a5,2(a5)
     5bc:	473d                	li	a4,15
     5be:	0047d693          	srli	a3,a5,0x4
     5c2:	00e68963          	beq	a3,a4,5d4 <hdr_valid+0x4c>
     5c6:	0027d513          	srli	a0,a5,0x2
     5ca:	890d                	andi	a0,a0,3
     5cc:	1575                	addi	a0,a0,-3
     5ce:	00a03533          	snez	a0,a0
     5d2:	8082                	ret
     5d4:	8082                	ret

000005d6 <hdr_compare>:
     5d6:	c1bff2ef          	jal	t0,1f0 <__riscv_save_0>
     5da:	1141                	addi	sp,sp,-16
     5dc:	842a                	mv	s0,a0
     5de:	852e                	mv	a0,a1
     5e0:	c62e                	sw	a1,12(sp)
     5e2:	375d                	jal	588 <hdr_valid>
     5e4:	c915                	beqz	a0,618 <hdr_compare+0x42>
     5e6:	45b2                	lw	a1,12(sp)
     5e8:	3018                	lbu	a4,1(s0)
     5ea:	4501                	li	a0,0
     5ec:	319c                	lbu	a5,1(a1)
     5ee:	8f3d                	xor	a4,a4,a5
     5f0:	0fe77713          	andi	a4,a4,254
     5f4:	e315                	bnez	a4,618 <hdr_compare+0x42>
     5f6:	203c                	lbu	a5,2(s0)
     5f8:	21b8                	lbu	a4,2(a1)
     5fa:	00e7c6b3          	xor	a3,a5,a4
     5fe:	8ab1                	andi	a3,a3,12
     600:	ee81                	bnez	a3,618 <hdr_compare+0x42>
     602:	0f07f513          	andi	a0,a5,240
     606:	0f077713          	andi	a4,a4,240
     60a:	00a03533          	snez	a0,a0
     60e:	00173713          	seqz	a4,a4
     612:	8d19                	sub	a0,a0,a4
     614:	00a03533          	snez	a0,a0
     618:	0141                	addi	sp,sp,16
     61a:	beed                	j	214 <__riscv_restore_0>

0000061c <hdr_frame_samples>:
     61c:	311c                	lbu	a5,1(a0)
     61e:	4719                	li	a4,6
     620:	0067f693          	andi	a3,a5,6
     624:	00e68b63          	beq	a3,a4,63a <hdr_frame_samples+0x1e>
     628:	8bb9                	andi	a5,a5,14
     62a:	4709                	li	a4,2
     62c:	24000513          	li	a0,576
     630:	00e78763          	beq	a5,a4,63e <hdr_frame_samples+0x22>
     634:	48000513          	li	a0,1152
     638:	8082                	ret
     63a:	18000513          	li	a0,384
     63e:	8082                	ret

00000640 <L3_ldexp_q2>:
     640:	6695                	lui	a3,0x5
     642:	07800593          	li	a1,120
     646:	40000637          	lui	a2,0x40000
     64a:	b6068693          	addi	a3,a3,-1184 # 4b60 <g_expfrac.6431>
     64e:	872a                	mv	a4,a0
     650:	00a5d463          	bge	a1,a0,658 <L3_ldexp_q2+0x18>
     654:	07800713          	li	a4,120
     658:	40275793          	srai	a5,a4,0x2
     65c:	40f657b3          	sra	a5,a2,a5
     660:	d007f7d3          	fcvt.s.w	fa5,a5
     664:	00377793          	andi	a5,a4,3
     668:	078a                	slli	a5,a5,0x2
     66a:	97b6                	add	a5,a5,a3
     66c:	6398                	flw	fa4,0(a5)
     66e:	8d19                	sub	a0,a0,a4
     670:	10e7f7d3          	fmul.s	fa5,fa5,fa4
     674:	10f57553          	fmul.s	fa0,fa0,fa5
     678:	fca04be3          	bgtz	a0,64e <L3_ldexp_q2+0xe>
     67c:	8082                	ret

0000067e <L3_midside_stereo>:
     67e:	058a                	slli	a1,a1,0x2
     680:	6785                	lui	a5,0x1
     682:	95aa                	add	a1,a1,a0
     684:	90078793          	addi	a5,a5,-1792 # 900 <mp3d_scale_pcm+0x3e>
     688:	00f50733          	add	a4,a0,a5
     68c:	611c                	flw	fa5,0(a0)
     68e:	6318                	flw	fa4,0(a4)
     690:	0511                	addi	a0,a0,4
     692:	00e7f6d3          	fadd.s	fa3,fa5,fa4
     696:	08e7f7d3          	fsub.s	fa5,fa5,fa4
     69a:	fed52e27          	fsw	fa3,-4(a0)
     69e:	e31c                	fsw	fa5,0(a4)
     6a0:	fea594e3          	bne	a1,a0,688 <L3_midside_stereo+0xa>
     6a4:	8082                	ret

000006a6 <L3_dct3_9>:
     6a6:	000057b7          	lui	a5,0x5
     6aa:	00852107          	flw	ft2,8(a0)
     6ae:	6908                	flw	fa0,16(a0)
     6b0:	6114                	flw	fa3,0(a0)
     6b2:	7118                	flw	fa4,32(a0)
     6b4:	b007a787          	flw	fa5,-1280(a5) # 4b00 <_read+0x24>
     6b8:	6d0c                	flw	fa1,24(a0)
     6ba:	00e17653          	fadd.s	fa2,ft2,fa4
     6be:	00a17053          	fadd.s	ft0,ft2,fa0
     6c2:	68f5f0c3          	fmadd.s	ft1,fa1,fa5,fa3
     6c6:	08b6f5d3          	fsub.s	fa1,fa3,fa1
     6ca:	08e576d3          	fsub.s	fa3,fa0,fa4
     6ce:	08277753          	fsub.s	fa4,fa4,ft2
     6d2:	000057b7          	lui	a5,0x5
     6d6:	b047a107          	flw	ft2,-1276(a5) # 4b04 <_read+0x28>
     6da:	000057b7          	lui	a5,0x5
     6de:	00a77753          	fadd.s	fa4,fa4,fa0
     6e2:	58f7754b          	fnmsub.s	fa0,fa4,fa5,fa1
     6e6:	00e5f753          	fadd.s	fa4,fa1,fa4
     6ea:	b087a787          	flw	fa5,-1272(a5) # 4b08 <_read+0x2c>
     6ee:	000057b7          	lui	a5,0x5
     6f2:	082675cb          	fnmsub.s	fa1,fa2,ft2,ft1
     6f6:	e918                	fsw	fa4,16(a0)
     6f8:	b0c7a707          	flw	fa4,-1268(a5) # 4b0c <_read+0x30>
     6fc:	000057b7          	lui	a5,0x5
     700:	58f6f5c3          	fmadd.s	fa1,fa3,fa5,fa1
     704:	08e071cb          	fnmsub.s	ft3,ft0,fa4,ft1
     708:	08e07743          	fmadd.s	fa4,ft0,fa4,ft1
     70c:	b107a287          	flw	ft5,-1264(a5) # 4b10 <_read+0x34>
     710:	000057b7          	lui	a5,0x5
     714:	b147a007          	flw	ft0,-1260(a5) # 4b14 <_read+0x38>
     718:	18267643          	fmadd.s	fa2,fa2,ft2,ft3
     71c:	70f6f74b          	fnmsub.s	fa4,fa3,fa5,fa4
     720:	01452187          	flw	ft3,20(a0)
     724:	6d54                	flw	fa3,28(a0)
     726:	615c                	flw	fa5,4(a0)
     728:	000057b7          	lui	a5,0x5
     72c:	08d1f253          	fsub.s	ft4,ft3,fa3
     730:	0037f153          	fadd.s	ft2,fa5,ft3
     734:	00c52087          	flw	ft1,12(a0)
     738:	10027253          	fmul.s	ft4,ft4,ft0
     73c:	00d7f053          	fadd.s	ft0,fa5,fa3
     740:	0837f7d3          	fsub.s	fa5,fa5,ft3
     744:	105172d3          	fmul.s	ft5,ft2,ft5
     748:	08d7f7d3          	fsub.s	fa5,fa5,fa3
     74c:	b187a687          	flw	fa3,-1256(a5) # 4b18 <_read+0x3c>
     750:	000057b7          	lui	a5,0x5
     754:	b1c7a307          	flw	ft6,-1252(a5) # 4b1c <_read+0x40>
     758:	20d0f14b          	fnmsub.s	ft2,ft1,fa3,ft4
     75c:	28d0f1cb          	fnmsub.s	ft3,ft1,fa3,ft5
     760:	20d0f0c3          	fmadd.s	ft1,ft1,fa3,ft4
     764:	08517153          	fsub.s	ft2,ft2,ft5
     768:	186071cb          	fnmsub.s	ft3,ft0,ft6,ft3
     76c:	0860704b          	fnmsub.s	ft0,ft0,ft6,ft1
     770:	082770d3          	fsub.s	ft1,fa4,ft2
     774:	00277753          	fadd.s	fa4,fa4,ft2
     778:	00152027          	fsw	ft1,0(a0)
     77c:	50d7f0c3          	fmadd.s	ft1,fa5,fa3,fa0
     780:	50d7f7cb          	fnmsub.s	fa5,fa5,fa3,fa0
     784:	f118                	fsw	fa4,32(a0)
     786:	00152227          	fsw	ft1,4(a0)
     78a:	080670d3          	fsub.s	ft1,fa2,ft0
     78e:	00067653          	fadd.s	fa2,fa2,ft0
     792:	ed5c                	fsw	fa5,28(a0)
     794:	00152427          	fsw	ft1,8(a0)
     798:	0035f0d3          	fadd.s	ft1,fa1,ft3
     79c:	0835f5d3          	fsub.s	fa1,fa1,ft3
     7a0:	ed10                	fsw	fa2,24(a0)
     7a2:	00152627          	fsw	ft1,12(a0)
     7a6:	e94c                	fsw	fa1,20(a0)
     7a8:	8082                	ret

000007aa <L3_imdct36>:
     7aa:	a1fff2ef          	jal	t0,1c8 <__riscv_save_10>
     7ae:	711d                	addi	sp,sp,-96
     7b0:	04450493          	addi	s1,a0,68
     7b4:	4981                	li	s3,0
     7b6:	02400a93          	li	s5,36
     7ba:	6c15                	lui	s8,0x5
     7bc:	03598a33          	mul	s4,s3,s5
     7c0:	fbc48b93          	addi	s7,s1,-68
     7c4:	9a2e                	add	s4,s4,a1
     7c6:	00d9c463          	blt	s3,a3,7ce <L3_imdct36+0x24>
     7ca:	6125                	addi	sp,sp,96
     7cc:	bc15                	j	200 <__riscv_restore_10>
     7ce:	fbc4a787          	flw	fa5,-68(s1)
     7d2:	1878                	addi	a4,sp,60
     7d4:	083c                	addi	a5,sp,24
     7d6:	20f797d3          	fneg.s	fa5,fa5
     7da:	fc048413          	addi	s0,s1,-64
     7de:	893a                	mv	s2,a4
     7e0:	ec3e                	fsw	fa5,24(sp)
     7e2:	609c                	flw	fa5,0(s1)
     7e4:	8b3e                	mv	s6,a5
     7e6:	fe3e                	fsw	fa5,60(sp)
     7e8:	6058                	flw	fa4,4(s0)
     7ea:	601c                	flw	fa5,0(s0)
     7ec:	0441                	addi	s0,s0,16
     7ee:	1761                	addi	a4,a4,-8
     7f0:	08e7f6d3          	fsub.s	fa3,fa5,fa4
     7f4:	00e7f7d3          	fadd.s	fa5,fa5,fa4
     7f8:	ff842707          	flw	fa4,-8(s0)
     7fc:	07a1                	addi	a5,a5,8
     7fe:	f714                	fsw	fa3,40(a4)
     800:	fef7ae27          	fsw	fa5,-4(a5)
     804:	ffc42787          	flw	fa5,-4(s0)
     808:	08e7f6d3          	fsub.s	fa3,fa5,fa4
     80c:	00e7f7d3          	fadd.s	fa5,fa5,fa4
     810:	f354                	fsw	fa3,36(a4)
     812:	20f797d3          	fneg.s	fa5,fa5
     816:	e39c                	fsw	fa5,0(a5)
     818:	fc8498e3          	bne	s1,s0,7e8 <L3_imdct36+0x3e>
     81c:	855a                	mv	a0,s6
     81e:	c636                	sw	a3,12(sp)
     820:	c432                	sw	a2,8(sp)
     822:	c22e                	sw	a1,4(sp)
     824:	3549                	jal	6a6 <L3_dct3_9>
     826:	854a                	mv	a0,s2
     828:	3dbd                	jal	6a6 <L3_dct3_9>
     82a:	6786                	flw	fa5,64(sp)
     82c:	4622                	lw	a2,8(sp)
     82e:	46b2                	lw	a3,12(sp)
     830:	20f797d3          	fneg.s	fa5,fa5
     834:	4592                	lw	a1,4(sp)
     836:	2e0c0513          	addi	a0,s8,736 # 52e0 <g_twid9.6676>
     83a:	e0be                	fsw	fa5,64(sp)
     83c:	67a6                	flw	fa5,72(sp)
     83e:	8732                	mv	a4,a2
     840:	4781                	li	a5,0
     842:	20f797d3          	fneg.s	fa5,fa5
     846:	e4be                	fsw	fa5,72(sp)
     848:	67c6                	flw	fa5,80(sp)
     84a:	20f797d3          	fneg.s	fa5,fa5
     84e:	e8be                	fsw	fa5,80(sp)
     850:	67e6                	flw	fa5,88(sp)
     852:	20f797d3          	fneg.s	fa5,fa5
     856:	ecbe                	fsw	fa5,88(sp)
     858:	00fb08b3          	add	a7,s6,a5
     85c:	0008a707          	flw	fa4,0(a7)
     860:	00f908b3          	add	a7,s2,a5
     864:	6110                	flw	fa2,0(a0)
     866:	0008a507          	flw	fa0,0(a7)
     86a:	7154                	flw	fa3,36(a0)
     86c:	00fa0833          	add	a6,s4,a5
     870:	10c577d3          	fmul.s	fa5,fa0,fa2
     874:	00082587          	flw	fa1,0(a6)
     878:	0511                	addi	a0,a0,4
     87a:	0711                	addi	a4,a4,4
     87c:	1471                	addi	s0,s0,-4
     87e:	78d777c3          	fmadd.s	fa5,fa4,fa3,fa5
     882:	10a6f6d3          	fmul.s	fa3,fa3,fa0
     886:	68c77747          	fmsub.s	fa4,fa4,fa2,fa3
     88a:	00e82027          	fsw	fa4,0(a6)
     88e:	7314                	flw	fa3,32(a4)
     890:	ffc72707          	flw	fa4,-4(a4)
     894:	00fb8833          	add	a6,s7,a5
     898:	10d7f6d3          	fmul.s	fa3,fa5,fa3
     89c:	0791                	addi	a5,a5,4
     89e:	68b776c7          	fmsub.s	fa3,fa4,fa1,fa3
     8a2:	00d82027          	fsw	fa3,0(a6)
     8a6:	ffc72707          	flw	fa4,-4(a4)
     8aa:	10e7f7d3          	fmul.s	fa5,fa5,fa4
     8ae:	7318                	flw	fa4,32(a4)
     8b0:	78b777c3          	fmadd.s	fa5,fa4,fa1,fa5
     8b4:	e05c                	fsw	fa5,4(s0)
     8b6:	fb5791e3          	bne	a5,s5,858 <L3_imdct36+0xae>
     8ba:	0985                	addi	s3,s3,1
     8bc:	04848493          	addi	s1,s1,72
     8c0:	bdf5                	j	7bc <L3_imdct36+0x12>

000008c2 <mp3d_scale_pcm>:
     8c2:	000067b7          	lui	a5,0x6
     8c6:	8747a787          	flw	fa5,-1932(a5) # 5874 <halfrate.6375+0x18c>
     8ca:	a0a787d3          	fle.s	a5,fa5,fa0
     8ce:	eb8d                	bnez	a5,900 <mp3d_scale_pcm+0x3e>
     8d0:	000067b7          	lui	a5,0x6
     8d4:	8787a787          	flw	fa5,-1928(a5) # 5878 <halfrate.6375+0x190>
     8d8:	7561                	lui	a0,0xffff8
     8da:	a0f507d3          	fle.s	a5,fa0,fa5
     8de:	e39d                	bnez	a5,904 <mp3d_scale_pcm+0x42>
     8e0:	000057b7          	lui	a5,0x5
     8e4:	b007a787          	flw	fa5,-1280(a5) # 4b00 <_read+0x24>
     8e8:	00f57553          	fadd.s	fa0,fa0,fa5
     8ec:	c0051553          	fcvt.w.s	a0,fa0,rtz
     8f0:	0542                	slli	a0,a0,0x10
     8f2:	8541                	srai	a0,a0,0x10
     8f4:	01f55793          	srli	a5,a0,0x1f
     8f8:	8d1d                	sub	a0,a0,a5
     8fa:	0542                	slli	a0,a0,0x10
     8fc:	8541                	srai	a0,a0,0x10
     8fe:	8082                	ret
     900:	6521                	lui	a0,0x8
     902:	157d                	addi	a0,a0,-1
     904:	8082                	ret

00000906 <mp3d_synth_pair>:
     906:	8ebff2ef          	jal	t0,1f0 <__riscv_save_0>
     90a:	6405                	lui	s0,0x1
     90c:	9432                	add	s0,s0,a2
     90e:	6218                	flw	fa4,0(a2)
     910:	e0042787          	flw	fa5,-512(s0) # e00 <mp3dec_decode_frame+0x220>
     914:	d0042687          	flw	fa3,-768(s0)
     918:	000067b7          	lui	a5,0x6
     91c:	08e7f7d3          	fsub.s	fa5,fa5,fa4
     920:	10062707          	flw	fa4,256(a2) # 40000100 <_eusrstack+0x1fff8100>
     924:	90042507          	flw	fa0,-1792(s0)
     928:	1141                	addi	sp,sp,-16
     92a:	00d77753          	fadd.s	fa4,fa4,fa3
     92e:	87c7a687          	flw	fa3,-1924(a5) # 587c <halfrate.6375+0x194>
     932:	000067b7          	lui	a5,0x6
     936:	84aa                	mv	s1,a0
     938:	c62e                	sw	a1,12(sp)
     93a:	10d77753          	fmul.s	fa4,fa4,fa3
     93e:	8807a687          	flw	fa3,-1920(a5) # 5880 <halfrate.6375+0x198>
     942:	000067b7          	lui	a5,0x6
     946:	c432                	sw	a2,8(sp)
     948:	70d7f7c3          	fmadd.s	fa5,fa5,fa3,fa4
     94c:	20062707          	flw	fa4,512(a2)
     950:	c0042687          	flw	fa3,-1024(s0)
     954:	08e6f6d3          	fsub.s	fa3,fa3,fa4
     958:	8847a707          	flw	fa4,-1916(a5) # 5884 <halfrate.6375+0x19c>
     95c:	000067b7          	lui	a5,0x6
     960:	78e6f7c3          	fmadd.s	fa5,fa3,fa4,fa5
     964:	30062687          	flw	fa3,768(a2)
     968:	b0042707          	flw	fa4,-1280(s0)
     96c:	00e6f6d3          	fadd.s	fa3,fa3,fa4
     970:	8887a707          	flw	fa4,-1912(a5) # 5888 <halfrate.6375+0x1a0>
     974:	000067b7          	lui	a5,0x6
     978:	78e6f743          	fmadd.s	fa4,fa3,fa4,fa5
     97c:	40062787          	flw	fa5,1024(a2)
     980:	a0042687          	flw	fa3,-1536(s0)
     984:	08f6f6d3          	fsub.s	fa3,fa3,fa5
     988:	88c7a787          	flw	fa5,-1908(a5) # 588c <halfrate.6375+0x1a4>
     98c:	000067b7          	lui	a5,0x6
     990:	70f6f7c3          	fmadd.s	fa5,fa3,fa5,fa4
     994:	50062707          	flw	fa4,1280(a2)
     998:	00a77753          	fadd.s	fa4,fa4,fa0
     99c:	8907a507          	flw	fa0,-1904(a5) # 5890 <halfrate.6375+0x1a8>
     9a0:	000067b7          	lui	a5,0x6
     9a4:	78a77743          	fmadd.s	fa4,fa4,fa0,fa5
     9a8:	60062507          	flw	fa0,1536(a2)
     9ac:	80042787          	flw	fa5,-2048(s0)
     9b0:	08a7f7d3          	fsub.s	fa5,fa5,fa0
     9b4:	8947a507          	flw	fa0,-1900(a5) # 5894 <halfrate.6375+0x1ac>
     9b8:	000067b7          	lui	a5,0x6
     9bc:	70a7f7c3          	fmadd.s	fa5,fa5,fa0,fa4
     9c0:	70062507          	flw	fa0,1792(a2)
     9c4:	8987a707          	flw	fa4,-1896(a5) # 5898 <halfrate.6375+0x1b0>
     9c8:	78e57543          	fmadd.s	fa0,fa0,fa4,fa5
     9cc:	3ddd                	jal	8c2 <mp3d_scale_pcm>
     9ce:	000067b7          	lui	a5,0x6
     9d2:	c0842787          	flw	fa5,-1016(s0)
     9d6:	89c7a507          	flw	fa0,-1892(a5) # 589c <halfrate.6375+0x1b4>
     9da:	000067b7          	lui	a5,0x6
     9de:	8a07a707          	flw	fa4,-1888(a5) # 58a0 <halfrate.6375+0x1b8>
     9e2:	10a7f553          	fmul.s	fa0,fa5,fa0
     9e6:	e0842787          	flw	fa5,-504(s0)
     9ea:	000067b7          	lui	a5,0x6
     9ee:	a08a                	sh	a0,0(s1)
     9f0:	50e7f543          	fmadd.s	fa0,fa5,fa4,fa0
     9f4:	a0842787          	flw	fa5,-1528(s0)
     9f8:	8a47a707          	flw	fa4,-1884(a5) # 58a4 <halfrate.6375+0x1bc>
     9fc:	000067b7          	lui	a5,0x6
     a00:	50e7f543          	fmadd.s	fa0,fa5,fa4,fa0
     a04:	80842787          	flw	fa5,-2040(s0)
     a08:	8a87a707          	flw	fa4,-1880(a5) # 58a8 <halfrate.6375+0x1c0>
     a0c:	4622                	lw	a2,8(sp)
     a0e:	000067b7          	lui	a5,0x6
     a12:	50e7f7c3          	fmadd.s	fa5,fa5,fa4,fa0
     a16:	60862507          	flw	fa0,1544(a2)
     a1a:	8ac7a707          	flw	fa4,-1876(a5) # 58ac <halfrate.6375+0x1c4>
     a1e:	000067b7          	lui	a5,0x6
     a22:	45b2                	lw	a1,12(sp)
     a24:	78e577c3          	fmadd.s	fa5,fa0,fa4,fa5
     a28:	40862507          	flw	fa0,1032(a2)
     a2c:	8b07a707          	flw	fa4,-1872(a5) # 58b0 <halfrate.6375+0x1c8>
     a30:	000067b7          	lui	a5,0x6
     a34:	0596                	slli	a1,a1,0x5
     a36:	78e577c3          	fmadd.s	fa5,fa0,fa4,fa5
     a3a:	20862507          	flw	fa0,520(a2)
     a3e:	8b47a707          	flw	fa4,-1868(a5) # 58b4 <halfrate.6375+0x1cc>
     a42:	000067b7          	lui	a5,0x6
     a46:	94ae                	add	s1,s1,a1
     a48:	78e57543          	fmadd.s	fa0,fa0,fa4,fa5
     a4c:	6618                	flw	fa4,8(a2)
     a4e:	8b87a787          	flw	fa5,-1864(a5) # 58b8 <halfrate.6375+0x1d0>
     a52:	50f77543          	fmadd.s	fa0,fa4,fa5,fa0
     a56:	35b5                	jal	8c2 <mp3d_scale_pcm>
     a58:	a08a                	sh	a0,0(s1)
     a5a:	0141                	addi	sp,sp,16
     a5c:	fb8ff06f          	j	214 <__riscv_restore_0>

00000a60 <hdr_padding>:
     a60:	213c                	lbu	a5,2(a0)
     a62:	8b89                	andi	a5,a5,2
     a64:	cb89                	beqz	a5,a76 <hdr_padding+0x16>
     a66:	311c                	lbu	a5,1(a0)
     a68:	4719                	li	a4,6
     a6a:	4511                	li	a0,4
     a6c:	8b99                	andi	a5,a5,6
     a6e:	00e78563          	beq	a5,a4,a78 <hdr_padding+0x18>
     a72:	4505                	li	a0,1
     a74:	8082                	ret
     a76:	4501                	li	a0,0
     a78:	8082                	ret

00000a7a <L3_imdct12>:
     a7a:	791c                	flw	fa5,48(a0)
     a7c:	02452087          	flw	ft1,36(a0) # 8024 <_data_lma+0x153c>
     a80:	000057b7          	lui	a5,0x5
     a84:	00052107          	flw	ft2,0(a0)
     a88:	0017f5d3          	fadd.s	fa1,fa5,ft1
     a8c:	b007a607          	flw	fa2,-1280(a5) # 4b00 <_read+0x24>
     a90:	6d14                	flw	fa3,24(a0)
     a92:	00c52007          	flw	ft0,12(a0)
     a96:	1101                	addi	sp,sp,-32
     a98:	10c5f74f          	fnmadd.s	fa4,fa1,fa2,ft2
     a9c:	0825f5d3          	fsub.s	fa1,fa1,ft2
     aa0:	0006f553          	fadd.s	fa0,fa3,ft0
     aa4:	000057b7          	lui	a5,0x5
     aa8:	0806f6d3          	fsub.s	fa3,fa3,ft0
     aac:	0817f7d3          	fsub.s	fa5,fa5,ft1
     ab0:	e62e                	fsw	fa1,12(sp)
     ab2:	b187a587          	flw	fa1,-1256(a5) # 4b18 <_read+0x3c>
     ab6:	6715                	lui	a4,0x5
     ab8:	2c870693          	addi	a3,a4,712 # 52c8 <g_twid3.6703>
     abc:	70b57143          	fmadd.s	ft2,fa0,fa1,fa4
     ac0:	70b5754b          	fnmsub.s	fa0,fa0,fa1,fa4
     ac4:	7d58                	flw	fa4,60(a0)
     ac6:	2c870713          	addi	a4,a4,712
     aca:	01458513          	addi	a0,a1,20
     ace:	70c6f64b          	fnmsub.s	fa2,fa3,fa2,fa4
     ad2:	00d77753          	fadd.s	fa4,fa4,fa3
     ad6:	e82a                	fsw	fa0,16(sp)
     ad8:	e40a                	fsw	ft2,8(sp)
     ada:	4781                	li	a5,0
     adc:	60b7f543          	fmadd.s	fa0,fa5,fa1,fa2
     ae0:	60b7f7cb          	fnmsub.s	fa5,fa5,fa1,fa2
     ae4:	20e71753          	fneg.s	fa4,fa4
     ae8:	48b1                	li	a7,12
     aea:	ea2a                	fsw	fa0,20(sp)
     aec:	ee3e                	fsw	fa5,28(sp)
     aee:	ec3a                	fsw	fa4,24(sp)
     af0:	00810313          	addi	t1,sp,8
     af4:	933e                	add	t1,t1,a5
     af6:	00032607          	flw	fa2,0(t1)
     afa:	01410313          	addi	t1,sp,20
     afe:	933e                	add	t1,t1,a5
     b00:	629c                	flw	fa5,0(a3)
     b02:	00032007          	flw	ft0,0(t1)
     b06:	66cc                	flw	fa1,12(a3)
     b08:	00f60833          	add	a6,a2,a5
     b0c:	10f076d3          	fmul.s	fa3,ft0,fa5
     b10:	00082507          	flw	fa0,0(a6)
     b14:	0691                	addi	a3,a3,4
     b16:	1771                	addi	a4,a4,-4
     b18:	1571                	addi	a0,a0,-4
     b1a:	68b676c3          	fmadd.s	fa3,fa2,fa1,fa3
     b1e:	1005f5d3          	fmul.s	fa1,fa1,ft0
     b22:	58f67647          	fmsub.s	fa2,fa2,fa5,fa1
     b26:	00c82027          	fsw	fa2,0(a6)
     b2a:	6f1c                	flw	fa5,24(a4)
     b2c:	6758                	flw	fa4,12(a4)
     b2e:	00f58833          	add	a6,a1,a5
     b32:	10d7f653          	fmul.s	fa2,fa5,fa3
     b36:	0791                	addi	a5,a5,4
     b38:	60a77647          	fmsub.s	fa2,fa4,fa0,fa2
     b3c:	10d77753          	fmul.s	fa4,fa4,fa3
     b40:	00c82027          	fsw	fa2,0(a6)
     b44:	70a7f7c3          	fmadd.s	fa5,fa5,fa0,fa4
     b48:	e15c                	fsw	fa5,4(a0)
     b4a:	fb1793e3          	bne	a5,a7,af0 <L3_imdct12+0x76>
     b4e:	6105                	addi	sp,sp,32
     b50:	8082                	ret

00000b52 <hdr_frame_bytes>:
     b52:	e9eff2ef          	jal	t0,1f0 <__riscv_save_0>
     b56:	1141                	addi	sp,sp,-16
     b58:	842a                	mv	s0,a0
     b5a:	c62e                	sw	a1,12(sp)
     b5c:	34c1                	jal	61c <hdr_frame_samples>
     b5e:	3014                	lbu	a3,1(s0)
     b60:	433d                	li	t1,15
     b62:	00244803          	lbu	a6,2(s0)
     b66:	0016d793          	srli	a5,a3,0x1
     b6a:	8b8d                	andi	a5,a5,3
     b6c:	0086f613          	andi	a2,a3,8
     b70:	17fd                	addi	a5,a5,-1
     b72:	00c03733          	snez	a4,a2
     b76:	026787b3          	mul	a5,a5,t1
     b7a:	02d00313          	li	t1,45
     b7e:	00485893          	srli	a7,a6,0x4
     b82:	00c87813          	andi	a6,a6,12
     b86:	00163613          	seqz	a2,a2
     b8a:	45b2                	lw	a1,12(sp)
     b8c:	02670733          	mul	a4,a4,t1
     b90:	97ba                	add	a5,a5,a4
     b92:	6715                	lui	a4,0x5
     b94:	6e870713          	addi	a4,a4,1768 # 56e8 <halfrate.6375>
     b98:	97ba                	add	a5,a5,a4
     b9a:	97c6                	add	a5,a5,a7
     b9c:	239c                	lbu	a5,0(a5)
     b9e:	6715                	lui	a4,0x5
     ba0:	b7070713          	addi	a4,a4,-1168 # 4b70 <g_hz.6379>
     ba4:	0786                	slli	a5,a5,0x1
     ba6:	02a78533          	mul	a0,a5,a0
     baa:	07d00793          	li	a5,125
     bae:	9742                	add	a4,a4,a6
     bb0:	02f50533          	mul	a0,a0,a5
     bb4:	431c                	lw	a5,0(a4)
     bb6:	0046d713          	srli	a4,a3,0x4
     bba:	00174713          	xori	a4,a4,1
     bbe:	00c7d7b3          	srl	a5,a5,a2
     bc2:	8b05                	andi	a4,a4,1
     bc4:	00e7d7b3          	srl	a5,a5,a4
     bc8:	8a99                	andi	a3,a3,6
     bca:	02f55533          	divu	a0,a0,a5
     bce:	4799                	li	a5,6
     bd0:	00f69363          	bne	a3,a5,bd6 <hdr_frame_bytes+0x84>
     bd4:	9971                	andi	a0,a0,-4
     bd6:	e111                	bnez	a0,bda <hdr_frame_bytes+0x88>
     bd8:	852e                	mv	a0,a1
     bda:	0141                	addi	sp,sp,16
     bdc:	e38ff06f          	j	214 <__riscv_restore_0>

00000be0 <mp3dec_decode_frame>:
     be0:	de0ff2ef          	jal	t0,1c0 <__riscv_save_12>
     be4:	7371                	lui	t1,0xffffc
     be6:	7115                	addi	sp,sp,-224
     be8:	04030313          	addi	t1,t1,64 # ffffc040 <_eusrstack+0xdfff4040>
     bec:	efa2                	fsw	fs0,220(sp)
     bee:	eda6                	fsw	fs1,216(sp)
     bf0:	ebca                	fsw	fs2,212(sp)
     bf2:	e9ce                	fsw	fs3,208(sp)
     bf4:	e7d2                	fsw	fs4,204(sp)
     bf6:	911a                	add	sp,sp,t1
     bf8:	c22a                	sw	a0,4(sp)
     bfa:	d236                	sw	a3,36(sp)
     bfc:	c63a                	sw	a4,12(sp)
     bfe:	4791                	li	a5,4
     c00:	89ae                	mv	s3,a1
     c02:	8932                	mv	s2,a2
     c04:	04c7d863          	bge	a5,a2,c54 <mp3dec_decode_frame+0x74>
     c08:	4792                	lw	a5,4(sp)
     c0a:	6509                	lui	a0,0x2
     c0c:	00a78433          	add	s0,a5,a0
     c10:	80844703          	lbu	a4,-2040(s0)
     c14:	0ff00793          	li	a5,255
     c18:	02f71e63          	bne	a4,a5,c54 <mp3dec_decode_frame+0x74>
     c1c:	4792                	lw	a5,4(sp)
     c1e:	80850513          	addi	a0,a0,-2040 # 1808 <__stack_size+0x80c>
     c22:	953e                	add	a0,a0,a5
     c24:	3a4d                	jal	5d6 <hdr_compare>
     c26:	c51d                	beqz	a0,c54 <mp3dec_decode_frame+0x74>
     c28:	80442583          	lw	a1,-2044(s0)
     c2c:	854e                	mv	a0,s3
     c2e:	3715                	jal	b52 <hdr_frame_bytes>
     c30:	8caa                	mv	s9,a0
     c32:	854e                	mv	a0,s3
     c34:	3535                	jal	a60 <hdr_padding>
     c36:	9caa                	add	s9,s9,a0
     c38:	1d2c8763          	beq	s9,s2,e06 <mp3dec_decode_frame+0x226>
     c3c:	003c8793          	addi	a5,s9,3
     c40:	0127da63          	bge	a5,s2,c54 <mp3dec_decode_frame+0x74>
     c44:	019985b3          	add	a1,s3,s9
     c48:	854e                	mv	a0,s3
     c4a:	3271                	jal	5d6 <hdr_compare>
     c4c:	c501                	beqz	a0,c54 <mp3dec_decode_frame+0x74>
     c4e:	4d01                	li	s10,0
     c50:	0c0c9c63          	bnez	s9,d28 <mp3dec_decode_frame+0x148>
     c54:	4512                	lw	a0,4(sp)
     c56:	6a09                	lui	s4,0x2
     c58:	a0ca0613          	addi	a2,s4,-1524 # 1a0c <__stack_size+0xa10>
     c5c:	4581                	li	a1,0
     c5e:	dc2ff0ef          	jal	ra,220 <memset>
     c62:	4792                	lw	a5,4(sp)
     c64:	6a85                	lui	s5,0x1
     c66:	4d01                	li	s10,0
     c68:	ffc90b13          	addi	s6,s2,-4
     c6c:	9a3e                	add	s4,s4,a5
     c6e:	900a8a93          	addi	s5,s5,-1792 # 900 <mp3d_scale_pcm+0x3e>
     c72:	01a984b3          	add	s1,s3,s10
     c76:	016d4863          	blt	s10,s6,c86 <mp3dec_decode_frame+0xa6>
     c7a:	8cca                	mv	s9,s2
     c7c:	47b2                	lw	a5,12(sp)
     c7e:	0197a023          	sw	s9,0(a5)
     c82:	4501                	li	a0,0
     c84:	a2bd                	j	df2 <mp3dec_decode_frame+0x212>
     c86:	8526                	mv	a0,s1
     c88:	3201                	jal	588 <hdr_valid>
     c8a:	c91d                	beqz	a0,cc0 <mp3dec_decode_frame+0xe0>
     c8c:	804a2583          	lw	a1,-2044(s4)
     c90:	8526                	mv	a0,s1
     c92:	4d91                	li	s11,4
     c94:	3d7d                	jal	b52 <hdr_frame_bytes>
     c96:	842a                	mv	s0,a0
     c98:	8526                	mv	a0,s1
     c9a:	33d9                	jal	a60 <hdr_padding>
     c9c:	00a40cb3          	add	s9,s0,a0
     ca0:	c019                	beqz	s0,ca6 <mp3dec_decode_frame+0xc6>
     ca2:	2890106f          	j	272a <__stack_size+0x172e>
     ca6:	015d8763          	beq	s11,s5,cb4 <mp3dec_decode_frame+0xd4>
     caa:	001d9793          	slli	a5,s11,0x1
     cae:	97ea                	add	a5,a5,s10
     cb0:	0167ca63          	blt	a5,s6,cc4 <mp3dec_decode_frame+0xe4>
     cb4:	000d1463          	bnez	s10,cbc <mp3dec_decode_frame+0xdc>
     cb8:	07990663          	beq	s2,s9,d24 <mp3dec_decode_frame+0x144>
     cbc:	800a2223          	sw	zero,-2044(s4)
     cc0:	0d05                	addi	s10,s10,1
     cc2:	bf45                	j	c72 <mp3dec_decode_frame+0x92>
     cc4:	01b48c33          	add	s8,s1,s11
     cc8:	85e2                	mv	a1,s8
     cca:	8526                	mv	a0,s1
     ccc:	3229                	jal	5d6 <hdr_compare>
     cce:	c915                	beqz	a0,d02 <mp3dec_decode_frame+0x122>
     cd0:	8526                	mv	a0,s1
     cd2:	3379                	jal	a60 <hdr_padding>
     cd4:	40ad8433          	sub	s0,s11,a0
     cd8:	8562                	mv	a0,s8
     cda:	3359                	jal	a60 <hdr_padding>
     cdc:	00a405b3          	add	a1,s0,a0
     ce0:	01bd07b3          	add	a5,s10,s11
     ce4:	97ae                	add	a5,a5,a1
     ce6:	078d                	addi	a5,a5,3
     ce8:	4501                	li	a0,0
     cea:	0127dc63          	bge	a5,s2,d02 <mp3dec_decode_frame+0x122>
     cee:	95ee                	add	a1,a1,s11
     cf0:	95a6                	add	a1,a1,s1
     cf2:	8526                	mv	a0,s1
     cf4:	8e3ff0ef          	jal	ra,5d6 <hdr_compare>
     cf8:	c509                	beqz	a0,d02 <mp3dec_decode_frame+0x122>
     cfa:	808a2223          	sw	s0,-2044(s4)
     cfe:	8cee                	mv	s9,s11
     d00:	8522                	mv	a0,s0
     d02:	0d85                	addi	s11,s11,1
     d04:	842a                	mv	s0,a0
     d06:	bf69                	j	ca0 <mp3dec_decode_frame+0xc0>
     d08:	01b485b3          	add	a1,s1,s11
     d0c:	8526                	mv	a0,s1
     d0e:	8c9ff0ef          	jal	ra,5d6 <hdr_compare>
     d12:	d14d                	beqz	a0,cb4 <mp3dec_decode_frame+0xd4>
     d14:	0b85                	addi	s7,s7,1
     d16:	47a9                	li	a5,10
     d18:	00fb8463          	beq	s7,a5,d20 <mp3dec_decode_frame+0x140>
     d1c:	2230106f          	j	273e <__stack_size+0x1742>
     d20:	2510106f          	j	2770 <__stack_size+0x1774>
     d24:	f40c8ce3          	beqz	s9,c7c <mp3dec_decode_frame+0x9c>
     d28:	4712                	lw	a4,4(sp)
     d2a:	01a987b3          	add	a5,s3,s10
     d2e:	c43e                	sw	a5,8(sp)
     d30:	6789                	lui	a5,0x2
     d32:	80878793          	addi	a5,a5,-2040 # 1808 <__stack_size+0x80c>
     d36:	45a2                	lw	a1,8(sp)
     d38:	97ba                	add	a5,a5,a4
     d3a:	853e                	mv	a0,a5
     d3c:	4611                	li	a2,4
     d3e:	d83e                	sw	a5,48(sp)
     d40:	2b1020ef          	jal	ra,37f0 <memcpy>
     d44:	4732                	lw	a4,12(sp)
     d46:	019d07b3          	add	a5,s10,s9
     d4a:	0c000693          	li	a3,192
     d4e:	c31c                	sw	a5,0(a4)
     d50:	47a2                	lw	a5,8(sp)
     d52:	01a72223          	sw	s10,4(a4)
     d56:	4705                	li	a4,1
     d58:	33bc                	lbu	a5,3(a5)
     d5a:	0c07f793          	andi	a5,a5,192
     d5e:	00d78363          	beq	a5,a3,d64 <mp3dec_decode_frame+0x184>
     d62:	4709                	li	a4,2
     d64:	47b2                	lw	a5,12(sp)
     d66:	c798                	sw	a4,8(a5)
     d68:	4722                	lw	a4,8(sp)
     d6a:	47a2                	lw	a5,8(sp)
     d6c:	2330                	lbu	a2,2(a4)
     d6e:	339c                	lbu	a5,1(a5)
     d70:	00c67713          	andi	a4,a2,12
     d74:	6615                	lui	a2,0x5
     d76:	b7060613          	addi	a2,a2,-1168 # 4b70 <g_hz.6379>
     d7a:	963a                	add	a2,a2,a4
     d7c:	0037d713          	srli	a4,a5,0x3
     d80:	00174713          	xori	a4,a4,1
     d84:	00177693          	andi	a3,a4,1
     d88:	4218                	lw	a4,0(a2)
     d8a:	8391                	srli	a5,a5,0x4
     d8c:	0017c793          	xori	a5,a5,1
     d90:	00d75733          	srl	a4,a4,a3
     d94:	8b85                	andi	a5,a5,1
     d96:	00f757b3          	srl	a5,a4,a5
     d9a:	4732                	lw	a4,12(sp)
     d9c:	463d                	li	a2,15
     d9e:	46a2                	lw	a3,8(sp)
     da0:	c75c                	sw	a5,12(a4)
     da2:	47a2                	lw	a5,8(sp)
     da4:	4711                	li	a4,4
     da6:	339c                	lbu	a5,1(a5)
     da8:	8385                	srli	a5,a5,0x1
     daa:	8b8d                	andi	a5,a5,3
     dac:	40f707b3          	sub	a5,a4,a5
     db0:	4732                	lw	a4,12(sp)
     db2:	cb1c                	sw	a5,16(a4)
     db4:	47a2                	lw	a5,8(sp)
     db6:	22b4                	lbu	a3,2(a3)
     db8:	3398                	lbu	a4,1(a5)
     dba:	8291                	srli	a3,a3,0x4
     dbc:	00175793          	srli	a5,a4,0x1
     dc0:	8b8d                	andi	a5,a5,3
     dc2:	17fd                	addi	a5,a5,-1
     dc4:	830d                	srli	a4,a4,0x3
     dc6:	02c787b3          	mul	a5,a5,a2
     dca:	8b05                	andi	a4,a4,1
     dcc:	02d00613          	li	a2,45
     dd0:	02c70733          	mul	a4,a4,a2
     dd4:	97ba                	add	a5,a5,a4
     dd6:	6715                	lui	a4,0x5
     dd8:	6e870713          	addi	a4,a4,1768 # 56e8 <halfrate.6375>
     ddc:	97ba                	add	a5,a5,a4
     dde:	97b6                	add	a5,a5,a3
     de0:	239c                	lbu	a5,0(a5)
     de2:	4732                	lw	a4,12(sp)
     de4:	0786                	slli	a5,a5,0x1
     de6:	cb5c                	sw	a5,20(a4)
     de8:	5792                	lw	a5,36(sp)
     dea:	e385                	bnez	a5,e0a <mp3dec_decode_frame+0x22a>
     dec:	4522                	lw	a0,8(sp)
     dee:	82fff0ef          	jal	ra,61c <hdr_frame_samples>
     df2:	6311                	lui	t1,0x4
     df4:	911a                	add	sp,sp,t1
     df6:	647a                	flw	fs0,156(sp)
     df8:	64ea                	flw	fs1,152(sp)
     dfa:	695a                	flw	fs2,148(sp)
     dfc:	69ca                	flw	fs3,144(sp)
     dfe:	6a3a                	flw	fs4,140(sp)
     e00:	610d                	addi	sp,sp,160
     e02:	bfaff06f          	j	1fc <__riscv_restore_12>
     e06:	4d01                	li	s10,0
     e08:	b705                	j	d28 <mp3dec_decode_frame+0x148>
     e0a:	47a2                	lw	a5,8(sp)
     e0c:	1cf1                	addi	s9,s9,-4
     e0e:	0c8e                	slli	s9,s9,0x3
     e10:	0791                	addi	a5,a5,4
     e12:	dcbe                	sw	a5,120(sp)
     e14:	47a2                	lw	a5,8(sp)
     e16:	de82                	sw	zero,124(sp)
     e18:	c166                	sw	s9,128(sp)
     e1a:	339c                	lbu	a5,1(a5)
     e1c:	7571                	lui	a0,0xffffc
     e1e:	8b85                	andi	a5,a5,1
     e20:	eb91                	bnez	a5,e34 <mp3dec_decode_frame+0x254>
     e22:	6791                	lui	a5,0x4
     e24:	07c1                	addi	a5,a5,16
     e26:	1898                	addi	a4,sp,112
     e28:	1561                	addi	a0,a0,-8
     e2a:	97ba                	add	a5,a5,a4
     e2c:	45c1                	li	a1,16
     e2e:	953e                	add	a0,a0,a5
     e30:	f04ff0ef          	jal	ra,534 <get_bits>
     e34:	47b2                	lw	a5,12(sp)
     e36:	4501                	li	a0,0
     e38:	4b9c                	lw	a5,16(a5)
     e3a:	ca3e                	sw	a5,20(sp)
     e3c:	4752                	lw	a4,20(sp)
     e3e:	478d                	li	a5,3
     e40:	faf719e3          	bne	a4,a5,df2 <mp3dec_decode_frame+0x212>
     e44:	47a2                	lw	a5,8(sp)
     e46:	0c000693          	li	a3,192
     e4a:	4485                	li	s1,1
     e4c:	339c                	lbu	a5,1(a5)
     e4e:	0037d413          	srli	s0,a5,0x3
     e52:	0047d713          	srli	a4,a5,0x4
     e56:	8b05                	andi	a4,a4,1
     e58:	8805                	andi	s0,s0,1
     e5a:	943a                	add	s0,s0,a4
     e5c:	4752                	lw	a4,20(sp)
     e5e:	02e40433          	mul	s0,s0,a4
     e62:	4722                	lw	a4,8(sp)
     e64:	2338                	lbu	a4,2(a4)
     e66:	8309                	srli	a4,a4,0x2
     e68:	8b0d                	andi	a4,a4,3
     e6a:	943a                	add	s0,s0,a4
     e6c:	00803733          	snez	a4,s0
     e70:	8c19                	sub	s0,s0,a4
     e72:	4722                	lw	a4,8(sp)
     e74:	3338                	lbu	a4,3(a4)
     e76:	0c077713          	andi	a4,a4,192
     e7a:	00d70363          	beq	a4,a3,e80 <mp3dec_decode_frame+0x2a0>
     e7e:	4489                	li	s1,2
     e80:	7571                	lui	a0,0xffffc
     e82:	8ba1                	andi	a5,a5,8
     e84:	1561                	addi	a0,a0,-8
     e86:	c7f9                	beqz	a5,f54 <mp3dec_decode_frame+0x374>
     e88:	6791                	lui	a5,0x4
     e8a:	1898                	addi	a4,sp,112
     e8c:	07c1                	addi	a5,a5,16
     e8e:	97ba                	add	a5,a5,a4
     e90:	00a789b3          	add	s3,a5,a0
     e94:	45a5                	li	a1,9
     e96:	854e                	mv	a0,s3
     e98:	e9cff0ef          	jal	ra,534 <get_bits>
     e9c:	0486                	slli	s1,s1,0x1
     e9e:	892a                	mv	s2,a0
     ea0:	00748593          	addi	a1,s1,7
     ea4:	854e                	mv	a0,s3
     ea6:	e8eff0ef          	jal	ra,534 <get_bits>
     eaa:	89aa                	mv	s3,a0
     eac:	47dd                	li	a5,23
     eae:	02f407b3          	mul	a5,s0,a5
     eb2:	6715                	lui	a4,0x5
     eb4:	ecc70713          	addi	a4,a4,-308 # 4ecc <g_scf_long.6396>
     eb8:	6691                	lui	a3,0x4
     eba:	1890                	addi	a2,sp,112
     ebc:	6b85                	lui	s7,0x1
     ebe:	6b15                	lui	s6,0x5
     ec0:	f84b0b13          	addi	s6,s6,-124 # 4f84 <g_scf_mixed.6398>
     ec4:	7af1                	lui	s5,0xffffc
     ec6:	6c41                	lui	s8,0x10
     ec8:	97ba                	add	a5,a5,a4
     eca:	c83e                	sw	a5,16(sp)
     ecc:	02800793          	li	a5,40
     ed0:	02f40433          	mul	s0,s0,a5
     ed4:	6795                	lui	a5,0x5
     ed6:	11878793          	addi	a5,a5,280 # 5118 <g_scf_short.6397>
     eda:	01068713          	addi	a4,a3,16 # 4010 <__smakebuf_r+0x44>
     ede:	9732                	add	a4,a4,a2
     ee0:	4a01                	li	s4,0
     ee2:	1c7d                	addi	s8,s8,-1
     ee4:	4dd9                	li	s11,22
     ee6:	97a2                	add	a5,a5,s0
     ee8:	cc3e                	sw	a5,24(sp)
     eea:	77f1                	lui	a5,0xffffc
     eec:	09478793          	addi	a5,a5,148 # ffffc094 <_eusrstack+0xdfff4094>
     ef0:	97ba                	add	a5,a5,a4
     ef2:	b0cb8713          	addi	a4,s7,-1268 # b0c <L3_imdct12+0x92>
     ef6:	00e78cb3          	add	s9,a5,a4
     efa:	01068793          	addi	a5,a3,16
     efe:	9b22                	add	s6,s6,s0
     f00:	97b2                	add	a5,a5,a2
     f02:	ff8a8413          	addi	s0,s5,-8 # ffffbff8 <_eusrstack+0xdfff3ff8>
     f06:	943e                	add	s0,s0,a5
     f08:	f0fb8b93          	addi	s7,s7,-241
     f0c:	47a2                	lw	a5,8(sp)
     f0e:	33b8                	lbu	a4,3(a5)
     f10:	0c000793          	li	a5,192
     f14:	0c077713          	andi	a4,a4,192
     f18:	00f71363          	bne	a4,a5,f1e <mp3dec_decode_frame+0x33e>
     f1c:	0992                	slli	s3,s3,0x4
     f1e:	45b1                	li	a1,12
     f20:	8522                	mv	a0,s0
     f22:	e12ff0ef          	jal	ra,534 <get_bits>
     f26:	00ac9223          	sh	a0,4(s9)
     f2a:	01857533          	and	a0,a0,s8
     f2e:	9a2a                	add	s4,s4,a0
     f30:	45a5                	li	a1,9
     f32:	8522                	mv	a0,s0
     f34:	e00ff0ef          	jal	ra,534 <get_bits>
     f38:	0542                	slli	a0,a0,0x10
     f3a:	8141                	srli	a0,a0,0x10
     f3c:	00ac9323          	sh	a0,6(s9)
     f40:	12000793          	li	a5,288
     f44:	02a7f563          	bgeu	a5,a0,f6e <mp3dec_decode_frame+0x38e>
     f48:	4712                	lw	a4,4(sp)
     f4a:	6789                	lui	a5,0x2
     f4c:	97ba                	add	a5,a5,a4
     f4e:	80078423          	sb	zero,-2040(a5) # 1808 <__stack_size+0x80c>
     f52:	bb05                	j	c82 <mp3dec_decode_frame+0xa2>
     f54:	6791                	lui	a5,0x4
     f56:	1898                	addi	a4,sp,112
     f58:	07c1                	addi	a5,a5,16
     f5a:	97ba                	add	a5,a5,a4
     f5c:	00848593          	addi	a1,s1,8
     f60:	953e                	add	a0,a0,a5
     f62:	dd2ff0ef          	jal	ra,534 <get_bits>
     f66:	00955933          	srl	s2,a0,s1
     f6a:	4981                	li	s3,0
     f6c:	b781                	j	eac <mp3dec_decode_frame+0x2cc>
     f6e:	45a1                	li	a1,8
     f70:	8522                	mv	a0,s0
     f72:	dc2ff0ef          	jal	ra,534 <get_bits>
     f76:	47a2                	lw	a5,8(sp)
     f78:	00ac8523          	sb	a0,10(s9)
     f7c:	4591                	li	a1,4
     f7e:	3398                	lbu	a4,1(a5)
     f80:	8b21                	andi	a4,a4,8
     f82:	e311                	bnez	a4,f86 <mp3dec_decode_frame+0x3a6>
     f84:	45a5                	li	a1,9
     f86:	8522                	mv	a0,s0
     f88:	dacff0ef          	jal	ra,534 <get_bits>
     f8c:	47c2                	lw	a5,16(sp)
     f8e:	00ac9423          	sh	a0,8(s9)
     f92:	01bc86a3          	sb	s11,13(s9)
     f96:	00fca023          	sw	a5,0(s9)
     f9a:	000c8723          	sb	zero,14(s9)
     f9e:	4585                	li	a1,1
     fa0:	8522                	mv	a0,s0
     fa2:	d92ff0ef          	jal	ra,534 <get_bits>
     fa6:	20050c63          	beqz	a0,11be <__stack_size+0x1c2>
     faa:	4589                	li	a1,2
     fac:	8522                	mv	a0,s0
     fae:	d86ff0ef          	jal	ra,534 <get_bits>
     fb2:	0ff57513          	andi	a0,a0,255
     fb6:	00ac85a3          	sb	a0,11(s9)
     fba:	d559                	beqz	a0,f48 <mp3dec_decode_frame+0x368>
     fbc:	4585                	li	a1,1
     fbe:	8522                	mv	a0,s0
     fc0:	d74ff0ef          	jal	ra,534 <get_bits>
     fc4:	471d                	li	a4,7
     fc6:	00bcc683          	lbu	a3,11(s9)
     fca:	0ff57513          	andi	a0,a0,255
     fce:	00ec8923          	sb	a4,18(s9)
     fd2:	577d                	li	a4,-1
     fd4:	00ec89a3          	sb	a4,19(s9)
     fd8:	00ac8623          	sb	a0,12(s9)
     fdc:	4709                	li	a4,2
     fde:	02e69263          	bne	a3,a4,1002 <__stack_size+0x6>
     fe2:	0179f9b3          	and	s3,s3,s7
     fe6:	1c051063          	bnez	a0,11a6 <__stack_size+0x1aa>
     fea:	47e2                	lw	a5,24(sp)
     fec:	4721                	li	a4,8
     fee:	00ec8923          	sb	a4,18(s9)
     ff2:	00fca023          	sw	a5,0(s9)
     ff6:	000c86a3          	sb	zero,13(s9)
     ffa:	02700713          	li	a4,39
     ffe:	00ec8723          	sb	a4,14(s9)
    1002:	45a9                	li	a1,10
    1004:	8522                	mv	a0,s0
    1006:	d2eff0ef          	jal	ra,534 <get_bits>
    100a:	458d                	li	a1,3
    100c:	00551d13          	slli	s10,a0,0x5
    1010:	8522                	mv	a0,s0
    1012:	d22ff0ef          	jal	ra,534 <get_bits>
    1016:	00ac8aa3          	sb	a0,21(s9)
    101a:	458d                	li	a1,3
    101c:	8522                	mv	a0,s0
    101e:	d16ff0ef          	jal	ra,534 <get_bits>
    1022:	00ac8b23          	sb	a0,22(s9)
    1026:	458d                	li	a1,3
    1028:	8522                	mv	a0,s0
    102a:	d0aff0ef          	jal	ra,534 <get_bits>
    102e:	00ac8ba3          	sb	a0,23(s9)
    1032:	47a2                	lw	a5,8(sp)
    1034:	01fd7713          	andi	a4,s10,31
    1038:	00ad5693          	srli	a3,s10,0xa
    103c:	00ec88a3          	sb	a4,17(s9)
    1040:	3398                	lbu	a4,1(a5)
    1042:	00dc87a3          	sb	a3,15(s9)
    1046:	005d5693          	srli	a3,s10,0x5
    104a:	8afd                	andi	a3,a3,31
    104c:	00dc8823          	sb	a3,16(s9)
    1050:	8b21                	andi	a4,a4,8
    1052:	18070f63          	beqz	a4,11f0 <__stack_size+0x1f4>
    1056:	4585                	li	a1,1
    1058:	8522                	mv	a0,s0
    105a:	cdaff0ef          	jal	ra,534 <get_bits>
    105e:	0ff57513          	andi	a0,a0,255
    1062:	00ac8c23          	sb	a0,24(s9)
    1066:	4585                	li	a1,1
    1068:	8522                	mv	a0,s0
    106a:	ccaff0ef          	jal	ra,534 <get_bits>
    106e:	00ac8ca3          	sb	a0,25(s9)
    1072:	4585                	li	a1,1
    1074:	8522                	mv	a0,s0
    1076:	cbeff0ef          	jal	ra,534 <get_bits>
    107a:	00c9d713          	srli	a4,s3,0xc
    107e:	8b3d                	andi	a4,a4,15
    1080:	00ac8d23          	sb	a0,26(s9)
    1084:	00ec8da3          	sb	a4,27(s9)
    1088:	14fd                	addi	s1,s1,-1
    108a:	0992                	slli	s3,s3,0x4
    108c:	0cf1                	addi	s9,s9,28
    108e:	e6049fe3          	bnez	s1,f0c <mp3dec_decode_frame+0x32c>
    1092:	6791                	lui	a5,0x4
    1094:	07c1                	addi	a5,a5,16
    1096:	1898                	addi	a4,sp,112
    1098:	97ba                	add	a5,a5,a4
    109a:	9abe                	add	s5,s5,a5
    109c:	ffcaab03          	lw	s6,-4(s5)
    10a0:	000aa403          	lw	s0,0(s5)
    10a4:	00391793          	slli	a5,s2,0x3
    10a8:	9a5a                	add	s4,s4,s6
    10aa:	97a2                	add	a5,a5,s0
    10ac:	e947cee3          	blt	a5,s4,f48 <mp3dec_decode_frame+0x368>
    10b0:	e8094ce3          	bltz	s2,f48 <mp3dec_decode_frame+0x368>
    10b4:	e9644ae3          	blt	s0,s6,f48 <mp3dec_decode_frame+0x368>
    10b8:	4712                	lw	a4,4(sp)
    10ba:	6789                	lui	a5,0x2
    10bc:	41640433          	sub	s0,s0,s6
    10c0:	97ba                	add	a5,a5,a4
    10c2:	8007aa03          	lw	s4,-2048(a5) # 1800 <__stack_size+0x804>
    10c6:	840d                	srai	s0,s0,0x3
    10c8:	84ca                	mv	s1,s2
    10ca:	012a5363          	bge	s4,s2,10d0 <__stack_size+0xd4>
    10ce:	84d2                	mv	s1,s4
    10d0:	4712                	lw	a4,4(sp)
    10d2:	6789                	lui	a5,0x2
    10d4:	80c78793          	addi	a5,a5,-2036 # 180c <__stack_size+0x810>
    10d8:	97ba                	add	a5,a5,a4
    10da:	dc3e                	sw	a5,56(sp)
    10dc:	6791                	lui	a5,0x4
    10de:	07c1                	addi	a5,a5,16
    10e0:	1898                	addi	a4,sp,112
    10e2:	7571                	lui	a0,0xffffc
    10e4:	97ba                	add	a5,a5,a4
    10e6:	953e                	add	a0,a0,a5
    10e8:	412a05b3          	sub	a1,s4,s2
    10ec:	0a050513          	addi	a0,a0,160 # ffffc0a0 <_eusrstack+0xdfff40a0>
    10f0:	0005d363          	bgez	a1,10f6 <__stack_size+0xfa>
    10f4:	4581                	li	a1,0
    10f6:	57e2                	lw	a5,56(sp)
    10f8:	8626                	mv	a2,s1
    10fa:	95be                	add	a1,a1,a5
    10fc:	6f4020ef          	jal	ra,37f0 <memcpy>
    1100:	6691                	lui	a3,0x4
    1102:	1890                	addi	a2,sp,112
    1104:	01068713          	addi	a4,a3,16 # 4010 <__smakebuf_r+0x44>
    1108:	9732                	add	a4,a4,a2
    110a:	77f1                	lui	a5,0xffffc
    110c:	00f709b3          	add	s3,a4,a5
    1110:	01068713          	addi	a4,a3,16
    1114:	9732                	add	a4,a4,a2
    1116:	97ba                	add	a5,a5,a4
    1118:	c83e                	sw	a5,16(sp)
    111a:	47a1                	li	a5,8
    111c:	02fb47b3          	div	a5,s6,a5
    1120:	4742                	lw	a4,16(sp)
    1122:	0a098993          	addi	s3,s3,160
    1126:	8622                	mv	a2,s0
    1128:	ff872583          	lw	a1,-8(a4)
    112c:	00998533          	add	a0,s3,s1
    1130:	9426                	add	s0,s0,s1
    1132:	040e                	slli	s0,s0,0x3
    1134:	95be                	add	a1,a1,a5
    1136:	6ba020ef          	jal	ra,37f0 <memcpy>
    113a:	47c2                	lw	a5,16(sp)
    113c:	012a2533          	slt	a0,s4,s2
    1140:	0937aa23          	sw	s3,148(a5) # ffffc094 <_eusrstack+0xdfff4094>
    1144:	0807ac23          	sw	zero,152(a5)
    1148:	0887ae23          	sw	s0,156(a5)
    114c:	00154793          	xori	a5,a0,1
    1150:	c2be                	sw	a5,68(sp)
    1152:	012a4463          	blt	s4,s2,115a <__stack_size+0x15e>
    1156:	5a00106f          	j	26f6 <__stack_size+0x16fa>
    115a:	6711                	lui	a4,0x4
    115c:	0741                	addi	a4,a4,16
    115e:	1894                	addi	a3,sp,112
    1160:	9736                	add	a4,a4,a3
    1162:	77f1                	lui	a5,0xffffc
    1164:	97ba                	add	a5,a5,a4
    1166:	c43e                	sw	a5,8(sp)
    1168:	4722                	lw	a4,8(sp)
    116a:	0987a783          	lw	a5,152(a5) # ffffc098 <_eusrstack+0xdfff4098>
    116e:	09c72403          	lw	s0,156(a4) # 409c <_free_r+0x40>
    1172:	079d                	addi	a5,a5,7
    1174:	838d                	srli	a5,a5,0x3
    1176:	800d                	srli	s0,s0,0x3
    1178:	8c1d                	sub	s0,s0,a5
    117a:	1ff00713          	li	a4,511
    117e:	00875463          	bge	a4,s0,1186 <__stack_size+0x18a>
    1182:	5800106f          	j	2702 <__stack_size+0x1706>
    1186:	00805463          	blez	s0,118e <__stack_size+0x192>
    118a:	5820106f          	j	270c <__stack_size+0x1710>
    118e:	4712                	lw	a4,4(sp)
    1190:	6789                	lui	a5,0x2
    1192:	5542                	lw	a0,48(sp)
    1194:	97ba                	add	a5,a5,a4
    1196:	8087a023          	sw	s0,-2048(a5) # 1800 <__stack_size+0x804>
    119a:	c82ff0ef          	jal	ra,61c <hdr_frame_samples>
    119e:	4796                	lw	a5,68(sp)
    11a0:	02a78533          	mul	a0,a5,a0
    11a4:	b1b9                	j	df2 <mp3dec_decode_frame+0x212>
    11a6:	47a2                	lw	a5,8(sp)
    11a8:	016ca023          	sw	s6,0(s9)
    11ac:	46a1                	li	a3,8
    11ae:	3398                	lbu	a4,1(a5)
    11b0:	8b21                	andi	a4,a4,8
    11b2:	e311                	bnez	a4,11b6 <__stack_size+0x1ba>
    11b4:	4699                	li	a3,6
    11b6:	00dc86a3          	sb	a3,13(s9)
    11ba:	4779                	li	a4,30
    11bc:	b589                	j	ffe <__stack_size+0x2>
    11be:	45bd                	li	a1,15
    11c0:	000c85a3          	sb	zero,11(s9)
    11c4:	000c8623          	sb	zero,12(s9)
    11c8:	8522                	mv	a0,s0
    11ca:	b6aff0ef          	jal	ra,534 <get_bits>
    11ce:	4591                	li	a1,4
    11d0:	8d2a                	mv	s10,a0
    11d2:	8522                	mv	a0,s0
    11d4:	b60ff0ef          	jal	ra,534 <get_bits>
    11d8:	00ac8923          	sb	a0,18(s9)
    11dc:	458d                	li	a1,3
    11de:	8522                	mv	a0,s0
    11e0:	b54ff0ef          	jal	ra,534 <get_bits>
    11e4:	56fd                	li	a3,-1
    11e6:	00ac89a3          	sb	a0,19(s9)
    11ea:	00dc8a23          	sb	a3,20(s9)
    11ee:	b591                	j	1032 <__stack_size+0x36>
    11f0:	008cd503          	lhu	a0,8(s9)
    11f4:	1f453513          	sltiu	a0,a0,500
    11f8:	00154513          	xori	a0,a0,1
    11fc:	b59d                	j	1062 <__stack_size+0x66>
    11fe:	6711                	lui	a4,0x4
    1200:	1894                	addi	a3,sp,112
    1202:	0741                	addi	a4,a4,16
    1204:	9736                	add	a4,a4,a3
    1206:	77f1                	lui	a5,0xffffc
    1208:	97ba                	add	a5,a5,a4
    120a:	c83e                	sw	a5,16(sp)
    120c:	ff54d703          	lhu	a4,-11(s1)
    1210:	0987a783          	lw	a5,152(a5) # ffffc098 <_eusrstack+0xdfff4098>
    1214:	6b91                	lui	s7,0x4
    1216:	f1cb8b93          	addi	s7,s7,-228 # 3f1c <_fwalk_reent+0x12>
    121a:	97ba                	add	a5,a5,a4
    121c:	d43e                	sw	a5,40(sp)
    121e:	5782                	lw	a5,32(sp)
    1220:	fff4cc03          	lbu	s8,-1(s1)
    1224:	00a4cd03          	lbu	s10,10(s1)
    1228:	9bbe                	add	s7,s7,a5
    122a:	ffe4c783          	lbu	a5,-2(s1)
    122e:	01803c33          	snez	s8,s8
    1232:	6709                	lui	a4,0x2
    1234:	0017b793          	seqz	a5,a5
    1238:	9c3e                	add	s8,s8,a5
    123a:	47f1                	li	a5,28
    123c:	02fc07b3          	mul	a5,s8,a5
    1240:	6c15                	lui	s8,0x5
    1242:	0c4c0c13          	addi	s8,s8,196 # 50c4 <g_scf_partitions.6443>
    1246:	ff94d803          	lhu	a6,-7(s1)
    124a:	9c3e                	add	s8,s8,a5
    124c:	001d0793          	addi	a5,s10,1
    1250:	d63e                	sw	a5,44(sp)
    1252:	4792                	lw	a5,4(sp)
    1254:	973e                	add	a4,a4,a5
    1256:	80974683          	lbu	a3,-2039(a4) # 1809 <__stack_size+0x80d>
    125a:	8aa1                	andi	a3,a3,8
    125c:	2e068663          	beqz	a3,1548 <__stack_size+0x54c>
    1260:	6795                	lui	a5,0x5
    1262:	25878793          	addi	a5,a5,600 # 5258 <g_scfc_decode.6452>
    1266:	97c2                	add	a5,a5,a6
    1268:	239c                	lbu	a5,0(a5)
    126a:	4742                	lw	a4,16(sp)
    126c:	00c4ca83          	lbu	s5,12(s1)
    1270:	0027d693          	srli	a3,a5,0x2
    1274:	8b8d                	andi	a5,a5,3
    1276:	a354                	sb	a3,4(a4)
    1278:	b354                	sb	a3,5(a4)
    127a:	a37c                	sb	a5,6(a4)
    127c:	b37c                	sb	a5,7(a4)
    127e:	6711                	lui	a4,0x4
    1280:	7cf1                	lui	s9,0xffffc
    1282:	1890                	addi	a2,sp,112
    1284:	01070693          	addi	a3,a4,16 # 4010 <__smakebuf_r+0x44>
    1288:	014c8793          	addi	a5,s9,20 # ffffc014 <_eusrstack+0xdfff4014>
    128c:	96b2                	add	a3,a3,a2
    128e:	00f68d33          	add	s10,a3,a5
    1292:	87ba                	mv	a5,a4
    1294:	07c1                	addi	a5,a5,16
    1296:	004c8d93          	addi	s11,s9,4
    129a:	0741                	addi	a4,a4,16
    129c:	094c8c93          	addi	s9,s9,148
    12a0:	97b2                	add	a5,a5,a2
    12a2:	9732                	add	a4,a4,a2
    12a4:	97e6                	add	a5,a5,s9
    12a6:	4a01                	li	s4,0
    12a8:	9dba                	add	s11,s11,a4
    12aa:	c83e                	sw	a5,16(sp)
    12ac:	014c06b3          	add	a3,s8,s4
    12b0:	0006cc83          	lbu	s9,0(a3)
    12b4:	020c8263          	beqz	s9,12d8 <__stack_size+0x2dc>
    12b8:	008af313          	andi	t1,s5,8
    12bc:	2e030a63          	beqz	t1,15b0 <__stack_size+0x5b4>
    12c0:	8666                	mv	a2,s9
    12c2:	85de                	mv	a1,s7
    12c4:	856a                	mv	a0,s10
    12c6:	52a020ef          	jal	ra,37f0 <memcpy>
    12ca:	0a05                	addi	s4,s4,1
    12cc:	4691                	li	a3,4
    12ce:	9be6                	add	s7,s7,s9
    12d0:	9d66                	add	s10,s10,s9
    12d2:	0a86                	slli	s5,s5,0x1
    12d4:	fcda1ce3          	bne	s4,a3,12ac <__stack_size+0x2b0>
    12d8:	fff4cc03          	lbu	s8,-1(s1)
    12dc:	000d0123          	sb	zero,2(s10)
    12e0:	000d00a3          	sb	zero,1(s10)
    12e4:	000d0023          	sb	zero,0(s10)
    12e8:	ffe4cd83          	lbu	s11,-2(s1)
    12ec:	320c0363          	beqz	s8,1612 <__stack_size+0x616>
    12f0:	5732                	lw	a4,44(sp)
    12f2:	478d                	li	a5,3
    12f4:	20f0                	lbu	a2,6(s1)
    12f6:	8f99                	sub	a5,a5,a4
    12f8:	30f4                	lbu	a3,7(s1)
    12fa:	2498                	lbu	a4,8(s1)
    12fc:	00f61633          	sll	a2,a2,a5
    1300:	00f696b3          	sll	a3,a3,a5
    1304:	6591                	lui	a1,0x4
    1306:	00f717b3          	sll	a5,a4,a5
    130a:	0ff7f713          	andi	a4,a5,255
    130e:	05c1                	addi	a1,a1,16
    1310:	77f1                	lui	a5,0xffffc
    1312:	1888                	addi	a0,sp,112
    1314:	95aa                	add	a1,a1,a0
    1316:	07d1                	addi	a5,a5,20
    1318:	97ae                	add	a5,a5,a1
    131a:	0ff67613          	andi	a2,a2,255
    131e:	0ff6f693          	andi	a3,a3,255
    1322:	97ee                	add	a5,a5,s11
    1324:	4581                	li	a1,0
    1326:	2388                	lbu	a0,0(a5)
    1328:	058d                	addi	a1,a1,3
    132a:	078d                	addi	a5,a5,3
    132c:	9532                	add	a0,a0,a2
    132e:	fea78ea3          	sb	a0,-3(a5) # ffffbffd <_eusrstack+0xdfff3ffd>
    1332:	ffe7c503          	lbu	a0,-2(a5)
    1336:	9536                	add	a0,a0,a3
    1338:	fea78f23          	sb	a0,-2(a5)
    133c:	fff7c503          	lbu	a0,-1(a5)
    1340:	953a                	add	a0,a0,a4
    1342:	fea78fa3          	sb	a0,-1(a5)
    1346:	ff85c0e3          	blt	a1,s8,1326 <__stack_size+0x32a>
    134a:	4692                	lw	a3,4(sp)
    134c:	6709                	lui	a4,0x2
    134e:	ffb4c503          	lbu	a0,-5(s1)
    1352:	9736                	add	a4,a4,a3
    1354:	80b74703          	lbu	a4,-2037(a4) # 180b <__stack_size+0x80f>
    1358:	06000693          	li	a3,96
    135c:	f2a50793          	addi	a5,a0,-214
    1360:	0e077713          	andi	a4,a4,224
    1364:	4509                	li	a0,2
    1366:	2ed71063          	bne	a4,a3,1646 <__stack_size+0x64a>
    136a:	20948553          	fmv.s	fa0,fs1
    136e:	8d1d                	sub	a0,a0,a5
    1370:	02c50513          	addi	a0,a0,44
    1374:	accff0ef          	jal	ra,640 <L3_ldexp_q2>
    1378:	6691                	lui	a3,0x4
    137a:	77f1                	lui	a5,0xffffc
    137c:	1890                	addi	a2,sp,112
    137e:	01068713          	addi	a4,a3,16 # 4010 <__smakebuf_r+0x44>
    1382:	09478b93          	addi	s7,a5,148 # ffffc094 <_eusrstack+0xdfff4094>
    1386:	9732                	add	a4,a4,a2
    1388:	9bba                	add	s7,s7,a4
    138a:	6709                	lui	a4,0x2
    138c:	d7c70713          	addi	a4,a4,-644 # 1d7c <__stack_size+0xd80>
    1390:	9bba                	add	s7,s7,a4
    1392:	20a50953          	fmv.s	fs2,fa0
    1396:	01068713          	addi	a4,a3,16
    139a:	07d1                	addi	a5,a5,20
    139c:	9732                	add	a4,a4,a2
    139e:	9de2                	add	s11,s11,s8
    13a0:	4c81                	li	s9,0
    13a2:	00f70c33          	add	s8,a4,a5
    13a6:	2bbc9263          	bne	s9,s11,164a <__stack_size+0x64e>
    13aa:	11812803          	lw	a6,280(sp)
    13ae:	4721                	li	a4,8
    13b0:	11412783          	lw	a5,276(sp)
    13b4:	02e84733          	div	a4,a6,a4
    13b8:	76f1                	lui	a3,0xffffc
    13ba:	1888                	addi	a0,sp,112
    13bc:	09468693          	addi	a3,a3,148 # ffffc094 <_eusrstack+0xdfff4094>
    13c0:	6605                	lui	a2,0x1
    13c2:	ff74d303          	lhu	t1,-9(s1)
    13c6:	ff14a883          	lw	a7,-15(s1)
    13ca:	f0000753          	fmv.w.x	fa4,zero
    13ce:	00787813          	andi	a6,a6,7
    13d2:	b7c60613          	addi	a2,a2,-1156 # b7c <hdr_frame_bytes+0x2a>
    13d6:	965a                	add	a2,a2,s6
    13d8:	8c26                	mv	s8,s1
    13da:	973e                	add	a4,a4,a5
    13dc:	231c                	lbu	a5,0(a4)
    13de:	330c                	lbu	a1,1(a4)
    13e0:	0711                	addi	a4,a4,4
    13e2:	07a2                	slli	a5,a5,0x8
    13e4:	97ae                	add	a5,a5,a1
    13e6:	ffe74583          	lbu	a1,-2(a4)
    13ea:	07a2                	slli	a5,a5,0x8
    13ec:	97ae                	add	a5,a5,a1
    13ee:	fff74583          	lbu	a1,-1(a4)
    13f2:	07a2                	slli	a5,a5,0x8
    13f4:	97ae                	add	a5,a5,a1
    13f6:	6591                	lui	a1,0x4
    13f8:	05c1                	addi	a1,a1,16
    13fa:	95aa                	add	a1,a1,a0
    13fc:	96ae                	add	a3,a3,a1
    13fe:	6589                	lui	a1,0x2
    1400:	d7c58593          	addi	a1,a1,-644 # 1d7c <__stack_size+0xd80>
    1404:	96ae                	add	a3,a3,a1
    1406:	000065b7          	lui	a1,0x6
    140a:	8c05a607          	flw	fa2,-1856(a1) # 58c0 <halfrate.6375+0x1d8>
    140e:	000065b7          	lui	a1,0x6
    1412:	8cc5a587          	flw	fa1,-1844(a1) # 58cc <halfrate.6375+0x1e4>
    1416:	000065b7          	lui	a1,0x6
    141a:	8d05a507          	flw	fa0,-1840(a1) # 58d0 <halfrate.6375+0x1e8>
    141e:	20c60053          	fmv.s	ft0,fa2
    1422:	010797b3          	sll	a5,a5,a6
    1426:	1861                	addi	a6,a6,-8
    1428:	24604063          	bgtz	t1,1668 <__stack_size+0x66c>
    142c:	4585                	li	a1,1
    142e:	40658333          	sub	t1,a1,t1
    1432:	34ac                	lbu	a1,11(s1)
    1434:	50058c63          	beqz	a1,194c <__stack_size+0x950>
    1438:	6e19                	lui	t3,0x6
    143a:	914e0e13          	addi	t3,t3,-1772 # 5914 <tab33.6492>
    143e:	6511                	lui	a0,0x4
    1440:	07010e93          	addi	t4,sp,112
    1444:	0541                	addi	a0,a0,16
    1446:	9576                	add	a0,a0,t4
    1448:	75f1                	lui	a1,0xffffc
    144a:	95aa                	add	a1,a1,a0
    144c:	0945af03          	lw	t5,148(a1) # ffffc094 <_eusrstack+0xdfff4094>
    1450:	c82e                	sw	a1,16(sp)
    1452:	02000f93          	li	t6,32
    1456:	5ee1                	li	t4,-8
    1458:	01c7d593          	srli	a1,a5,0x1c
    145c:	95f2                	add	a1,a1,t3
    145e:	218c                	lbu	a1,0(a1)
    1460:	0085f513          	andi	a0,a1,8
    1464:	ed09                	bnez	a0,147e <__stack_size+0x482>
    1466:	0035f293          	andi	t0,a1,3
    146a:	00479513          	slli	a0,a5,0x4
    146e:	405f82b3          	sub	t0,t6,t0
    1472:	00555533          	srl	a0,a0,t0
    1476:	858d                	srai	a1,a1,0x3
    1478:	9572                	add	a0,a0,t3
    147a:	95aa                	add	a1,a1,a0
    147c:	218c                	lbu	a1,0(a1)
    147e:	0075f513          	andi	a0,a1,7
    1482:	982a                	add	a6,a6,a0
    1484:	00a797b3          	sll	a5,a5,a0
    1488:	41e70533          	sub	a0,a4,t5
    148c:	1575                	addi	a0,a0,-3
    148e:	52a2                	lw	t0,40(sp)
    1490:	050e                	slli	a0,a0,0x3
    1492:	9542                	add	a0,a0,a6
    1494:	4ca2c963          	blt	t0,a0,1966 <__stack_size+0x96a>
    1498:	137d                	addi	t1,t1,-1
    149a:	00031d63          	bnez	t1,14b4 <__stack_size+0x4b8>
    149e:	0008c303          	lbu	t1,0(a7)
    14a2:	00188513          	addi	a0,a7,1
    14a6:	00135313          	srli	t1,t1,0x1
    14aa:	4a030e63          	beqz	t1,1966 <__stack_size+0x96a>
    14ae:	6298                	flw	fa4,0(a3)
    14b0:	88aa                	mv	a7,a0
    14b2:	0691                	addi	a3,a3,4
    14b4:	0805f513          	andi	a0,a1,128
    14b8:	c911                	beqz	a0,14cc <__stack_size+0x4d0>
    14ba:	20e707d3          	fmv.s	fa5,fa4
    14be:	0007d463          	bgez	a5,14c6 <__stack_size+0x4ca>
    14c2:	20e717d3          	fneg.s	fa5,fa4
    14c6:	e21c                	fsw	fa5,0(a2)
    14c8:	0786                	slli	a5,a5,0x1
    14ca:	0805                	addi	a6,a6,1
    14cc:	0405f513          	andi	a0,a1,64
    14d0:	c911                	beqz	a0,14e4 <__stack_size+0x4e8>
    14d2:	20e707d3          	fmv.s	fa5,fa4
    14d6:	0007d463          	bgez	a5,14de <__stack_size+0x4e2>
    14da:	20e717d3          	fneg.s	fa5,fa4
    14de:	e25c                	fsw	fa5,4(a2)
    14e0:	0786                	slli	a5,a5,0x1
    14e2:	0805                	addi	a6,a6,1
    14e4:	137d                	addi	t1,t1,-1
    14e6:	00031d63          	bnez	t1,1500 <__stack_size+0x504>
    14ea:	0008c303          	lbu	t1,0(a7)
    14ee:	00188513          	addi	a0,a7,1
    14f2:	00135313          	srli	t1,t1,0x1
    14f6:	46030863          	beqz	t1,1966 <__stack_size+0x96a>
    14fa:	6298                	flw	fa4,0(a3)
    14fc:	88aa                	mv	a7,a0
    14fe:	0691                	addi	a3,a3,4
    1500:	0205f513          	andi	a0,a1,32
    1504:	c911                	beqz	a0,1518 <__stack_size+0x51c>
    1506:	20e707d3          	fmv.s	fa5,fa4
    150a:	0007d463          	bgez	a5,1512 <__stack_size+0x516>
    150e:	20e717d3          	fneg.s	fa5,fa4
    1512:	e61c                	fsw	fa5,8(a2)
    1514:	0786                	slli	a5,a5,0x1
    1516:	0805                	addi	a6,a6,1
    1518:	89c1                	andi	a1,a1,16
    151a:	c991                	beqz	a1,152e <__stack_size+0x532>
    151c:	20e707d3          	fmv.s	fa5,fa4
    1520:	0007d463          	bgez	a5,1528 <__stack_size+0x52c>
    1524:	20e717d3          	fneg.s	fa5,fa4
    1528:	e65c                	fsw	fa5,12(a2)
    152a:	0786                	slli	a5,a5,0x1
    152c:	0805                	addi	a6,a6,1
    152e:	853a                	mv	a0,a4
    1530:	85c2                	mv	a1,a6
    1532:	4205d163          	bgez	a1,1954 <__stack_size+0x958>
    1536:	00880593          	addi	a1,a6,8
    153a:	818d                	srli	a1,a1,0x3
    153c:	972e                	add	a4,a4,a1
    153e:	03d585b3          	mul	a1,a1,t4
    1542:	0641                	addi	a2,a2,16
    1544:	982e                	add	a6,a6,a1
    1546:	bf09                	j	1458 <__stack_size+0x45c>
    1548:	80b74703          	lbu	a4,-2037(a4)
    154c:	4781                	li	a5,0
    154e:	8b41                	andi	a4,a4,16
    1550:	c319                	beqz	a4,1556 <__stack_size+0x55a>
    1552:	013037b3          	snez	a5,s3
    1556:	4731                	li	a4,12
    1558:	40f85833          	sra	a6,a6,a5
    155c:	02e787b3          	mul	a5,a5,a4
    1560:	6711                	lui	a4,0x4
    1562:	76f1                	lui	a3,0xffffc
    1564:	0741                	addi	a4,a4,16
    1566:	1890                	addi	a2,sp,112
    1568:	6595                	lui	a1,0x5
    156a:	0691                	addi	a3,a3,4
    156c:	9732                	add	a4,a4,a2
    156e:	c2c58593          	addi	a1,a1,-980 # 4c2c <g_mod.6454>
    1572:	96ba                	add	a3,a3,a4
    1574:	5e7d                	li	t3,-1
    1576:	4752                	lw	a4,20(sp)
    1578:	4605                	li	a2,1
    157a:	00f58333          	add	t1,a1,a5
    157e:	00e30533          	add	a0,t1,a4
    1582:	00054883          	lbu	a7,0(a0) # 4000 <__smakebuf_r+0x34>
    1586:	02c84533          	div	a0,a6,a2
    158a:	00e68eb3          	add	t4,a3,a4
    158e:	177d                	addi	a4,a4,-1
    1590:	03156533          	rem	a0,a0,a7
    1594:	00ae8023          	sb	a0,0(t4)
    1598:	03160633          	mul	a2,a2,a7
    159c:	ffc711e3          	bne	a4,t3,157e <__stack_size+0x582>
    15a0:	40c80833          	sub	a6,a6,a2
    15a4:	0791                	addi	a5,a5,4
    15a6:	fc0858e3          	bgez	a6,1576 <__stack_size+0x57a>
    15aa:	9c3e                	add	s8,s8,a5
    15ac:	5ac1                	li	s5,-16
    15ae:	b9c1                	j	127e <__stack_size+0x282>
    15b0:	014d86b3          	add	a3,s11,s4
    15b4:	0006ce03          	lbu	t3,0(a3) # ffffc000 <_eusrstack+0xdfff4000>
    15b8:	000e1d63          	bnez	t3,15d2 <__stack_size+0x5d6>
    15bc:	8666                	mv	a2,s9
    15be:	4581                	li	a1,0
    15c0:	856a                	mv	a0,s10
    15c2:	c5ffe0ef          	jal	ra,220 <memset>
    15c6:	8666                	mv	a2,s9
    15c8:	4581                	li	a1,0
    15ca:	855e                	mv	a0,s7
    15cc:	c55fe0ef          	jal	ra,220 <memset>
    15d0:	b9ed                	j	12ca <__stack_size+0x2ce>
    15d2:	56fd                	li	a3,-1
    15d4:	000ad663          	bgez	s5,15e0 <__stack_size+0x5e4>
    15d8:	4685                	li	a3,1
    15da:	01c696b3          	sll	a3,a3,t3
    15de:	16fd                	addi	a3,a3,-1
    15e0:	4542                	lw	a0,16(sp)
    15e2:	85f2                	mv	a1,t3
    15e4:	c09a                	sw	t1,64(sp)
    15e6:	de36                	sw	a3,60(sp)
    15e8:	da72                	sw	t3,52(sp)
    15ea:	f4bfe0ef          	jal	ra,534 <get_bits>
    15ee:	56f2                	lw	a3,60(sp)
    15f0:	0ff00613          	li	a2,255
    15f4:	5e52                	lw	t3,52(sp)
    15f6:	4306                	lw	t1,64(sp)
    15f8:	00d50363          	beq	a0,a3,15fe <__stack_size+0x602>
    15fc:	862a                	mv	a2,a0
    15fe:	006b85b3          	add	a1,s7,t1
    1602:	a190                	sb	a2,0(a1)
    1604:	006d0633          	add	a2,s10,t1
    1608:	a208                	sb	a0,0(a2)
    160a:	0305                	addi	t1,t1,1
    160c:	fd934ae3          	blt	t1,s9,15e0 <__stack_size+0x5e4>
    1610:	b96d                	j	12ca <__stack_size+0x2ce>
    1612:	349c                	lbu	a5,9(s1)
    1614:	d2078be3          	beqz	a5,134a <__stack_size+0x34e>
    1618:	6711                	lui	a4,0x4
    161a:	77f1                	lui	a5,0xffffc
    161c:	0741                	addi	a4,a4,16
    161e:	1894                	addi	a3,sp,112
    1620:	9736                	add	a4,a4,a3
    1622:	07d1                	addi	a5,a5,20
    1624:	6615                	lui	a2,0x5
    1626:	97ba                	add	a5,a5,a4
    1628:	ec060613          	addi	a2,a2,-320 # 4ec0 <g_preamp.6469>
    162c:	4701                	li	a4,0
    162e:	45a9                	li	a1,10
    1630:	00e606b3          	add	a3,a2,a4
    1634:	37a8                	lbu	a0,11(a5)
    1636:	2294                	lbu	a3,0(a3)
    1638:	0705                	addi	a4,a4,1
    163a:	0785                	addi	a5,a5,1
    163c:	96aa                	add	a3,a3,a0
    163e:	a7b4                	sb	a3,10(a5)
    1640:	feb718e3          	bne	a4,a1,1630 <__stack_size+0x634>
    1644:	b319                	j	134a <__stack_size+0x34e>
    1646:	4501                	li	a0,0
    1648:	b30d                	j	136a <__stack_size+0x36e>
    164a:	019c07b3          	add	a5,s8,s9
    164e:	2388                	lbu	a0,0(a5)
    1650:	57b2                	lw	a5,44(sp)
    1652:	21290553          	fmv.s	fa0,fs2
    1656:	0c85                	addi	s9,s9,1
    1658:	00f51533          	sll	a0,a0,a5
    165c:	fe5fe0ef          	jal	ra,640 <L3_ldexp_q2>
    1660:	00aba027          	fsw	fa0,0(s7)
    1664:	0b91                	addi	s7,s7,4
    1666:	b381                	j	13a6 <__stack_size+0x3aa>
    1668:	000c4503          	lbu	a0,0(s8)
    166c:	6599                	lui	a1,0x6
    166e:	92458593          	addi	a1,a1,-1756 # 5924 <tabindex.6493>
    1672:	00151e13          	slli	t3,a0,0x1
    1676:	95f2                	add	a1,a1,t3
    1678:	00059f03          	lh	t5,0(a1)
    167c:	003c4283          	lbu	t0,3(s8)
    1680:	001f1e13          	slli	t3,t5,0x1
    1684:	6f19                	lui	t5,0x6
    1686:	964f0593          	addi	a1,t5,-1692 # 5964 <tabs.6490>
    168a:	00be0f33          	add	t5,t3,a1
    168e:	6595                	lui	a1,0x5
    1690:	b7c58593          	addi	a1,a1,-1156 # 4b7c <g_linbits.6494>
    1694:	95aa                	add	a1,a1,a0
    1696:	0005cc83          	lbu	s9,0(a1)
    169a:	0e0c8b63          	beqz	s9,1790 <__stack_size+0x794>
    169e:	02000d93          	li	s11,32
    16a2:	6395                	lui	t2,0x5
    16a4:	419d85b3          	sub	a1,s11,s9
    16a8:	c7c38393          	addi	t2,t2,-900 # 4c7c <g_pow43>
    16ac:	c82e                	sw	a1,16(sp)
    16ae:	0885                	addi	a7,a7,1
    16b0:	fff8c083          	lbu	ra,-1(a7)
    16b4:	0691                	addi	a3,a3,4
    16b6:	ffc6a707          	flw	fa4,-4(a3)
    16ba:	0010d093          	srli	ra,ra,0x1
    16be:	8586                	mv	a1,ra
    16c0:	00135363          	bge	t1,ra,16c6 <__stack_size+0x6ca>
    16c4:	859a                	mv	a1,t1
    16c6:	058e                	slli	a1,a1,0x3
    16c8:	95b2                	add	a1,a1,a2
    16ca:	01b7d513          	srli	a0,a5,0x1b
    16ce:	0506                	slli	a0,a0,0x1
    16d0:	957a                	add	a0,a0,t5
    16d2:	00051e83          	lh	t4,0(a0)
    16d6:	4e15                	li	t3,5
    16d8:	180ec363          	bltz	t4,185e <__stack_size+0x862>
    16dc:	408ed513          	srai	a0,t4,0x8
    16e0:	8fb2                	mv	t6,a2
    16e2:	0621                	addi	a2,a2,8
    16e4:	00a797b3          	sll	a5,a5,a0
    16e8:	982a                	add	a6,a6,a0
    16ea:	8ab2                	mv	s5,a2
    16ec:	00fefe13          	andi	t3,t4,15
    16f0:	463d                	li	a2,15
    16f2:	1ece1e63          	bne	t3,a2,18ee <__stack_size+0x8f2>
    16f6:	4642                	lw	a2,16(sp)
    16f8:	9866                	add	a6,a6,s9
    16fa:	8bba                	mv	s7,a4
    16fc:	00c7d633          	srl	a2,a5,a2
    1700:	00f60e13          	addi	t3,a2,15
    1704:	019797b3          	sll	a5,a5,s9
    1708:	8542                	mv	a0,a6
    170a:	16055c63          	bgez	a0,1882 <__stack_size+0x886>
    170e:	00880513          	addi	a0,a6,8
    1712:	810d                	srli	a0,a0,0x3
    1714:	5a61                	li	s4,-8
    1716:	972a                	add	a4,a4,a0
    1718:	03450533          	mul	a0,a0,s4
    171c:	982a                	add	a6,a6,a0
    171e:	08000513          	li	a0,128
    1722:	17c54963          	blt	a0,t3,1894 <__stack_size+0x898>
    1726:	067d                	addi	a2,a2,31
    1728:	060a                	slli	a2,a2,0x2
    172a:	961e                	add	a2,a2,t2
    172c:	621c                	flw	fa5,0(a2)
    172e:	10f777d3          	fmul.s	fa5,fa4,fa5
    1732:	208406d3          	fmv.s	fa3,fs0
    1736:	0007c463          	bltz	a5,173e <__stack_size+0x742>
    173a:	20c606d3          	fmv.s	fa3,fa2
    173e:	10d7f7d3          	fmul.s	fa5,fa5,fa3
    1742:	01c03e33          	snez	t3,t3
    1746:	00ffa027          	fsw	fa5,0(t6)
    174a:	0f91                	addi	t6,t6,4
    174c:	01c797b3          	sll	a5,a5,t3
    1750:	9872                	add	a6,a6,t3
    1752:	404ede93          	srai	t4,t4,0x4
    1756:	f95f9be3          	bne	t6,s5,16ec <__stack_size+0x6f0>
    175a:	867e                	mv	a2,t6
    175c:	8e3a                	mv	t3,a4
    175e:	8542                	mv	a0,a6
    1760:	1a055363          	bgez	a0,1906 <__stack_size+0x90a>
    1764:	00880513          	addi	a0,a6,8
    1768:	810d                	srli	a0,a0,0x3
    176a:	5e61                	li	t3,-8
    176c:	972a                	add	a4,a4,a0
    176e:	03c50533          	mul	a0,a0,t3
    1772:	982a                	add	a6,a6,a0
    1774:	f5f59be3          	bne	a1,t6,16ca <__stack_size+0x6ce>
    1778:	40130333          	sub	t1,t1,ra
    177c:	00605763          	blez	t1,178a <__stack_size+0x78e>
    1780:	12fd                	addi	t0,t0,-1
    1782:	557d                	li	a0,-1
    1784:	862e                	mv	a2,a1
    1786:	f2a294e3          	bne	t0,a0,16ae <__stack_size+0x6b2>
    178a:	0c05                	addi	s8,s8,1
    178c:	862e                	mv	a2,a1
    178e:	b969                	j	1428 <__stack_size+0x42c>
    1790:	6395                	lui	t2,0x5
    1792:	02000c93          	li	s9,32
    1796:	c7c38393          	addi	t2,t2,-900 # 4c7c <g_pow43>
    179a:	5be1                	li	s7,-8
    179c:	50fd                	li	ra,-1
    179e:	0885                	addi	a7,a7,1
    17a0:	fff8cf83          	lbu	t6,-1(a7)
    17a4:	0691                	addi	a3,a3,4
    17a6:	ffc6a707          	flw	fa4,-4(a3)
    17aa:	001fdf93          	srli	t6,t6,0x1
    17ae:	85fe                	mv	a1,t6
    17b0:	01f35363          	bge	t1,t6,17b6 <__stack_size+0x7ba>
    17b4:	859a                	mv	a1,t1
    17b6:	058e                	slli	a1,a1,0x3
    17b8:	95b2                	add	a1,a1,a2
    17ba:	01b7d513          	srli	a0,a5,0x1b
    17be:	0506                	slli	a0,a0,0x1
    17c0:	957a                	add	a0,a0,t5
    17c2:	00051503          	lh	a0,0(a0)
    17c6:	4e95                	li	t4,5
    17c8:	14054863          	bltz	a0,1918 <__stack_size+0x91c>
    17cc:	40855e13          	srai	t3,a0,0x8
    17d0:	01c797b3          	sll	a5,a5,t3
    17d4:	9872                	add	a6,a6,t3
    17d6:	01f7dd13          	srli	s10,a5,0x1f
    17da:	00f57e13          	andi	t3,a0,15
    17de:	010e0e93          	addi	t4,t3,16
    17e2:	0d12                	slli	s10,s10,0x4
    17e4:	41ae8eb3          	sub	t4,t4,s10
    17e8:	0e8a                	slli	t4,t4,0x2
    17ea:	9e9e                	add	t4,t4,t2
    17ec:	000ea787          	flw	fa5,0(t4)
    17f0:	01c03e33          	snez	t3,t3
    17f4:	01c797b3          	sll	a5,a5,t3
    17f8:	8511                	srai	a0,a0,0x4
    17fa:	10e7f7d3          	fmul.s	fa5,fa5,fa4
    17fe:	893d                	andi	a0,a0,15
    1800:	01f7de93          	srli	t4,a5,0x1f
    1804:	9872                	add	a6,a6,t3
    1806:	0e92                	slli	t4,t4,0x4
    1808:	01050e13          	addi	t3,a0,16
    180c:	41de0e33          	sub	t3,t3,t4
    1810:	0e0a                	slli	t3,t3,0x2
    1812:	9e1e                	add	t3,t3,t2
    1814:	e21c                	fsw	fa5,0(a2)
    1816:	000e2787          	flw	fa5,0(t3)
    181a:	00a03533          	snez	a0,a0
    181e:	01050e33          	add	t3,a0,a6
    1822:	10e7f7d3          	fmul.s	fa5,fa5,fa4
    1826:	00a797b3          	sll	a5,a5,a0
    182a:	0621                	addi	a2,a2,8
    182c:	883a                	mv	a6,a4
    182e:	8572                	mv	a0,t3
    1830:	fef62e27          	fsw	fa5,-4(a2)
    1834:	10055363          	bgez	a0,193a <__stack_size+0x93e>
    1838:	008e0813          	addi	a6,t3,8
    183c:	00385813          	srli	a6,a6,0x3
    1840:	9742                	add	a4,a4,a6
    1842:	03780833          	mul	a6,a6,s7
    1846:	9872                	add	a6,a6,t3
    1848:	f6c599e3          	bne	a1,a2,17ba <__stack_size+0x7be>
    184c:	41f30333          	sub	t1,t1,t6
    1850:	f2605de3          	blez	t1,178a <__stack_size+0x78e>
    1854:	12fd                	addi	t0,t0,-1
    1856:	862e                	mv	a2,a1
    1858:	f41293e3          	bne	t0,ra,179e <__stack_size+0x7a2>
    185c:	b73d                	j	178a <__stack_size+0x78e>
    185e:	01c797b3          	sll	a5,a5,t3
    1862:	9872                	add	a6,a6,t3
    1864:	007efe13          	andi	t3,t4,7
    1868:	41cd8533          	sub	a0,s11,t3
    186c:	403ede93          	srai	t4,t4,0x3
    1870:	00a7d533          	srl	a0,a5,a0
    1874:	41d50533          	sub	a0,a0,t4
    1878:	0506                	slli	a0,a0,0x1
    187a:	957a                	add	a0,a0,t5
    187c:	00051e83          	lh	t4,0(a0)
    1880:	bda1                	j	16d8 <__stack_size+0x6dc>
    1882:	000bcd03          	lbu	s10,0(s7)
    1886:	0b85                	addi	s7,s7,1
    1888:	00ad1d33          	sll	s10,s10,a0
    188c:	01a7e7b3          	or	a5,a5,s10
    1890:	1561                	addi	a0,a0,-8
    1892:	bda5                	j	170a <__stack_size+0x70e>
    1894:	3ff00613          	li	a2,1023
    1898:	05c64763          	blt	a2,t3,18e6 <__stack_size+0x8ea>
    189c:	003e1513          	slli	a0,t3,0x3
    18a0:	4d41                	li	s10,16
    18a2:	00151b93          	slli	s7,a0,0x1
    18a6:	040bfb93          	andi	s7,s7,64
    18aa:	03f57613          	andi	a2,a0,63
    18ae:	41760633          	sub	a2,a2,s7
    18b2:	d00677d3          	fcvt.s.w	fa5,a2
    18b6:	fc057613          	andi	a2,a0,-64
    18ba:	965e                	add	a2,a2,s7
    18bc:	d00676d3          	fcvt.s.w	fa3,a2
    18c0:	955e                	add	a0,a0,s7
    18c2:	8519                	srai	a0,a0,0x6
    18c4:	18d7f7d3          	fdiv.s	fa5,fa5,fa3
    18c8:	0541                	addi	a0,a0,16
    18ca:	050a                	slli	a0,a0,0x2
    18cc:	951e                	add	a0,a0,t2
    18ce:	50b7f6c3          	fmadd.s	fa3,fa5,fa1,fa0
    18d2:	00d7f7c3          	fmadd.s	fa5,fa5,fa3,ft0
    18d6:	6114                	flw	fa3,0(a0)
    18d8:	10d7f7d3          	fmul.s	fa5,fa5,fa3
    18dc:	d00d76d3          	fcvt.s.w	fa3,s10
    18e0:	10d7f7d3          	fmul.s	fa5,fa5,fa3
    18e4:	b5a9                	j	172e <__stack_size+0x732>
    18e6:	8572                	mv	a0,t3
    18e8:	10000d13          	li	s10,256
    18ec:	bf5d                	j	18a2 <__stack_size+0x8a6>
    18ee:	01f7d513          	srli	a0,a5,0x1f
    18f2:	010e0613          	addi	a2,t3,16
    18f6:	0512                	slli	a0,a0,0x4
    18f8:	8e09                	sub	a2,a2,a0
    18fa:	060a                	slli	a2,a2,0x2
    18fc:	961e                	add	a2,a2,t2
    18fe:	621c                	flw	fa5,0(a2)
    1900:	10e7f7d3          	fmul.s	fa5,fa5,fa4
    1904:	bd3d                	j	1742 <__stack_size+0x746>
    1906:	000e4e83          	lbu	t4,0(t3)
    190a:	0e05                	addi	t3,t3,1
    190c:	00ae9eb3          	sll	t4,t4,a0
    1910:	01d7e7b3          	or	a5,a5,t4
    1914:	1561                	addi	a0,a0,-8
    1916:	b5a9                	j	1760 <__stack_size+0x764>
    1918:	01d797b3          	sll	a5,a5,t4
    191c:	9876                	add	a6,a6,t4
    191e:	00757e93          	andi	t4,a0,7
    1922:	41dc8e33          	sub	t3,s9,t4
    1926:	850d                	srai	a0,a0,0x3
    1928:	01c7de33          	srl	t3,a5,t3
    192c:	40ae0e33          	sub	t3,t3,a0
    1930:	0e06                	slli	t3,t3,0x1
    1932:	9e7a                	add	t3,t3,t5
    1934:	000e1503          	lh	a0,0(t3)
    1938:	bd41                	j	17c8 <__stack_size+0x7cc>
    193a:	00084e83          	lbu	t4,0(a6)
    193e:	0805                	addi	a6,a6,1
    1940:	00ae9eb3          	sll	t4,t4,a0
    1944:	01d7e7b3          	or	a5,a5,t4
    1948:	1561                	addi	a0,a0,-8
    194a:	b5ed                	j	1834 <__stack_size+0x838>
    194c:	6e19                	lui	t3,0x6
    194e:	8f8e0e13          	addi	t3,t3,-1800 # 58f8 <tab32.6491>
    1952:	b4f5                	j	143e <__stack_size+0x442>
    1954:	00054283          	lbu	t0,0(a0)
    1958:	0505                	addi	a0,a0,1
    195a:	00b292b3          	sll	t0,t0,a1
    195e:	0057e7b3          	or	a5,a5,t0
    1962:	15e1                	addi	a1,a1,-8
    1964:	b6f9                	j	1532 <__stack_size+0x536>
    1966:	6711                	lui	a4,0x4
    1968:	0741                	addi	a4,a4,16
    196a:	1894                	addi	a3,sp,112
    196c:	9736                	add	a4,a4,a3
    196e:	77f1                	lui	a5,0xffffc
    1970:	97ba                	add	a5,a5,a4
    1972:	5722                	lw	a4,40(sp)
    1974:	c83e                	sw	a5,16(sp)
    1976:	0985                	addi	s3,s3,1
    1978:	08e7ac23          	sw	a4,152(a5) # ffffc098 <_eusrstack+0xdfff4098>
    197c:	6785                	lui	a5,0x1
    197e:	90078793          	addi	a5,a5,-1792 # 900 <mp3d_scale_pcm+0x3e>
    1982:	9b3e                	add	s6,s6,a5
    1984:	5782                	lw	a5,32(sp)
    1986:	04f1                	addi	s1,s1,28
    1988:	02778793          	addi	a5,a5,39
    198c:	d03e                	sw	a5,32(sp)
    198e:	2770006f          	j	2404 <__stack_size+0x1408>
    1992:	0309                	addi	t1,t1,2
    1994:	02b35963          	bge	t1,a1,19c6 <__stack_size+0x9ca>
    1998:	631c                	flw	fa5,0(a4)
    199a:	a0e7af53          	feq.s	t5,fa5,fa4
    199e:	000f0963          	beqz	t5,19b0 <__stack_size+0x9b4>
    19a2:	0721                	addi	a4,a4,8
    19a4:	ffc72787          	flw	fa5,-4(a4) # 3ffc <__smakebuf_r+0x30>
    19a8:	a0e7af53          	feq.s	t5,fa5,fa4
    19ac:	fe0f13e3          	bnez	t5,1992 <__stack_size+0x996>
    19b0:	03c7e733          	rem	a4,a5,t3
    19b4:	6491                	lui	s1,0x4
    19b6:	04c1                	addi	s1,s1,16
    19b8:	07010313          	addi	t1,sp,112
    19bc:	949a                	add	s1,s1,t1
    19be:	070a                	slli	a4,a4,0x2
    19c0:	9726                	add	a4,a4,s1
    19c2:	9776                	add	a4,a4,t4
    19c4:	cb5c                	sw	a5,20(a4)
    19c6:	058a                	slli	a1,a1,0x2
    19c8:	962e                	add	a2,a2,a1
    19ca:	0785                	addi	a5,a5,1
    19cc:	2910006f          	j	245c <__stack_size+0x1460>
    19d0:	c131                	beqz	a0,1a14 <__stack_size+0xa18>
    19d2:	6611                	lui	a2,0x4
    19d4:	0641                	addi	a2,a2,16
    19d6:	188c                	addi	a1,sp,112
    19d8:	962e                	add	a2,a2,a1
    19da:	7771                	lui	a4,0xffffc
    19dc:	9732                	add	a4,a4,a2
    19de:	c83a                	sw	a4,16(sp)
    19e0:	4b50                	lw	a2,20(a4)
    19e2:	4f18                	lw	a4,24(a4)
    19e4:	00c75363          	bge	a4,a2,19ea <__stack_size+0x9ee>
    19e8:	8732                	mv	a4,a2
    19ea:	6591                	lui	a1,0x4
    19ec:	05c1                	addi	a1,a1,16
    19ee:	1888                	addi	a0,sp,112
    19f0:	7671                	lui	a2,0xffffc
    19f2:	95aa                	add	a1,a1,a0
    19f4:	962e                	add	a2,a2,a1
    19f6:	c832                	sw	a2,16(sp)
    19f8:	4e50                	lw	a2,28(a2)
    19fa:	00c75363          	bge	a4,a2,1a00 <__stack_size+0xa04>
    19fe:	8732                	mv	a4,a2
    1a00:	6591                	lui	a1,0x4
    1a02:	05c1                	addi	a1,a1,16
    1a04:	1888                	addi	a0,sp,112
    1a06:	7671                	lui	a2,0xffffc
    1a08:	95aa                	add	a1,a1,a0
    1a0a:	962e                	add	a2,a2,a1
    1a0c:	c832                	sw	a2,16(sp)
    1a0e:	ce58                	sw	a4,28(a2)
    1a10:	ce18                	sw	a4,24(a2)
    1a12:	ca58                	sw	a4,20(a2)
    1a14:	4612                	lw	a2,4(sp)
    1a16:	6709                	lui	a4,0x2
    1a18:	4801                	li	a6,0
    1a1a:	9732                	add	a4,a4,a2
    1a1c:	80974583          	lbu	a1,-2039(a4) # 1809 <__stack_size+0x80d>
    1a20:	89a1                	andi	a1,a1,8
    1a22:	c191                	beqz	a1,1a26 <__stack_size+0xa2a>
    1a24:	480d                	li	a6,3
    1a26:	6491                	lui	s1,0x4
    1a28:	07010893          	addi	a7,sp,112
    1a2c:	01048513          	addi	a0,s1,16 # 4010 <__smakebuf_r+0x44>
    1a30:	04c1                	addi	s1,s1,16
    1a32:	9546                	add	a0,a0,a7
    1a34:	94c6                	add	s1,s1,a7
    1a36:	6891                	lui	a7,0x4
    1a38:	7771                	lui	a4,0xffffc
    1a3a:	f4388893          	addi	a7,a7,-189 # 3f43 <_fwalk_reent+0x39>
    1a3e:	01470613          	addi	a2,a4,20 # ffffc014 <_eusrstack+0xdfff4014>
    1a42:	40d78333          	sub	t1,a5,a3
    1a46:	09470713          	addi	a4,a4,148
    1a4a:	97c6                	add	a5,a5,a7
    1a4c:	9726                	add	a4,a4,s1
    1a4e:	8f95                	sub	a5,a5,a3
    1a50:	962a                	add	a2,a2,a0
    1a52:	0ff87813          	andi	a6,a6,255
    1a56:	40d30533          	sub	a0,t1,a3
    1a5a:	40d00e33          	neg	t3,a3
    1a5e:	97ba                	add	a5,a5,a4
    1a60:	4214                	lw	a3,0(a2)
    1a62:	8742                	mv	a4,a6
    1a64:	00a6d563          	bge	a3,a0,1a6e <__stack_size+0xa72>
    1a68:	01c78733          	add	a4,a5,t3
    1a6c:	2318                	lbu	a4,0(a4)
    1a6e:	a398                	sb	a4,0(a5)
    1a70:	0505                	addi	a0,a0,1
    1a72:	0611                	addi	a2,a2,4
    1a74:	0785                	addi	a5,a5,1
    1a76:	fea315e3          	bne	t1,a0,1a60 <__stack_size+0xa64>
    1a7a:	02445983          	lhu	s3,36(s0)
    1a7e:	00042b83          	lw	s7,0(s0)
    1a82:	4b1d                	li	s6,7
    1a84:	0019f993          	andi	s3,s3,1
    1a88:	e199                	bnez	a1,1a8e <__stack_size+0xa92>
    1a8a:	04000b13          	li	s6,64
    1a8e:	6791                	lui	a5,0x4
    1a90:	74f1                	lui	s1,0xffffc
    1a92:	07c1                	addi	a5,a5,16
    1a94:	1898                	addi	a4,sp,112
    1a96:	97ba                	add	a5,a5,a4
    1a98:	09448493          	addi	s1,s1,148 # ffffc094 <_eusrstack+0xdfff4094>
    1a9c:	94be                	add	s1,s1,a5
    1a9e:	000067b7          	lui	a5,0x6
    1aa2:	8c07a907          	flw	fs2,-1856(a5) # 58c0 <halfrate.6375+0x1d8>
    1aa6:	000067b7          	lui	a5,0x6
    1aaa:	6c85                	lui	s9,0x1
    1aac:	8c47a987          	flw	fs3,-1852(a5) # 58c4 <halfrate.6375+0x1dc>
    1ab0:	21290a53          	fmv.s	fs4,fs2
    1ab4:	b7cc8c93          	addi	s9,s9,-1156 # b7c <hdr_frame_bytes+0x2a>
    1ab8:	4d01                	li	s10,0
    1aba:	9ca6                	add	s9,s9,s1
    1abc:	7c71                	lui	s8,0xffffc
    1abe:	01ab8ab3          	add	s5,s7,s10
    1ac2:	000ac583          	lbu	a1,0(s5)
    1ac6:	e585                	bnez	a1,1aee <__stack_size+0xaf2>
    1ac8:	6791                	lui	a5,0x4
    1aca:	7b71                	lui	s6,0xffffc
    1acc:	07c1                	addi	a5,a5,16
    1ace:	1898                	addi	a4,sp,112
    1ad0:	97ba                	add	a5,a5,a4
    1ad2:	094b0a93          	addi	s5,s6,148 # ffffc094 <_eusrstack+0xdfff4094>
    1ad6:	9abe                	add	s5,s5,a5
    1ad8:	6485                	lui	s1,0x1
    1ada:	6789                	lui	a5,0x2
    1adc:	4c848493          	addi	s1,s1,1224 # 14c8 <__stack_size+0x4cc>
    1ae0:	e1c78793          	addi	a5,a5,-484 # 1e1c <__stack_size+0xe20>
    1ae4:	94ca                	add	s1,s1,s2
    1ae6:	4981                	li	s3,0
    1ae8:	00fa8cb3          	add	s9,s5,a5
    1aec:	acbd                	j	1d6a <__stack_size+0xd6e>
    1aee:	4712                	lw	a4,4(sp)
    1af0:	6789                	lui	a5,0x2
    1af2:	6691                	lui	a3,0x4
    1af4:	97ba                	add	a5,a5,a4
    1af6:	80b7c703          	lbu	a4,-2037(a5) # 180b <__stack_size+0x80f>
    1afa:	478d                	li	a5,3
    1afc:	02fd77b3          	remu	a5,s10,a5
    1b00:	06c1                	addi	a3,a3,16
    1b02:	1890                	addi	a2,sp,112
    1b04:	96b2                	add	a3,a3,a2
    1b06:	02077713          	andi	a4,a4,32
    1b0a:	078a                	slli	a5,a5,0x2
    1b0c:	97b6                	add	a5,a5,a3
    1b0e:	97e2                	add	a5,a5,s8
    1b10:	4bdc                	lw	a5,20(a5)
    1b12:	0ba7d663          	bge	a5,s10,1bbe <__stack_size+0xbc2>
    1b16:	6791                	lui	a5,0x4
    1b18:	f4378793          	addi	a5,a5,-189 # 3f43 <_fwalk_reent+0x39>
    1b1c:	97ea                	add	a5,a5,s10
    1b1e:	97a6                	add	a5,a5,s1
    1b20:	0007cd83          	lbu	s11,0(a5)
    1b24:	096dfd63          	bgeu	s11,s6,1bbe <__stack_size+0xbc2>
    1b28:	213984d3          	fmv.s	fs1,fs3
    1b2c:	e319                	bnez	a4,1b32 <__stack_size+0xb36>
    1b2e:	214a04d3          	fmv.s	fs1,fs4
    1b32:	4712                	lw	a4,4(sp)
    1b34:	6789                	lui	a5,0x2
    1b36:	97ba                	add	a5,a5,a4
    1b38:	8097c783          	lbu	a5,-2039(a5) # 1809 <__stack_size+0x80d>
    1b3c:	8ba1                	andi	a5,a5,8
    1b3e:	cbb9                	beqz	a5,1b94 <__stack_size+0xb98>
    1b40:	6715                	lui	a4,0x5
    1b42:	c4470713          	addi	a4,a4,-956 # 4c44 <g_pan.6598>
    1b46:	003d9793          	slli	a5,s11,0x3
    1b4a:	97ba                	add	a5,a5,a4
    1b4c:	639c                	flw	fa5,0(a5)
    1b4e:	003d9793          	slli	a5,s11,0x3
    1b52:	973e                	add	a4,a4,a5
    1b54:	6348                	flw	fa0,4(a4)
    1b56:	1097f7d3          	fmul.s	fa5,fa5,fs1
    1b5a:	10a4f4d3          	fmul.s	fs1,fs1,fa0
    1b5e:	6685                	lui	a3,0x1
    1b60:	87e6                	mv	a5,s9
    1b62:	4701                	li	a4,0
    1b64:	90068693          	addi	a3,a3,-1792 # 900 <mp3d_scale_pcm+0x3e>
    1b68:	6398                	flw	fa4,0(a5)
    1b6a:	00d78633          	add	a2,a5,a3
    1b6e:	0705                	addi	a4,a4,1
    1b70:	10977753          	fmul.s	fa4,fa4,fs1
    1b74:	0791                	addi	a5,a5,4
    1b76:	e218                	fsw	fa4,0(a2)
    1b78:	ffc7a707          	flw	fa4,-4(a5)
    1b7c:	10f77753          	fmul.s	fa4,fa4,fa5
    1b80:	fee7ae27          	fsw	fa4,-4(a5)
    1b84:	feb742e3          	blt	a4,a1,1b68 <__stack_size+0xb6c>
    1b88:	000ac783          	lbu	a5,0(s5)
    1b8c:	0d05                	addi	s10,s10,1
    1b8e:	078a                	slli	a5,a5,0x2
    1b90:	9cbe                	add	s9,s9,a5
    1b92:	b735                	j	1abe <__stack_size+0xac2>
    1b94:	001d8513          	addi	a0,s11,1
    1b98:	21290553          	fmv.s	fa0,fs2
    1b9c:	8105                	srli	a0,a0,0x1
    1b9e:	01351533          	sll	a0,a0,s3
    1ba2:	c82e                	sw	a1,16(sp)
    1ba4:	a9dfe0ef          	jal	ra,640 <L3_ldexp_q2>
    1ba8:	001df793          	andi	a5,s11,1
    1bac:	212907d3          	fmv.s	fa5,fs2
    1bb0:	45c2                	lw	a1,16(sp)
    1bb2:	d3d5                	beqz	a5,1b56 <__stack_size+0xb5a>
    1bb4:	20a507d3          	fmv.s	fa5,fa0
    1bb8:	21290553          	fmv.s	fa0,fs2
    1bbc:	bf69                	j	1b56 <__stack_size+0xb5a>
    1bbe:	d769                	beqz	a4,1b88 <__stack_size+0xb8c>
    1bc0:	8566                	mv	a0,s9
    1bc2:	abdfe0ef          	jal	ra,67e <L3_midside_stereo>
    1bc6:	b7c9                	j	1b88 <__stack_size+0xb8c>
    1bc8:	0e07f793          	andi	a5,a5,224
    1bcc:	06000713          	li	a4,96
    1bd0:	eee79ce3          	bne	a5,a4,1ac8 <__stack_size+0xacc>
    1bd4:	6711                	lui	a4,0x4
    1bd6:	1894                	addi	a3,sp,112
    1bd8:	77f1                	lui	a5,0xffffc
    1bda:	0741                	addi	a4,a4,16
    1bdc:	9736                	add	a4,a4,a3
    1bde:	09478793          	addi	a5,a5,148 # ffffc094 <_eusrstack+0xdfff4094>
    1be2:	6505                	lui	a0,0x1
    1be4:	97ba                	add	a5,a5,a4
    1be6:	b7c50513          	addi	a0,a0,-1156 # b7c <hdr_frame_bytes+0x2a>
    1bea:	24000593          	li	a1,576
    1bee:	953e                	add	a0,a0,a5
    1bf0:	a8ffe0ef          	jal	ra,67e <L3_midside_stereo>
    1bf4:	bdd1                	j	1ac8 <__stack_size+0xacc>
    1bf6:	4792                	lw	a5,4(sp)
    1bf8:	6709                	lui	a4,0x2
    1bfa:	00c44d83          	lbu	s11,12(s0)
    1bfe:	973e                	add	a4,a4,a5
    1c00:	80974783          	lbu	a5,-2039(a4) # 1809 <__stack_size+0x80d>
    1c04:	01b03db3          	snez	s11,s11
    1c08:	0d86                	slli	s11,s11,0x1
    1c0a:	0037d693          	srli	a3,a5,0x3
    1c0e:	8391                	srli	a5,a5,0x4
    1c10:	8b85                	andi	a5,a5,1
    1c12:	8a85                	andi	a3,a3,1
    1c14:	96be                	add	a3,a3,a5
    1c16:	478d                	li	a5,3
    1c18:	02f686b3          	mul	a3,a3,a5
    1c1c:	80a74783          	lbu	a5,-2038(a4)
    1c20:	2478                	lbu	a4,14(s0)
    1c22:	4d7d                	li	s10,31
    1c24:	8389                	srli	a5,a5,0x2
    1c26:	8b8d                	andi	a5,a5,3
    1c28:	96be                	add	a3,a3,a5
    1c2a:	16f9                	addi	a3,a3,-2
    1c2c:	77fd                	lui	a5,0xfffff
    1c2e:	0016b693          	seqz	a3,a3
    1c32:	6b478793          	addi	a5,a5,1716 # fffff6b4 <_eusrstack+0xdfff76b4>
    1c36:	00dd9db3          	sll	s11,s11,a3
    1c3a:	00f48bb3          	add	s7,s1,a5
    1c3e:	cf05                	beqz	a4,1c76 <__stack_size+0xc7a>
    1c40:	04800513          	li	a0,72
    1c44:	02ad8533          	mul	a0,s11,a0
    1c48:	3458                	lbu	a4,13(s0)
    1c4a:	00042303          	lw	t1,0(s0)
    1c4e:	6789                	lui	a5,0x2
    1c50:	e1c78793          	addi	a5,a5,-484 # 1e1c <__stack_size+0xe20>
    1c54:	fffd8d13          	addi	s10,s11,-1
    1c58:	933a                	add	t1,t1,a4
    1c5a:	00fa8633          	add	a2,s5,a5
    1c5e:	4eb1                	li	t4,12
    1c60:	955e                	add	a0,a0,s7
    1c62:	8e2a                	mv	t3,a0
    1c64:	00034703          	lbu	a4,0(t1) # 4000 <__smakebuf_r+0x34>
    1c68:	000713e3          	bnez	a4,246e <__stack_size+0x1472>
    1c6c:	41960633          	sub	a2,a2,s9
    1c70:	85e6                	mv	a1,s9
    1c72:	37f010ef          	jal	ra,37f0 <memcpy>
    1c76:	777d                	lui	a4,0xfffff
    1c78:	6fc70713          	addi	a4,a4,1788 # fffff6fc <_eusrstack+0xdfff76fc>
    1c7c:	9726                	add	a4,a4,s1
    1c7e:	03a047e3          	bgtz	s10,24ac <__stack_size+0x14b0>
    1c82:	48000813          	li	a6,1152
    1c86:	03098833          	mul	a6,s3,a6
    1c8a:	4792                	lw	a5,4(sp)
    1c8c:	00b44d03          	lbu	s10,11(s0)
    1c90:	01078c33          	add	s8,a5,a6
    1c94:	020d8463          	beqz	s11,1cbc <__stack_size+0xcc0>
    1c98:	6615                	lui	a2,0x5
    1c9a:	85e2                	mv	a1,s8
    1c9c:	855e                	mv	a0,s7
    1c9e:	86ee                	mv	a3,s11
    1ca0:	b9c60613          	addi	a2,a2,-1124 # 4b9c <g_mdct_window.6738>
    1ca4:	b07fe0ef          	jal	ra,7aa <L3_imdct36>
    1ca8:	04800713          	li	a4,72
    1cac:	02ed8733          	mul	a4,s11,a4
    1cb0:	9bba                	add	s7,s7,a4
    1cb2:	02400713          	li	a4,36
    1cb6:	02ed8733          	mul	a4,s11,a4
    1cba:	9c3a                	add	s8,s8,a4
    1cbc:	02000693          	li	a3,32
    1cc0:	4709                	li	a4,2
    1cc2:	41b686b3          	sub	a3,a3,s11
    1cc6:	02ed14e3          	bne	s10,a4,24ee <__stack_size+0x14f2>
    1cca:	6791                	lui	a5,0x4
    1ccc:	07c1                	addi	a5,a5,16
    1cce:	1890                	addi	a2,sp,112
    1cd0:	97b2                	add	a5,a5,a2
    1cd2:	014b0713          	addi	a4,s6,20
    1cd6:	00e78db3          	add	s11,a5,a4
    1cda:	004d8793          	addi	a5,s11,4
    1cde:	09410313          	addi	t1,sp,148
    1ce2:	c83e                	sw	a5,16(sp)
    1ce4:	008d8a13          	addi	s4,s11,8
    1ce8:	851a                	mv	a0,t1
    1cea:	85de                	mv	a1,s7
    1cec:	04800613          	li	a2,72
    1cf0:	d436                	sw	a3,40(sp)
    1cf2:	d01a                	sw	t1,32(sp)
    1cf4:	2fd010ef          	jal	ra,37f0 <memcpy>
    1cf8:	85e2                	mv	a1,s8
    1cfa:	4661                	li	a2,24
    1cfc:	855e                	mv	a0,s7
    1cfe:	2f3010ef          	jal	ra,37f0 <memcpy>
    1d02:	018c0d13          	addi	s10,s8,24 # ffffc018 <_eusrstack+0xdfff4018>
    1d06:	018b8593          	addi	a1,s7,24
    1d0a:	866a                	mv	a2,s10
    1d0c:	856e                	mv	a0,s11
    1d0e:	d6dfe0ef          	jal	ra,a7a <L3_imdct12>
    1d12:	4542                	lw	a0,16(sp)
    1d14:	030b8593          	addi	a1,s7,48
    1d18:	866a                	mv	a2,s10
    1d1a:	d61fe0ef          	jal	ra,a7a <L3_imdct12>
    1d1e:	85e2                	mv	a1,s8
    1d20:	866a                	mv	a2,s10
    1d22:	8552                	mv	a0,s4
    1d24:	d57fe0ef          	jal	ra,a7a <L3_imdct12>
    1d28:	56a2                	lw	a3,40(sp)
    1d2a:	024c0c13          	addi	s8,s8,36
    1d2e:	048b8b93          	addi	s7,s7,72
    1d32:	16fd                	addi	a3,a3,-1
    1d34:	5302                	lw	t1,32(sp)
    1d36:	facd                	bnez	a3,1ce8 <__stack_size+0xcec>
    1d38:	77fd                	lui	a5,0xfffff
    1d3a:	70078793          	addi	a5,a5,1792 # fffff700 <_eusrstack+0xdfff7700>
    1d3e:	97a6                	add	a5,a5,s1
    1d40:	873e                	mv	a4,a5
    1d42:	04878693          	addi	a3,a5,72
    1d46:	631c                	flw	fa5,0(a4)
    1d48:	0721                	addi	a4,a4,8
    1d4a:	20f797d3          	fneg.s	fa5,fa5
    1d4e:	fef72c27          	fsw	fa5,-8(a4)
    1d52:	fee69ae3          	bne	a3,a4,1d46 <__stack_size+0xd4a>
    1d56:	09078793          	addi	a5,a5,144
    1d5a:	fef493e3          	bne	s1,a5,1d40 <__stack_size+0xd44>
    1d5e:	6785                	lui	a5,0x1
    1d60:	90078793          	addi	a5,a5,-1792 # 900 <mp3d_scale_pcm+0x3e>
    1d64:	0985                	addi	s3,s3,1
    1d66:	0471                	addi	s0,s0,28
    1d68:	94be                	add	s1,s1,a5
    1d6a:	47f2                	lw	a5,28(sp)
    1d6c:	e8f9c5e3          	blt	s3,a5,1bf6 <__stack_size+0xbfa>
    1d70:	4712                	lw	a4,4(sp)
    1d72:	6785                	lui	a5,0x1
    1d74:	90078793          	addi	a5,a5,-1792 # 900 <mp3d_scale_pcm+0x3e>
    1d78:	97ba                	add	a5,a5,a4
    1d7a:	da3e                	sw	a5,52(sp)
    1d7c:	47b2                	lw	a5,12(sp)
    1d7e:	7ef1                	lui	t4,0xffffc
    1d80:	1898                	addi	a4,sp,112
    1d82:	0087ac03          	lw	s8,8(a5)
    1d86:	000067b7          	lui	a5,0x6
    1d8a:	8d47a587          	flw	fa1,-1836(a5) # 58d4 <halfrate.6375+0x1ec>
    1d8e:	000067b7          	lui	a5,0x6
    1d92:	8d87a507          	flw	fa0,-1832(a5) # 58d8 <halfrate.6375+0x1f0>
    1d96:	000067b7          	lui	a5,0x6
    1d9a:	8dc7a007          	flw	ft0,-1828(a5) # 58dc <halfrate.6375+0x1f4>
    1d9e:	000067b7          	lui	a5,0x6
    1da2:	8e07a087          	flw	ft1,-1824(a5) # 58e0 <halfrate.6375+0x1f8>
    1da6:	000067b7          	lui	a5,0x6
    1daa:	8e47a107          	flw	ft2,-1820(a5) # 58e4 <halfrate.6375+0x1fc>
    1dae:	000067b7          	lui	a5,0x6
    1db2:	8e87a187          	flw	ft3,-1816(a5) # 58e8 <halfrate.6375+0x200>
    1db6:	000067b7          	lui	a5,0x6
    1dba:	8ec7a207          	flw	ft4,-1812(a5) # 58ec <halfrate.6375+0x204>
    1dbe:	000067b7          	lui	a5,0x6
    1dc2:	8f07a287          	flw	ft5,-1808(a5) # 58f0 <halfrate.6375+0x208>
    1dc6:	000067b7          	lui	a5,0x6
    1dca:	8f47a307          	flw	ft6,-1804(a5) # 58f4 <halfrate.6375+0x20c>
    1dce:	6791                	lui	a5,0x4
    1dd0:	07c1                	addi	a5,a5,16
    1dd2:	014e8313          	addi	t1,t4,20 # ffffc014 <_eusrstack+0xdfff4014>
    1dd6:	97ba                	add	a5,a5,a4
    1dd8:	00678f33          	add	t5,a5,t1
    1ddc:	88ca                	mv	a7,s2
    1dde:	4801                	li	a6,0
    1de0:	6f95                	lui	t6,0x5
    1de2:	080f0293          	addi	t0,t5,128
    1de6:	73884563          	blt	a6,s8,2510 <__stack_size+0x1514>
    1dea:	6a11                	lui	s4,0x4
    1dec:	1898                	addi	a4,sp,112
    1dee:	79f1                	lui	s3,0xffffc
    1df0:	010a0793          	addi	a5,s4,16 # 4010 <__smakebuf_r+0x44>
    1df4:	97ba                	add	a5,a5,a4
    1df6:	09498993          	addi	s3,s3,148 # ffffc094 <_eusrstack+0xdfff4094>
    1dfa:	55d2                	lw	a1,52(sp)
    1dfc:	6509                	lui	a0,0x2
    1dfe:	99be                	add	s3,s3,a5
    1e00:	6485                	lui	s1,0x1
    1e02:	e1c50513          	addi	a0,a0,-484 # 1e1c <__stack_size+0xe20>
    1e06:	f0048613          	addi	a2,s1,-256 # f00 <mp3dec_decode_frame+0x320>
    1e0a:	954e                	add	a0,a0,s3
    1e0c:	1e5010ef          	jal	ra,37f0 <memcpy>
    1e10:	90048693          	addi	a3,s1,-1792
    1e14:	fffc0713          	addi	a4,s8,-1
    1e18:	02d70733          	mul	a4,a4,a3
    1e1c:	001c1793          	slli	a5,s8,0x1
    1e20:	17f9                	addi	a5,a5,-2
    1e22:	b7c48613          	addi	a2,s1,-1156
    1e26:	640d                	lui	s0,0x3
    1e28:	d43e                	sw	a5,40(sp)
    1e2a:	e0c40413          	addi	s0,s0,-500 # 2e0c <SystemInit+0x26>
    1e2e:	006c1793          	slli	a5,s8,0x6
    1e32:	d63e                	sw	a5,44(sp)
    1e34:	944e                	add	s0,s0,s3
    1e36:	9732                	add	a4,a4,a2
    1e38:	00c987b3          	add	a5,s3,a2
    1e3c:	99ba                	add	s3,s3,a4
    1e3e:	6711                	lui	a4,0x4
    1e40:	0731                	addi	a4,a4,12
    1e42:	974a                	add	a4,a4,s2
    1e44:	c4ba                	sw	a4,72(sp)
    1e46:	5722                	lw	a4,40(sp)
    1e48:	72f1                	lui	t0,0xffffc
    1e4a:	1894                	addi	a3,sp,112
    1e4c:	00270393          	addi	t2,a4,2 # 4002 <__smakebuf_r+0x36>
    1e50:	5779                	li	a4,-2
    1e52:	02ec0733          	mul	a4,s8,a4
    1e56:	01428d13          	addi	s10,t0,20 # ffffc014 <_eusrstack+0xdfff4014>
    1e5a:	5a92                	lw	s5,36(sp)
    1e5c:	00428d93          	addi	s11,t0,4
    1e60:	7cfd                	lui	s9,0xfffff
    1e62:	c0ba                	sw	a4,64(sp)
    1e64:	07e00713          	li	a4,126
    1e68:	02ec0733          	mul	a4,s8,a4
    1e6c:	caba                	sw	a4,84(sp)
    1e6e:	03e00713          	li	a4,62
    1e72:	02ec0733          	mul	a4,s8,a4
    1e76:	c8ba                	sw	a4,80(sp)
    1e78:	04200713          	li	a4,66
    1e7c:	02ec0733          	mul	a4,s8,a4
    1e80:	c6ba                	sw	a4,76(sp)
    1e82:	010a0713          	addi	a4,s4,16
    1e86:	9736                	add	a4,a4,a3
    1e88:	9d3a                	add	s10,s10,a4
    1e8a:	010a0713          	addi	a4,s4,16
    1e8e:	9736                	add	a4,a4,a3
    1e90:	9dba                	add	s11,s11,a4
    1e92:	010d0713          	addi	a4,s10,16
    1e96:	4807a787          	flw	fa5,1152(a5) # 4480 <_vfiprintf_r+0x240>
    1e9a:	ceba                	sw	a4,92(sp)
    1e9c:	5722                	lw	a4,40(sp)
    1e9e:	e01c                	fsw	fa5,0(s0)
    1ea0:	4809a787          	flw	fa5,1152(s3)
    1ea4:	74fd                	lui	s1,0xfffff
    1ea6:	01570b33          	add	s6,a4,s5
    1eaa:	e05c                	fsw	fa5,4(s0)
    1eac:	639c                	flw	fa5,0(a5)
    1eae:	ccbe                	sw	a5,88(sp)
    1eb0:	85e2                	mv	a1,s8
    1eb2:	e41c                	fsw	fa5,8(s0)
    1eb4:	0009a787          	flw	fa5,0(s3)
    1eb8:	855a                	mv	a0,s6
    1eba:	d01e                	sw	t2,32(sp)
    1ebc:	e45c                	fsw	fa5,12(s0)
    1ebe:	4847a787          	flw	fa5,1156(a5)
    1ec2:	4a01                	li	s4,0
    1ec4:	6b85                	lui	s7,0x1
    1ec6:	10f42027          	fsw	fa5,256(s0)
    1eca:	4849a787          	flw	fa5,1156(s3)
    1ece:	10f42227          	fsw	fa5,260(s0)
    1ed2:	63dc                	flw	fa5,4(a5)
    1ed4:	10448793          	addi	a5,s1,260 # fffff104 <_eusrstack+0xdfff7104>
    1ed8:	00f40633          	add	a2,s0,a5
    1edc:	10f42427          	fsw	fa5,264(s0)
    1ee0:	0049a787          	flw	fa5,4(s3)
    1ee4:	10f42627          	fsw	fa5,268(s0)
    1ee8:	a1ffe0ef          	jal	ra,906 <mp3d_synth_pair>
    1eec:	5732                	lw	a4,44(sp)
    1eee:	57a2                	lw	a5,40(sp)
    1ef0:	85e2                	mv	a1,s8
    1ef2:	00e78533          	add	a0,a5,a4
    1ef6:	20448793          	addi	a5,s1,516
    1efa:	00f40633          	add	a2,s0,a5
    1efe:	9556                	add	a0,a0,s5
    1f00:	a07fe0ef          	jal	ra,906 <mp3d_synth_pair>
    1f04:	100c8613          	addi	a2,s9,256 # fffff100 <_eusrstack+0xdfff7100>
    1f08:	9622                	add	a2,a2,s0
    1f0a:	85e2                	mv	a1,s8
    1f0c:	8556                	mv	a0,s5
    1f0e:	9f9fe0ef          	jal	ra,906 <mp3d_synth_pair>
    1f12:	57b2                	lw	a5,44(sp)
    1f14:	200c8613          	addi	a2,s9,512
    1f18:	9622                	add	a2,a2,s0
    1f1a:	97d6                	add	a5,a5,s5
    1f1c:	853e                	mv	a0,a5
    1f1e:	85e2                	mv	a1,s8
    1f20:	de3e                	sw	a5,60(sp)
    1f22:	9e5fe0ef          	jal	ra,906 <mp3d_synth_pair>
    1f26:	47b6                	lw	a5,76(sp)
    1f28:	4f56                	lw	t5,84(sp)
    1f2a:	5382                	lw	t2,32(sp)
    1f2c:	c83e                	sw	a5,16(sp)
    1f2e:	47c6                	lw	a5,80(sp)
    1f30:	4776                	lw	a4,92(sp)
    1f32:	010c8493          	addi	s1,s9,16
    1f36:	ce3e                	sw	a5,28(sp)
    1f38:	6795                	lui	a5,0x5
    1f3a:	32878913          	addi	s2,a5,808 # 5328 <g_win.6827>
    1f3e:	47e6                	lw	a5,88(sp)
    1f40:	94a2                	add	s1,s1,s0
    1f42:	43800f93          	li	t6,1080
    1f46:	4c800813          	li	a6,1224
    1f4a:	01078633          	add	a2,a5,a6
    1f4e:	621c                	flw	fa5,0(a2)
    1f50:	6885                	lui	a7,0x1
    1f52:	fe088693          	addi	a3,a7,-32 # fe0 <mp3dec_decode_frame+0x400>
    1f56:	00d485b3          	add	a1,s1,a3
    1f5a:	e19c                	fsw	fa5,0(a1)
    1f5c:	010986b3          	add	a3,s3,a6
    1f60:	629c                	flw	fa5,0(a3)
    1f62:	fe488513          	addi	a0,a7,-28
    1f66:	9526                	add	a0,a0,s1
    1f68:	e11c                	fsw	fa5,0(a0)
    1f6a:	625c                	flw	fa5,4(a2)
    1f6c:	fe888613          	addi	a2,a7,-24
    1f70:	9626                	add	a2,a2,s1
    1f72:	e21c                	fsw	fa5,0(a2)
    1f74:	62dc                	flw	fa5,4(a3)
    1f76:	fec88693          	addi	a3,a7,-20
    1f7a:	96a6                	add	a3,a3,s1
    1f7c:	e29c                	fsw	fa5,0(a3)
    1f7e:	01f78633          	add	a2,a5,t6
    1f82:	625c                	flw	fa5,4(a2)
    1f84:	0e088693          	addi	a3,a7,224
    1f88:	96a6                	add	a3,a3,s1
    1f8a:	e29c                	fsw	fa5,0(a3)
    1f8c:	01f986b3          	add	a3,s3,t6
    1f90:	62dc                	flw	fa5,4(a3)
    1f92:	0e488513          	addi	a0,a7,228
    1f96:	9526                	add	a0,a0,s1
    1f98:	e11c                	fsw	fa5,0(a0)
    1f9a:	621c                	flw	fa5,0(a2)
    1f9c:	ee888613          	addi	a2,a7,-280
    1fa0:	9626                	add	a2,a2,s1
    1fa2:	e21c                	fsw	fa5,0(a2)
    1fa4:	629c                	flw	fa5,0(a3)
    1fa6:	767d                	lui	a2,0xfffff
    1fa8:	eec88693          	addi	a3,a7,-276
    1fac:	00092607          	flw	fa2,0(s2)
    1fb0:	00492587          	flw	fa1,4(s2)
    1fb4:	96a6                	add	a3,a3,s1
    1fb6:	1e060613          	addi	a2,a2,480 # fffff1e0 <_eusrstack+0xdfff71e0>
    1fba:	e29c                	fsw	fa5,0(a3)
    1fbc:	00c488b3          	add	a7,s1,a2
    1fc0:	4681                	li	a3,0
    1fc2:	4541                	li	a0,16
    1fc4:	00d58633          	add	a2,a1,a3
    1fc8:	621c                	flw	fa5,0(a2)
    1fca:	6605                	lui	a2,0x1
    1fcc:	f0060613          	addi	a2,a2,-256 # f00 <mp3dec_decode_frame+0x320>
    1fd0:	9636                	add	a2,a2,a3
    1fd2:	9646                	add	a2,a2,a7
    1fd4:	6218                	flw	fa4,0(a2)
    1fd6:	00dd0633          	add	a2,s10,a3
    1fda:	10e676d3          	fmul.s	fa3,fa2,fa4
    1fde:	10e5f753          	fmul.s	fa4,fa1,fa4
    1fe2:	68f5f6c3          	fmadd.s	fa3,fa1,fa5,fa3
    1fe6:	70f677c7          	fmsub.s	fa5,fa2,fa5,fa4
    1fea:	e214                	fsw	fa3,0(a2)
    1fec:	00dd8633          	add	a2,s11,a3
    1ff0:	e21c                	fsw	fa5,0(a2)
    1ff2:	0691                	addi	a3,a3,4
    1ff4:	fca698e3          	bne	a3,a0,1fc4 <__stack_size+0xfc8>
    1ff8:	76fd                	lui	a3,0xfffff
    1ffa:	2e068693          	addi	a3,a3,736 # fffff2e0 <_eusrstack+0xdfff72e0>
    1ffe:	00da0e33          	add	t3,s4,a3
    2002:	00892507          	flw	fa0,8(s2)
    2006:	6685                	lui	a3,0x1
    2008:	00c92587          	flw	fa1,12(s2)
    200c:	ee068693          	addi	a3,a3,-288 # ee0 <mp3dec_decode_frame+0x300>
    2010:	00d488b3          	add	a7,s1,a3
    2014:	fe0a0e93          	addi	t4,s4,-32
    2018:	866a                	mv	a2,s10
    201a:	856e                	mv	a0,s11
    201c:	85ee                	mv	a1,s11
    201e:	86ea                	mv	a3,s10
    2020:	41d88333          	sub	t1,a7,t4
    2024:	9372                	add	t1,t1,t3
    2026:	00032787          	flw	fa5,0(t1)
    202a:	0008a707          	flw	fa4,0(a7)
    202e:	6290                	flw	fa2,0(a3)
    2030:	10f576d3          	fmul.s	fa3,fa0,fa5
    2034:	0691                	addi	a3,a3,4
    2036:	0891                	addi	a7,a7,4
    2038:	0591                	addi	a1,a1,4
    203a:	68e5f6c3          	fmadd.s	fa3,fa1,fa4,fa3
    203e:	10e57753          	fmul.s	fa4,fa0,fa4
    2042:	00d676d3          	fadd.s	fa3,fa2,fa3
    2046:	70f5f7c7          	fmsub.s	fa5,fa1,fa5,fa4
    204a:	ffc5a707          	flw	fa4,-4(a1) # 3ffc <__smakebuf_r+0x30>
    204e:	fed6ae27          	fsw	fa3,-4(a3)
    2052:	00f777d3          	fadd.s	fa5,fa4,fa5
    2056:	fef5ae27          	fsw	fa5,-4(a1)
    205a:	fcd713e3          	bne	a4,a3,2020 <__stack_size+0x1024>
    205e:	76fd                	lui	a3,0xfffff
    2060:	3e068693          	addi	a3,a3,992 # fffff3e0 <_eusrstack+0xdfff73e0>
    2064:	00da0e33          	add	t3,s4,a3
    2068:	01092587          	flw	fa1,16(s2)
    206c:	6685                	lui	a3,0x1
    206e:	01492507          	flw	fa0,20(s2)
    2072:	de068693          	addi	a3,a3,-544 # de0 <mp3dec_decode_frame+0x200>
    2076:	00d488b3          	add	a7,s1,a3
    207a:	ee0a0e93          	addi	t4,s4,-288
    207e:	85ee                	mv	a1,s11
    2080:	86ea                	mv	a3,s10
    2082:	41d88333          	sub	t1,a7,t4
    2086:	9372                	add	t1,t1,t3
    2088:	00032707          	flw	fa4,0(t1)
    208c:	0008a787          	flw	fa5,0(a7)
    2090:	6290                	flw	fa2,0(a3)
    2092:	10e5f6d3          	fmul.s	fa3,fa1,fa4
    2096:	10e57753          	fmul.s	fa4,fa0,fa4
    209a:	0691                	addi	a3,a3,4
    209c:	0891                	addi	a7,a7,4
    209e:	0591                	addi	a1,a1,4
    20a0:	68f576c3          	fmadd.s	fa3,fa0,fa5,fa3
    20a4:	70f5f7c7          	fmsub.s	fa5,fa1,fa5,fa4
    20a8:	ffc5a707          	flw	fa4,-4(a1)
    20ac:	00d676d3          	fadd.s	fa3,fa2,fa3
    20b0:	00f777d3          	fadd.s	fa5,fa4,fa5
    20b4:	fed6ae27          	fsw	fa3,-4(a3)
    20b8:	fef5ae27          	fsw	fa5,-4(a1)
    20bc:	fcd713e3          	bne	a4,a3,2082 <__stack_size+0x1086>
    20c0:	76fd                	lui	a3,0xfffff
    20c2:	4e068693          	addi	a3,a3,1248 # fffff4e0 <_eusrstack+0xdfff74e0>
    20c6:	00da0e33          	add	t3,s4,a3
    20ca:	01892507          	flw	fa0,24(s2)
    20ce:	6685                	lui	a3,0x1
    20d0:	01c92587          	flw	fa1,28(s2)
    20d4:	ce068693          	addi	a3,a3,-800 # ce0 <mp3dec_decode_frame+0x100>
    20d8:	00d488b3          	add	a7,s1,a3
    20dc:	de0a0e93          	addi	t4,s4,-544
    20e0:	85ee                	mv	a1,s11
    20e2:	86ea                	mv	a3,s10
    20e4:	41d88333          	sub	t1,a7,t4
    20e8:	9372                	add	t1,t1,t3
    20ea:	00032787          	flw	fa5,0(t1)
    20ee:	0008a707          	flw	fa4,0(a7)
    20f2:	6290                	flw	fa2,0(a3)
    20f4:	10f576d3          	fmul.s	fa3,fa0,fa5
    20f8:	0691                	addi	a3,a3,4
    20fa:	0891                	addi	a7,a7,4
    20fc:	0591                	addi	a1,a1,4
    20fe:	68e5f6c3          	fmadd.s	fa3,fa1,fa4,fa3
    2102:	10e57753          	fmul.s	fa4,fa0,fa4
    2106:	00d676d3          	fadd.s	fa3,fa2,fa3
    210a:	70f5f7c7          	fmsub.s	fa5,fa1,fa5,fa4
    210e:	ffc5a707          	flw	fa4,-4(a1)
    2112:	fed6ae27          	fsw	fa3,-4(a3)
    2116:	00f777d3          	fadd.s	fa5,fa4,fa5
    211a:	fef5ae27          	fsw	fa5,-4(a1)
    211e:	fcd713e3          	bne	a4,a3,20e4 <__stack_size+0x10e8>
    2122:	76fd                	lui	a3,0xfffff
    2124:	5e068693          	addi	a3,a3,1504 # fffff5e0 <_eusrstack+0xdfff75e0>
    2128:	02092587          	flw	fa1,32(s2)
    212c:	02492507          	flw	fa0,36(s2)
    2130:	00da0e33          	add	t3,s4,a3
    2134:	be0b8693          	addi	a3,s7,-1056 # be0 <mp3dec_decode_frame>
    2138:	ce0a0e93          	addi	t4,s4,-800
    213c:	96a6                	add	a3,a3,s1
    213e:	88ee                	mv	a7,s11
    2140:	85ea                	mv	a1,s10
    2142:	41d68333          	sub	t1,a3,t4
    2146:	9372                	add	t1,t1,t3
    2148:	00032707          	flw	fa4,0(t1)
    214c:	629c                	flw	fa5,0(a3)
    214e:	6190                	flw	fa2,0(a1)
    2150:	10e5f6d3          	fmul.s	fa3,fa1,fa4
    2154:	10e57753          	fmul.s	fa4,fa0,fa4
    2158:	0591                	addi	a1,a1,4
    215a:	0691                	addi	a3,a3,4
    215c:	0891                	addi	a7,a7,4
    215e:	68f576c3          	fmadd.s	fa3,fa0,fa5,fa3
    2162:	70f5f7c7          	fmsub.s	fa5,fa1,fa5,fa4
    2166:	ffc8a707          	flw	fa4,-4(a7)
    216a:	00d676d3          	fadd.s	fa3,fa2,fa3
    216e:	00f777d3          	fadd.s	fa5,fa4,fa5
    2172:	fed5ae27          	fsw	fa3,-4(a1)
    2176:	fef8ae27          	fsw	fa5,-4(a7)
    217a:	fcb714e3          	bne	a4,a1,2142 <__stack_size+0x1146>
    217e:	02892507          	flw	fa0,40(s2)
    2182:	02c92587          	flw	fa1,44(s2)
    2186:	6e0c8e13          	addi	t3,s9,1760
    218a:	ae0b8693          	addi	a3,s7,-1312
    218e:	be0a0e93          	addi	t4,s4,-1056
    2192:	9e52                	add	t3,t3,s4
    2194:	96a6                	add	a3,a3,s1
    2196:	88ee                	mv	a7,s11
    2198:	85ea                	mv	a1,s10
    219a:	41d68333          	sub	t1,a3,t4
    219e:	9372                	add	t1,t1,t3
    21a0:	00032787          	flw	fa5,0(t1)
    21a4:	6298                	flw	fa4,0(a3)
    21a6:	6190                	flw	fa2,0(a1)
    21a8:	10f576d3          	fmul.s	fa3,fa0,fa5
    21ac:	0591                	addi	a1,a1,4
    21ae:	0691                	addi	a3,a3,4
    21b0:	0891                	addi	a7,a7,4
    21b2:	68e5f6c3          	fmadd.s	fa3,fa1,fa4,fa3
    21b6:	10e57753          	fmul.s	fa4,fa0,fa4
    21ba:	00d676d3          	fadd.s	fa3,fa2,fa3
    21be:	70f5f7c7          	fmsub.s	fa5,fa1,fa5,fa4
    21c2:	ffc8a707          	flw	fa4,-4(a7)
    21c6:	fed5ae27          	fsw	fa3,-4(a1)
    21ca:	00f777d3          	fadd.s	fa5,fa4,fa5
    21ce:	fef8ae27          	fsw	fa5,-4(a7)
    21d2:	fcb714e3          	bne	a4,a1,219a <__stack_size+0x119e>
    21d6:	03092587          	flw	fa1,48(s2)
    21da:	03492507          	flw	fa0,52(s2)
    21de:	7e0c8e13          	addi	t3,s9,2016
    21e2:	9e0b8693          	addi	a3,s7,-1568
    21e6:	ae0a0e93          	addi	t4,s4,-1312
    21ea:	9e52                	add	t3,t3,s4
    21ec:	96a6                	add	a3,a3,s1
    21ee:	88ee                	mv	a7,s11
    21f0:	85ea                	mv	a1,s10
    21f2:	41d68333          	sub	t1,a3,t4
    21f6:	9372                	add	t1,t1,t3
    21f8:	00032707          	flw	fa4,0(t1)
    21fc:	629c                	flw	fa5,0(a3)
    21fe:	6190                	flw	fa2,0(a1)
    2200:	10e5f6d3          	fmul.s	fa3,fa1,fa4
    2204:	10e57753          	fmul.s	fa4,fa0,fa4
    2208:	0591                	addi	a1,a1,4
    220a:	0691                	addi	a3,a3,4
    220c:	0891                	addi	a7,a7,4
    220e:	68f576c3          	fmadd.s	fa3,fa0,fa5,fa3
    2212:	70f5f7c7          	fmsub.s	fa5,fa1,fa5,fa4
    2216:	ffc8a707          	flw	fa4,-4(a7)
    221a:	00d676d3          	fadd.s	fa3,fa2,fa3
    221e:	00f777d3          	fadd.s	fa5,fa4,fa5
    2222:	fed5ae27          	fsw	fa3,-4(a1)
    2226:	fef8ae27          	fsw	fa5,-4(a7)
    222a:	fcb714e3          	bne	a4,a1,21f2 <__stack_size+0x11f6>
    222e:	03892507          	flw	fa0,56(s2)
    2232:	04090913          	addi	s2,s2,64
    2236:	8e0b8693          	addi	a3,s7,-1824
    223a:	ffc92587          	flw	fa1,-4(s2)
    223e:	9e0a0313          	addi	t1,s4,-1568
    2242:	8e0a0893          	addi	a7,s4,-1824
    2246:	96a6                	add	a3,a3,s1
    2248:	406685b3          	sub	a1,a3,t1
    224c:	95c6                	add	a1,a1,a7
    224e:	619c                	flw	fa5,0(a1)
    2250:	6298                	flw	fa4,0(a3)
    2252:	6210                	flw	fa2,0(a2)
    2254:	10f576d3          	fmul.s	fa3,fa0,fa5
    2258:	0611                	addi	a2,a2,4
    225a:	0691                	addi	a3,a3,4
    225c:	0511                	addi	a0,a0,4
    225e:	68e5f6c3          	fmadd.s	fa3,fa1,fa4,fa3
    2262:	10e57753          	fmul.s	fa4,fa0,fa4
    2266:	00d676d3          	fadd.s	fa3,fa2,fa3
    226a:	70f5f7c7          	fmsub.s	fa5,fa1,fa5,fa4
    226e:	ffc52707          	flw	fa4,-4(a0)
    2272:	fed62e27          	fsw	fa3,-4(a2)
    2276:	00f777d3          	fadd.s	fa5,fa4,fa5
    227a:	fef52e27          	fsw	fa5,-4(a0)
    227e:	fce615e3          	bne	a2,a4,2248 <__stack_size+0x124c>
    2282:	652a                	flw	fa0,136(sp)
    2284:	d6ba                	sw	a4,108(sp)
    2286:	d4c2                	sw	a6,104(sp)
    2288:	d29e                	sw	t2,100(sp)
    228a:	d0fe                	sw	t6,96(sp)
    228c:	ccfa                	sw	t5,88(sp)
    228e:	cebe                	sw	a5,92(sp)
    2290:	e32fe0ef          	jal	ra,8c2 <mp3d_scale_pcm>
    2294:	5782                	lw	a5,32(sp)
    2296:	656a                	flw	fa0,152(sp)
    2298:	1a41                	addi	s4,s4,-16
    229a:	00fb06b3          	add	a3,s6,a5
    229e:	a28a                	sh	a0,0(a3)
    22a0:	e22fe0ef          	jal	ra,8c2 <mp3d_scale_pcm>
    22a4:	47f2                	lw	a5,28(sp)
    22a6:	651a                	flw	fa0,132(sp)
    22a8:	14c1                	addi	s1,s1,-16
    22aa:	00fb06b3          	add	a3,s6,a5
    22ae:	a28a                	sh	a0,0(a3)
    22b0:	e12fe0ef          	jal	ra,8c2 <mp3d_scale_pcm>
    22b4:	5782                	lw	a5,32(sp)
    22b6:	655a                	flw	fa0,148(sp)
    22b8:	00fa86b3          	add	a3,s5,a5
    22bc:	a28a                	sh	a0,0(a3)
    22be:	e04fe0ef          	jal	ra,8c2 <mp3d_scale_pcm>
    22c2:	47f2                	lw	a5,28(sp)
    22c4:	654a                	flw	fa0,144(sp)
    22c6:	00fa86b3          	add	a3,s5,a5
    22ca:	a28a                	sh	a0,0(a3)
    22cc:	df6fe0ef          	jal	ra,8c2 <mp3d_scale_pcm>
    22d0:	47c2                	lw	a5,16(sp)
    22d2:	750a                	flw	fa0,160(sp)
    22d4:	00fb06b3          	add	a3,s6,a5
    22d8:	a28a                	sh	a0,0(a3)
    22da:	de8fe0ef          	jal	ra,8c2 <mp3d_scale_pcm>
    22de:	4f66                	lw	t5,88(sp)
    22e0:	653a                	flw	fa0,140(sp)
    22e2:	01eb06b3          	add	a3,s6,t5
    22e6:	a28a                	sh	a0,0(a3)
    22e8:	ddafe0ef          	jal	ra,8c2 <mp3d_scale_pcm>
    22ec:	47c2                	lw	a5,16(sp)
    22ee:	657a                	flw	fa0,156(sp)
    22f0:	00fa86b3          	add	a3,s5,a5
    22f4:	a28a                	sh	a0,0(a3)
    22f6:	dccfe0ef          	jal	ra,8c2 <mp3d_scale_pcm>
    22fa:	5782                	lw	a5,32(sp)
    22fc:	5396                	lw	t2,100(sp)
    22fe:	4f66                	lw	t5,88(sp)
    2300:	4706                	lw	a4,64(sp)
    2302:	979e                	add	a5,a5,t2
    2304:	d03e                	sw	a5,32(sp)
    2306:	4786                	lw	a5,64(sp)
    2308:	01ea86b3          	add	a3,s5,t5
    230c:	a28a                	sh	a0,0(a3)
    230e:	9f3e                	add	t5,t5,a5
    2310:	47f2                	lw	a5,28(sp)
    2312:	5826                	lw	a6,104(sp)
    2314:	f1000693          	li	a3,-240
    2318:	97ba                	add	a5,a5,a4
    231a:	ce3e                	sw	a5,28(sp)
    231c:	47c2                	lw	a5,16(sp)
    231e:	5f86                	lw	t6,96(sp)
    2320:	04880813          	addi	a6,a6,72
    2324:	979e                	add	a5,a5,t2
    2326:	c83e                	sw	a5,16(sp)
    2328:	fb8f8f93          	addi	t6,t6,-72 # 4fb8 <g_scf_mixed.6398+0x34>
    232c:	47f6                	lw	a5,92(sp)
    232e:	5736                	lw	a4,108(sp)
    2330:	c0da1de3          	bne	s4,a3,1f4a <__stack_size+0xf4e>
    2334:	56b2                	lw	a3,44(sp)
    2336:	5672                	lw	a2,60(sp)
    2338:	20040413          	addi	s0,s0,512
    233c:	07a1                	addi	a5,a5,8
    233e:	00c68ab3          	add	s5,a3,a2
    2342:	46a6                	lw	a3,72(sp)
    2344:	09a1                	addi	s3,s3,8
    2346:	b48698e3          	bne	a3,s0,1e96 <__stack_size+0xe9a>
    234a:	77f1                	lui	a5,0xffffc
    234c:	658d                	lui	a1,0x3
    234e:	4705                	li	a4,1
    2350:	09478793          	addi	a5,a5,148 # ffffc094 <_eusrstack+0xdfff4094>
    2354:	05f1                	addi	a1,a1,28
    2356:	38ec1363          	bne	s8,a4,26dc <__stack_size+0x16e0>
    235a:	6711                	lui	a4,0x4
    235c:	1894                	addi	a3,sp,112
    235e:	0741                	addi	a4,a4,16
    2360:	9736                	add	a4,a4,a3
    2362:	97ba                	add	a5,a5,a4
    2364:	4712                	lw	a4,4(sp)
    2366:	95be                	add	a1,a1,a5
    2368:	6785                	lui	a5,0x1
    236a:	90078793          	addi	a5,a5,-1792 # 900 <mp3d_scale_pcm+0x3e>
    236e:	4692                	lw	a3,4(sp)
    2370:	97ba                	add	a5,a5,a4
    2372:	6709                	lui	a4,0x2
    2374:	80070713          	addi	a4,a4,-2048 # 1800 <__stack_size+0x804>
    2378:	9736                	add	a4,a4,a3
    237a:	619c                	flw	fa5,0(a1)
    237c:	07a1                	addi	a5,a5,8
    237e:	05a1                	addi	a1,a1,8
    2380:	fef7ac27          	fsw	fa5,-8(a5)
    2384:	fee79be3          	bne	a5,a4,237a <__stack_size+0x137e>
    2388:	47e2                	lw	a5,24(sp)
    238a:	0785                	addi	a5,a5,1
    238c:	cc3e                	sw	a5,24(sp)
    238e:	47b2                	lw	a5,12(sp)
    2390:	4798                	lw	a4,8(a5)
    2392:	48000793          	li	a5,1152
    2396:	02e787b3          	mul	a5,a5,a4
    239a:	5712                	lw	a4,36(sp)
    239c:	97ba                	add	a5,a5,a4
    239e:	d23e                	sw	a5,36(sp)
    23a0:	47a2                	lw	a5,8(sp)
    23a2:	4762                	lw	a4,24(sp)
    23a4:	339c                	lbu	a5,1(a5)
    23a6:	8ba1                	andi	a5,a5,8
    23a8:	00f037b3          	snez	a5,a5
    23ac:	0785                	addi	a5,a5,1
    23ae:	00f74463          	blt	a4,a5,23b6 <__stack_size+0x13ba>
    23b2:	da9fe06f          	j	115a <__stack_size+0x15e>
    23b6:	6791                	lui	a5,0x4
    23b8:	1898                	addi	a4,sp,112
    23ba:	7971                	lui	s2,0xffffc
    23bc:	07c1                	addi	a5,a5,16
    23be:	97ba                	add	a5,a5,a4
    23c0:	6405                	lui	s0,0x1
    23c2:	09490913          	addi	s2,s2,148 # ffffc094 <_eusrstack+0xdfff4094>
    23c6:	993e                	add	s2,s2,a5
    23c8:	b7c40513          	addi	a0,s0,-1156 # b7c <hdr_frame_bytes+0x2a>
    23cc:	20040613          	addi	a2,s0,512
    23d0:	4581                	li	a1,0
    23d2:	954a                	add	a0,a0,s2
    23d4:	e4dfd0ef          	jal	ra,220 <memset>
    23d8:	47b2                	lw	a5,12(sp)
    23da:	4762                	lw	a4,24(sp)
    23dc:	b0c40413          	addi	s0,s0,-1268
    23e0:	479c                	lw	a5,8(a5)
    23e2:	944a                	add	s0,s0,s2
    23e4:	d04a                	sw	s2,32(sp)
    23e6:	ce3e                	sw	a5,28(sp)
    23e8:	02e787b3          	mul	a5,a5,a4
    23ec:	4771                	li	a4,28
    23ee:	8b4a                	mv	s6,s2
    23f0:	4981                	li	s3,0
    23f2:	02e787b3          	mul	a5,a5,a4
    23f6:	943e                	add	s0,s0,a5
    23f8:	000067b7          	lui	a5,0x6
    23fc:	8c87a487          	flw	fs1,-1848(a5) # 58c8 <halfrate.6375+0x1e0>
    2400:	00f40493          	addi	s1,s0,15
    2404:	47f2                	lw	a5,28(sp)
    2406:	00f9d463          	bge	s3,a5,240e <__stack_size+0x1412>
    240a:	df5fe06f          	j	11fe <__stack_size+0x202>
    240e:	4712                	lw	a4,4(sp)
    2410:	6789                	lui	a5,0x2
    2412:	97ba                	add	a5,a5,a4
    2414:	80b7c783          	lbu	a5,-2037(a5) # 180b <__stack_size+0x80f>
    2418:	0107f713          	andi	a4,a5,16
    241c:	fa070663          	beqz	a4,1bc8 <__stack_size+0xbcc>
    2420:	3448                	lbu	a0,13(s0)
    2422:	247c                	lbu	a5,14(s0)
    2424:	46d2                	lw	a3,20(sp)
    2426:	00f508b3          	add	a7,a0,a5
    242a:	e391                	bnez	a5,242e <__stack_size+0x1432>
    242c:	4685                	li	a3,1
    242e:	6611                	lui	a2,0x4
    2430:	7771                	lui	a4,0xffffc
    2432:	0641                	addi	a2,a2,16
    2434:	188c                	addi	a1,sp,112
    2436:	962e                	add	a2,a2,a1
    2438:	09470713          	addi	a4,a4,148 # ffffc094 <_eusrstack+0xdfff4094>
    243c:	9732                	add	a4,a4,a2
    243e:	00042803          	lw	a6,0(s0)
    2442:	6605                	lui	a2,0x1
    2444:	f0000753          	fmv.w.x	fa4,zero
    2448:	57fd                	li	a5,-1
    244a:	47c60613          	addi	a2,a2,1148 # 147c <__stack_size+0x480>
    244e:	cf3e                	sw	a5,156(sp)
    2450:	cd3e                	sw	a5,152(sp)
    2452:	cb3e                	sw	a5,148(sp)
    2454:	963a                	add	a2,a2,a4
    2456:	4781                	li	a5,0
    2458:	4e0d                	li	t3,3
    245a:	7ef1                	lui	t4,0xffffc
    245c:	d6f88a63          	beq	a7,a5,19d0 <__stack_size+0x9d4>
    2460:	00f80733          	add	a4,a6,a5
    2464:	230c                	lbu	a1,0(a4)
    2466:	4301                	li	t1,0
    2468:	8732                	mv	a4,a2
    246a:	d2aff06f          	j	1994 <__stack_size+0x998>
    246e:	00271f13          	slli	t5,a4,0x2
    2472:	4881                	li	a7,0
    2474:	85b2                	mv	a1,a2
    2476:	86f2                	mv	a3,t3
    2478:	629c                	flw	fa5,0(a3)
    247a:	01e68833          	add	a6,a3,t5
    247e:	05b1                	addi	a1,a1,12
    2480:	fef5aa27          	fsw	fa5,-12(a1) # 2ff4 <handle_reset+0x30>
    2484:	00082787          	flw	fa5,0(a6)
    2488:	987a                	add	a6,a6,t5
    248a:	0885                	addi	a7,a7,1
    248c:	fef5ac27          	fsw	fa5,-8(a1)
    2490:	00082787          	flw	fa5,0(a6)
    2494:	0691                	addi	a3,a3,4
    2496:	fef5ae27          	fsw	fa5,-4(a1)
    249a:	fce8cfe3          	blt	a7,a4,2478 <__stack_size+0x147c>
    249e:	03d70733          	mul	a4,a4,t4
    24a2:	030d                	addi	t1,t1,3
    24a4:	963a                	add	a2,a2,a4
    24a6:	9e3a                	add	t3,t3,a4
    24a8:	fbcff06f          	j	1c64 <__stack_size+0xc68>
    24ac:	6795                	lui	a5,0x5
    24ae:	ffc70593          	addi	a1,a4,-4
    24b2:	b2078693          	addi	a3,a5,-1248 # 4b20 <g_aa.6643>
    24b6:	863a                	mv	a2,a4
    24b8:	02070513          	addi	a0,a4,32
    24bc:	6198                	flw	fa4,0(a1)
    24be:	7290                	flw	fa2,32(a3)
    24c0:	628c                	flw	fa1,0(a3)
    24c2:	621c                	flw	fa5,0(a2)
    24c4:	10c776d3          	fmul.s	fa3,fa4,fa2
    24c8:	10b77753          	fmul.s	fa4,fa4,fa1
    24cc:	0611                	addi	a2,a2,4
    24ce:	15f1                	addi	a1,a1,-4
    24d0:	0691                	addi	a3,a3,4
    24d2:	68b7f6c7          	fmsub.s	fa3,fa5,fa1,fa3
    24d6:	70c7f7c3          	fmadd.s	fa5,fa5,fa2,fa4
    24da:	fed62e27          	fsw	fa3,-4(a2)
    24de:	e1dc                	fsw	fa5,4(a1)
    24e0:	fcc51ee3          	bne	a0,a2,24bc <__stack_size+0x14c0>
    24e4:	1d7d                	addi	s10,s10,-1
    24e6:	04870713          	addi	a4,a4,72
    24ea:	f94ff06f          	j	1c7e <__stack_size+0xc82>
    24ee:	1d75                	addi	s10,s10,-3
    24f0:	04800613          	li	a2,72
    24f4:	001d3d13          	seqz	s10,s10
    24f8:	02cd0d33          	mul	s10,s10,a2
    24fc:	6615                	lui	a2,0x5
    24fe:	b9c60613          	addi	a2,a2,-1124 # 4b9c <g_mdct_window.6738>
    2502:	85e2                	mv	a1,s8
    2504:	855e                	mv	a0,s7
    2506:	966a                	add	a2,a2,s10
    2508:	aa2fe0ef          	jal	ra,7aa <L3_imdct36>
    250c:	82dff06f          	j	1d38 <__stack_size+0xd3c>
    2510:	6705                	lui	a4,0x1
    2512:	35c70713          	addi	a4,a4,860 # 135c <__stack_size+0x360>
    2516:	9746                	add	a4,a4,a7
    2518:	4e01                	li	t3,0
    251a:	43c9                	li	t2,18
    251c:	6691                	lui	a3,0x4
    251e:	06c1                	addi	a3,a3,16
    2520:	1880                	addi	s0,sp,112
    2522:	82070513          	addi	a0,a4,-2016
    2526:	96a2                	add	a3,a3,s0
    2528:	87aa                	mv	a5,a0
    252a:	c5870613          	addi	a2,a4,-936
    252e:	268f8593          	addi	a1,t6,616
    2532:	969a                	add	a3,a3,t1
    2534:	a1870093          	addi	ra,a4,-1512
    2538:	48052387          	flw	ft7,1152(a0)
    253c:	48062607          	flw	fa2,1152(a2)
    2540:	6118                	flw	fa4,0(a0)
    2542:	621c                	flw	fa5,0(a2)
    2544:	fb860613          	addi	a2,a2,-72
    2548:	00c776d3          	fadd.s	fa3,fa4,fa2
    254c:	0077f853          	fadd.s	fa6,fa5,ft7
    2550:	08c77753          	fsub.s	fa4,fa4,fa2
    2554:	61d0                	flw	fa2,4(a1)
    2556:	0877f7d3          	fsub.s	fa5,fa5,ft7
    255a:	0005a387          	flw	ft7,0(a1)
    255e:	0691                	addi	a3,a3,4
    2560:	10c77753          	fmul.s	fa4,fa4,fa2
    2564:	0106f653          	fadd.s	fa2,fa3,fa6
    2568:	0906f6d3          	fsub.s	fa3,fa3,fa6
    256c:	04850513          	addi	a0,a0,72
    2570:	05b1                	addi	a1,a1,12
    2572:	fec6ae27          	fsw	fa2,-4(a3) # 3ffc <__smakebuf_r+0x30>
    2576:	ffc5a607          	flw	fa2,-4(a1)
    257a:	10c6f6d3          	fmul.s	fa3,fa3,fa2
    257e:	eed4                	fsw	fa3,28(a3)
    2580:	7077f6c3          	fmadd.s	fa3,fa5,ft7,fa4
    2584:	7077f7cb          	fnmsub.s	fa5,fa5,ft7,fa4
    2588:	fed4                	fsw	fa3,60(a3)
    258a:	10c7f7d3          	fmul.s	fa5,fa5,fa2
    258e:	eefc                	fsw	fa5,92(a3)
    2590:	fac094e3          	bne	ra,a2,2538 <__stack_size+0x153c>
    2594:	6691                	lui	a3,0x4
    2596:	06c1                	addi	a3,a3,16
    2598:	1890                	addi	a2,sp,112
    259a:	96b2                	add	a3,a3,a2
    259c:	969a                	add	a3,a3,t1
    259e:	6298                	flw	fa4,0(a3)
    25a0:	0106ae07          	flw	ft8,16(a3) # 4010 <__smakebuf_r+0x44>
    25a4:	0146af07          	flw	ft10,20(a3)
    25a8:	6e94                	flw	fa3,24(a3)
    25aa:	62dc                	flw	fa5,4(a3)
    25ac:	0086a807          	flw	fa6,8(a3)
    25b0:	00c6a887          	flw	fa7,12(a3)
    25b4:	6ed0                	flw	fa2,28(a3)
    25b6:	08d7f3d3          	fsub.s	ft7,fa5,fa3
    25ba:	00d7f7d3          	fadd.s	fa5,fa5,fa3
    25be:	08c77ed3          	fsub.s	ft9,fa4,fa2
    25c2:	09e876d3          	fsub.s	fa3,fa6,ft10
    25c6:	00c77653          	fadd.s	fa2,fa4,fa2
    25ca:	01e87853          	fadd.s	fa6,fa6,ft10
    25ce:	09c8f753          	fsub.s	fa4,fa7,ft8
    25d2:	01c8f8d3          	fadd.s	fa7,fa7,ft8
    25d6:	02068693          	addi	a3,a3,32
    25da:	00e6f753          	fadd.s	fa4,fa3,fa4
    25de:	09167e53          	fsub.s	ft8,fa2,fa7
    25e2:	01167653          	fadd.s	fa2,fa2,fa7
    25e6:	0107f8d3          	fadd.s	fa7,fa5,fa6
    25ea:	00d3f6d3          	fadd.s	fa3,ft7,fa3
    25ee:	0907f7d3          	fsub.s	fa5,fa5,fa6
    25f2:	01167f53          	fadd.s	ft10,fa2,fa7
    25f6:	09167653          	fsub.s	fa2,fa2,fa7
    25fa:	e8b6f84b          	fnmsub.s	fa6,fa3,fa1,ft9
    25fe:	e8b6f6c3          	fmadd.s	fa3,fa3,fa1,ft9
    2602:	01c7f7d3          	fadd.s	fa5,fa5,ft8
    2606:	ffe6a027          	fsw	ft10,-32(a3)
    260a:	10b67653          	fmul.s	fa2,fa2,fa1
    260e:	fec6a827          	fsw	fa2,-16(a3)
    2612:	007ef653          	fadd.s	fa2,ft9,ft7
    2616:	70a6774b          	fnmsub.s	fa4,fa2,fa0,fa4
    261a:	60077643          	fmadd.s	fa2,fa4,ft0,fa2
    261e:	00d673d3          	fadd.s	ft7,fa2,fa3
    2622:	70a6774b          	fnmsub.s	fa4,fa2,fa0,fa4
    2626:	08c6f6d3          	fsub.s	fa3,fa3,fa2
    262a:	1013f3d3          	fmul.s	ft7,ft7,ft1
    262e:	1066f6d3          	fmul.s	fa3,fa3,ft6
    2632:	fe76a227          	fsw	ft7,-28(a3)
    2636:	e0b7f3c3          	fmadd.s	ft7,fa5,fa1,ft8
    263a:	e0b7f7cb          	fnmsub.s	fa5,fa5,fa1,ft8
    263e:	fed6ae27          	fsw	fa3,-4(a3)
    2642:	1023f3d3          	fmul.s	ft7,ft7,ft2
    2646:	1057f7d3          	fmul.s	fa5,fa5,ft5
    264a:	fe76a427          	fsw	ft7,-24(a3)
    264e:	08e873d3          	fsub.s	ft7,fa6,fa4
    2652:	01077753          	fadd.s	fa4,fa4,fa6
    2656:	fef6ac27          	fsw	fa5,-8(a3)
    265a:	1033f3d3          	fmul.s	ft7,ft7,ft3
    265e:	10477753          	fmul.s	fa4,fa4,ft4
    2662:	fe76a627          	fsw	ft7,-20(a3)
    2666:	fee6aa27          	fsw	fa4,-12(a3)
    266a:	f2569ae3          	bne	a3,t0,259e <__stack_size+0x15a2>
    266e:	86fa                	mv	a3,t5
    2670:	629c                	flw	fa5,0(a3)
    2672:	62b8                	flw	fa4,64(a3)
    2674:	72f4                	flw	fa3,100(a3)
    2676:	e39c                	fsw	fa5,0(a5)
    2678:	72bc                	flw	fa5,96(a3)
    267a:	72d0                	flw	fa2,36(a3)
    267c:	12078793          	addi	a5,a5,288
    2680:	00e7f753          	fadd.s	fa4,fa5,fa4
    2684:	0691                	addi	a3,a3,4
    2686:	00d77753          	fadd.s	fa4,fa4,fa3
    268a:	f2e7a427          	fsw	fa4,-216(a5)
    268e:	6ed8                	flw	fa4,28(a3)
    2690:	00c77753          	fadd.s	fa4,fa4,fa2
    2694:	f6e7a827          	fsw	fa4,-144(a5)
    2698:	62b8                	flw	fa4,64(a3)
    269a:	00e7f7d3          	fadd.s	fa5,fa5,fa4
    269e:	00d7f7d3          	fadd.s	fa5,fa5,fa3
    26a2:	faf7ac27          	fsw	fa5,-72(a5)
    26a6:	fce795e3          	bne	a5,a4,2670 <__stack_size+0x1674>
    26aa:	77ca                	flw	fa5,176(sp)
    26ac:	11012707          	flw	fa4,272(sp)
    26b0:	0e05                	addi	t3,t3,1
    26b2:	e39c                	fsw	fa5,0(a5)
    26b4:	77ce                	flw	fa5,240(sp)
    26b6:	0ce7ac27          	fsw	fa4,216(a5)
    26ba:	00478713          	addi	a4,a5,4
    26be:	00e7f7d3          	fadd.s	fa5,fa5,fa4
    26c2:	e7bc                	fsw	fa5,72(a5)
    26c4:	67ce                	flw	fa5,208(sp)
    26c6:	08f7a827          	fsw	fa5,144(a5)
    26ca:	e47e19e3          	bne	t3,t2,251c <__stack_size+0x1520>
    26ce:	6785                	lui	a5,0x1
    26d0:	90078793          	addi	a5,a5,-1792 # 900 <mp3d_scale_pcm+0x3e>
    26d4:	0805                	addi	a6,a6,1
    26d6:	98be                	add	a7,a7,a5
    26d8:	f0eff06f          	j	1de6 <__stack_size+0xdea>
    26dc:	6711                	lui	a4,0x4
    26de:	1894                	addi	a3,sp,112
    26e0:	0741                	addi	a4,a4,16
    26e2:	9736                	add	a4,a4,a3
    26e4:	5552                	lw	a0,52(sp)
    26e6:	97ba                	add	a5,a5,a4
    26e8:	6605                	lui	a2,0x1
    26ea:	f0060613          	addi	a2,a2,-256 # f00 <mp3dec_decode_frame+0x320>
    26ee:	95be                	add	a1,a1,a5
    26f0:	100010ef          	jal	ra,37f0 <memcpy>
    26f4:	b951                	j	2388 <__stack_size+0x138c>
    26f6:	000067b7          	lui	a5,0x6
    26fa:	cc02                	sw	zero,24(sp)
    26fc:	8bc7a407          	flw	fs0,-1860(a5) # 58bc <halfrate.6375+0x1d4>
    2700:	b145                	j	23a0 <__stack_size+0x13a4>
    2702:	e0140413          	addi	s0,s0,-511
    2706:	97a2                	add	a5,a5,s0
    2708:	1ff00413          	li	s0,511
    270c:	6711                	lui	a4,0x4
    270e:	1894                	addi	a3,sp,112
    2710:	0741                	addi	a4,a4,16
    2712:	9736                	add	a4,a4,a3
    2714:	75f1                	lui	a1,0xffffc
    2716:	95ba                	add	a1,a1,a4
    2718:	5562                	lw	a0,56(sp)
    271a:	0a058593          	addi	a1,a1,160 # ffffc0a0 <_eusrstack+0xdfff40a0>
    271e:	8622                	mv	a2,s0
    2720:	95be                	add	a1,a1,a5
    2722:	0ce010ef          	jal	ra,37f0 <memcpy>
    2726:	a69fe06f          	j	118e <__stack_size+0x192>
    272a:	019d07b3          	add	a5,s10,s9
    272e:	00f95463          	bge	s2,a5,2736 <__stack_size+0x173a>
    2732:	d82fe06f          	j	cb4 <mp3dec_decode_frame+0xd4>
    2736:	4b81                	li	s7,0
    2738:	4d81                	li	s11,0
    273a:	41a90c33          	sub	s8,s2,s10
    273e:	01b486b3          	add	a3,s1,s11
    2742:	85a2                	mv	a1,s0
    2744:	8536                	mv	a0,a3
    2746:	c836                	sw	a3,16(sp)
    2748:	c0afe0ef          	jal	ra,b52 <hdr_frame_bytes>
    274c:	46c2                	lw	a3,16(sp)
    274e:	c42a                	sw	a0,8(sp)
    2750:	8536                	mv	a0,a3
    2752:	b0efe0ef          	jal	ra,a60 <hdr_padding>
    2756:	4722                	lw	a4,8(sp)
    2758:	953a                	add	a0,a0,a4
    275a:	9daa                	add	s11,s11,a0
    275c:	003d8713          	addi	a4,s11,3
    2760:	01875463          	bge	a4,s8,2768 <__stack_size+0x176c>
    2764:	da4fe06f          	j	d08 <mp3dec_decode_frame+0x128>
    2768:	000b9463          	bnez	s7,2770 <__stack_size+0x1774>
    276c:	d48fe06f          	j	cb4 <mp3dec_decode_frame+0xd4>
    2770:	000c8463          	beqz	s9,2778 <__stack_size+0x177c>
    2774:	db4fe06f          	j	d28 <mp3dec_decode_frame+0x148>
    2778:	8cea                	mv	s9,s10
    277a:	d02fe06f          	j	c7c <mp3dec_decode_frame+0x9c>

0000277e <Dac_Init>:
    277e:	a73fd2ef          	jal	t0,1f0 <__riscv_save_0>
    2782:	1101                	addi	sp,sp,-32
    2784:	4585                	li	a1,1
    2786:	4511                	li	a0,4
    2788:	c202                	sw	zero,4(sp)
    278a:	c402                	sw	zero,8(sp)
    278c:	c602                	sw	zero,12(sp)
    278e:	c802                	sw	zero,16(sp)
    2790:	ca02                	sw	zero,20(sp)
    2792:	cc02                	sw	zero,24(sp)
    2794:	ce02                	sw	zero,28(sp)
    2796:	4b1000ef          	jal	ra,3446 <RCC_APB2PeriphClockCmd>
    279a:	4585                	li	a1,1
    279c:	20000537          	lui	a0,0x20000
    27a0:	4c5000ef          	jal	ra,3464 <RCC_APB1PeriphClockCmd>
    27a4:	02000793          	li	a5,32
    27a8:	40011537          	lui	a0,0x40011
    27ac:	827c                	sh	a5,4(sp)
    27ae:	004c                	addi	a1,sp,4
    27b0:	478d                	li	a5,3
    27b2:	80050513          	addi	a0,a0,-2048 # 40010800 <_eusrstack+0x20008800>
    27b6:	c43e                	sw	a5,8(sp)
    27b8:	c602                	sw	zero,12(sp)
    27ba:	229000ef          	jal	ra,31e2 <GPIO_Init>
    27be:	02c00793          	li	a5,44
    27c2:	080c                	addi	a1,sp,16
    27c4:	4541                	li	a0,16
    27c6:	c83e                	sw	a5,16(sp)
    27c8:	ca02                	sw	zero,20(sp)
    27ca:	ce02                	sw	zero,28(sp)
    27cc:	087000ef          	jal	ra,3052 <DAC_Init>
    27d0:	4585                	li	a1,1
    27d2:	4541                	li	a0,16
    27d4:	0af000ef          	jal	ra,3082 <DAC_Cmd>
    27d8:	4585                	li	a1,1
    27da:	4541                	li	a0,16
    27dc:	0d3000ef          	jal	ra,30ae <DAC_DMACmd>
    27e0:	6105                	addi	sp,sp,32
    27e2:	a33fd06f          	j	214 <__riscv_restore_0>

000027e6 <Dac_Dma_Init>:
    27e6:	a0bfd2ef          	jal	t0,1f0 <__riscv_save_0>
    27ea:	7179                	addi	sp,sp,-48
    27ec:	02c00613          	li	a2,44
    27f0:	4581                	li	a1,0
    27f2:	0048                	addi	a0,sp,4
    27f4:	a2dfd0ef          	jal	ra,220 <memset>
    27f8:	4585                	li	a1,1
    27fa:	4509                	li	a0,2
    27fc:	42d000ef          	jal	ra,3428 <RCC_AHBPeriphClockCmd>
    2800:	0048                	addi	a0,sp,4
    2802:	11b000ef          	jal	ra,311c <DMA_StructInit>
    2806:	400077b7          	lui	a5,0x40007
    280a:	41478793          	addi	a5,a5,1044 # 40007414 <_eusrstack+0x1ffff414>
    280e:	c23e                	sw	a5,4(sp)
    2810:	84c18793          	addi	a5,gp,-1972 # 200000cc <DAC_Value>
    2814:	c43e                	sw	a5,8(sp)
    2816:	47c1                	li	a5,16
    2818:	c63e                	sw	a5,12(sp)
    281a:	08000793          	li	a5,128
    281e:	c83e                	sw	a5,16(sp)
    2820:	cc3e                	sw	a5,24(sp)
    2822:	10000793          	li	a5,256
    2826:	ce3e                	sw	a5,28(sp)
    2828:	40000793          	li	a5,1024
    282c:	40020437          	lui	s0,0x40020
    2830:	d03e                	sw	a5,32(sp)
    2832:	02000793          	li	a5,32
    2836:	d23e                	sw	a5,36(sp)
    2838:	004c                	addi	a1,sp,4
    283a:	678d                	lui	a5,0x3
    283c:	44440513          	addi	a0,s0,1092 # 40020444 <_eusrstack+0x20018444>
    2840:	d43e                	sw	a5,40(sp)
    2842:	ca02                	sw	zero,20(sp)
    2844:	d602                	sw	zero,44(sp)
    2846:	09f000ef          	jal	ra,30e4 <DMA_Init>
    284a:	44440513          	addi	a0,s0,1092
    284e:	4605                	li	a2,1
    2850:	4589                	li	a1,2
    2852:	10d000ef          	jal	ra,315e <DMA_ITConfig>
    2856:	4605                	li	a2,1
    2858:	44440513          	addi	a0,s0,1092
    285c:	4591                	li	a1,4
    285e:	101000ef          	jal	ra,315e <DMA_ITConfig>
    2862:	6785                	lui	a5,0x1
    2864:	e000e737          	lui	a4,0xe000e
    2868:	80078793          	addi	a5,a5,-2048 # 800 <L3_imdct36+0x56>
    286c:	10f72423          	sw	a5,264(a4) # e000e108 <_eusrstack+0xc0006108>
    2870:	4585                	li	a1,1
    2872:	44440513          	addi	a0,s0,1092
    2876:	0d5000ef          	jal	ra,314a <DMA_Cmd>
    287a:	6145                	addi	sp,sp,48
    287c:	999fd06f          	j	214 <__riscv_restore_0>

00002880 <DMA2_Channel4_IRQHandler>:
    2880:	7159                	addi	sp,sp,-112
    2882:	10004537          	lui	a0,0x10004
    2886:	d6a2                	sw	s0,108(sp)
    2888:	d4a6                	sw	s1,104(sp)
    288a:	d2ca                	sw	s2,100(sp)
    288c:	d0ce                	sw	s3,96(sp)
    288e:	ced2                	sw	s4,92(sp)
    2890:	e682                	fsw	ft0,76(sp)
    2892:	e486                	fsw	ft1,72(sp)
    2894:	e28a                	fsw	ft2,68(sp)
    2896:	e08e                	fsw	ft3,64(sp)
    2898:	fe12                	fsw	ft4,60(sp)
    289a:	fc16                	fsw	ft5,56(sp)
    289c:	fa1a                	fsw	ft6,52(sp)
    289e:	f81e                	fsw	ft7,48(sp)
    28a0:	f62a                	fsw	fa0,44(sp)
    28a2:	f42e                	fsw	fa1,40(sp)
    28a4:	f232                	fsw	fa2,36(sp)
    28a6:	f036                	fsw	fa3,32(sp)
    28a8:	ee3a                	fsw	fa4,28(sp)
    28aa:	ec3e                	fsw	fa5,24(sp)
    28ac:	ea42                	fsw	fa6,20(sp)
    28ae:	e846                	fsw	fa7,16(sp)
    28b0:	e672                	fsw	ft8,12(sp)
    28b2:	e476                	fsw	ft9,8(sp)
    28b4:	e27a                	fsw	ft10,4(sp)
    28b6:	e07e                	fsw	ft11,0(sp)
    28b8:	117000ef          	jal	ra,31ce <DMA_GetITStatus>
    28bc:	c139                	beqz	a0,2902 <DMA2_Channel4_IRQHandler+0x82>
    28be:	4705                	li	a4,1
    28c0:	80e1a223          	sw	a4,-2044(gp) # 20000084 <flag_hb>
    28c4:	82c18793          	addi	a5,gp,-2004 # 200000ac <is>
    28c8:	0007a023          	sw	zero,0(a5)
    28cc:	82c18413          	addi	s0,gp,-2004 # 200000ac <is>
    28d0:	03f00913          	li	s2,63
    28d4:	84c18493          	addi	s1,gp,-1972 # 200000cc <DAC_Value>
    28d8:	401c                	lw	a5,0(s0)
    28da:	0cf97063          	bgeu	s2,a5,299a <DMA2_Channel4_IRQHandler+0x11a>
    28de:	10004537          	lui	a0,0x10004
    28e2:	0f7000ef          	jal	ra,31d8 <DMA_ClearITPendingBit>
    28e6:	8281c703          	lbu	a4,-2008(gp) # 200000a8 <i.6997>
    28ea:	82818793          	addi	a5,gp,-2008 # 200000a8 <i.6997>
    28ee:	c761                	beqz	a4,29b6 <DMA2_Channel4_IRQHandler+0x136>
    28f0:	4701                	li	a4,0
    28f2:	4601                	li	a2,0
    28f4:	10000593          	li	a1,256
    28f8:	40011537          	lui	a0,0x40011
    28fc:	a398                	sb	a4,0(a5)
    28fe:	1a5000ef          	jal	ra,32a2 <GPIO_WriteBit>
    2902:	10002537          	lui	a0,0x10002
    2906:	0c9000ef          	jal	ra,31ce <DMA_GetITStatus>
    290a:	cd21                	beqz	a0,2962 <DMA2_Channel4_IRQHandler+0xe2>
    290c:	200007b7          	lui	a5,0x20000
    2910:	4705                	li	a4,1
    2912:	08e7a023          	sw	a4,128(a5) # 20000080 <flag_cb>
    2916:	82c18793          	addi	a5,gp,-2004 # 200000ac <is>
    291a:	04000713          	li	a4,64
    291e:	c398                	sw	a4,0(a5)
    2920:	83018793          	addi	a5,gp,-2000 # 200000b0 <ks>
    2924:	0007a023          	sw	zero,0(a5)
    2928:	82c18413          	addi	s0,gp,-2004 # 200000ac <is>
    292c:	83018493          	addi	s1,gp,-2000 # 200000b0 <ks>
    2930:	07f00993          	li	s3,127
    2934:	84c18913          	addi	s2,gp,-1972 # 200000cc <DAC_Value>
    2938:	401c                	lw	a5,0(s0)
    293a:	08f9f163          	bgeu	s3,a5,29bc <DMA2_Channel4_IRQHandler+0x13c>
    293e:	10002537          	lui	a0,0x10002
    2942:	097000ef          	jal	ra,31d8 <DMA_ClearITPendingBit>
    2946:	8281c703          	lbu	a4,-2008(gp) # 200000a8 <i.6997>
    294a:	82818793          	addi	a5,gp,-2008 # 200000a8 <i.6997>
    294e:	c749                	beqz	a4,29d8 <DMA2_Channel4_IRQHandler+0x158>
    2950:	4701                	li	a4,0
    2952:	4601                	li	a2,0
    2954:	10000593          	li	a1,256
    2958:	40011537          	lui	a0,0x40011
    295c:	a398                	sb	a4,0(a5)
    295e:	145000ef          	jal	ra,32a2 <GPIO_WriteBit>
    2962:	5436                	lw	s0,108(sp)
    2964:	54a6                	lw	s1,104(sp)
    2966:	5916                	lw	s2,100(sp)
    2968:	5986                	lw	s3,96(sp)
    296a:	4a76                	lw	s4,92(sp)
    296c:	6036                	flw	ft0,76(sp)
    296e:	60a6                	flw	ft1,72(sp)
    2970:	6116                	flw	ft2,68(sp)
    2972:	6186                	flw	ft3,64(sp)
    2974:	7272                	flw	ft4,60(sp)
    2976:	72e2                	flw	ft5,56(sp)
    2978:	7352                	flw	ft6,52(sp)
    297a:	73c2                	flw	ft7,48(sp)
    297c:	7532                	flw	fa0,44(sp)
    297e:	75a2                	flw	fa1,40(sp)
    2980:	7612                	flw	fa2,36(sp)
    2982:	7682                	flw	fa3,32(sp)
    2984:	6772                	flw	fa4,28(sp)
    2986:	67e2                	flw	fa5,24(sp)
    2988:	6852                	flw	fa6,20(sp)
    298a:	68c2                	flw	fa7,16(sp)
    298c:	6e32                	flw	ft8,12(sp)
    298e:	6ea2                	flw	ft9,8(sp)
    2990:	6f12                	flw	ft10,4(sp)
    2992:	6f82                	flw	ft11,0(sp)
    2994:	6165                	addi	sp,sp,112
    2996:	30200073          	mret
    299a:	400c                	lw	a1,0(s0)
    299c:	34c18513          	addi	a0,gp,844 # 20000bcc <audio_samples>
    29a0:	0586                	slli	a1,a1,0x1
    29a2:	95a6                	add	a1,a1,s1
    29a4:	997fd0ef          	jal	ra,33a <get_sample_FIFO>
    29a8:	401c                	lw	a5,0(s0)
    29aa:	0785                	addi	a5,a5,1
    29ac:	c01c                	sw	a5,0(s0)
    29ae:	83018793          	addi	a5,gp,-2000 # 200000b0 <ks>
    29b2:	439c                	lw	a5,0(a5)
    29b4:	b715                	j	28d8 <DMA2_Channel4_IRQHandler+0x58>
    29b6:	4705                	li	a4,1
    29b8:	4605                	li	a2,1
    29ba:	bf2d                	j	28f4 <DMA2_Channel4_IRQHandler+0x74>
    29bc:	400c                	lw	a1,0(s0)
    29be:	34c18513          	addi	a0,gp,844 # 20000bcc <audio_samples>
    29c2:	0586                	slli	a1,a1,0x1
    29c4:	95ca                	add	a1,a1,s2
    29c6:	975fd0ef          	jal	ra,33a <get_sample_FIFO>
    29ca:	401c                	lw	a5,0(s0)
    29cc:	0785                	addi	a5,a5,1
    29ce:	c01c                	sw	a5,0(s0)
    29d0:	409c                	lw	a5,0(s1)
    29d2:	0785                	addi	a5,a5,1
    29d4:	c09c                	sw	a5,0(s1)
    29d6:	b78d                	j	2938 <DMA2_Channel4_IRQHandler+0xb8>
    29d8:	4705                	li	a4,1
    29da:	4605                	li	a2,1
    29dc:	bfa5                	j	2954 <DMA2_Channel4_IRQHandler+0xd4>

000029de <Timer4_Init>:
    29de:	813fd2ef          	jal	t0,1f0 <__riscv_save_0>
    29e2:	1141                	addi	sp,sp,-16
    29e4:	842a                	mv	s0,a0
    29e6:	4585                	li	a1,1
    29e8:	4511                	li	a0,4
    29ea:	c202                	sw	zero,4(sp)
    29ec:	c402                	sw	zero,8(sp)
    29ee:	00011623          	sh	zero,12(sp)
    29f2:	273000ef          	jal	ra,3464 <RCC_APB1PeriphClockCmd>
    29f6:	0048                	addi	a0,sp,4
    29f8:	3e3000ef          	jal	ra,35da <TIM_TimeBaseStructInit>
    29fc:	80c1a503          	lw	a0,-2036(gp) # 2000008c <SystemCoreClock>
    2a00:	004c                	addi	a1,sp,4
    2a02:	00011523          	sh	zero,10(sp)
    2a06:	02855533          	divu	a0,a0,s0
    2a0a:	40001437          	lui	s0,0x40001
    2a0e:	c202                	sw	zero,4(sp)
    2a10:	157d                	addi	a0,a0,-1
    2a12:	8468                	sh	a0,8(sp)
    2a14:	80040513          	addi	a0,s0,-2048 # 40000800 <_eusrstack+0x1fff8800>
    2a18:	2d5000ef          	jal	ra,34ec <TIM_TimeBaseInit>
    2a1c:	80040513          	addi	a0,s0,-2048
    2a20:	02000593          	li	a1,32
    2a24:	3e5000ef          	jal	ra,3608 <TIM_SelectOutputTrigger>
    2a28:	4585                	li	a1,1
    2a2a:	80040513          	addi	a0,s0,-2048
    2a2e:	3c3000ef          	jal	ra,35f0 <TIM_Cmd>
    2a32:	0141                	addi	sp,sp,16
    2a34:	fe0fd06f          	j	214 <__riscv_restore_0>

00002a38 <GPIO_Toggle_INIT>:
    2a38:	fb8fd2ef          	jal	t0,1f0 <__riscv_save_0>
    2a3c:	1141                	addi	sp,sp,-16
    2a3e:	4585                	li	a1,1
    2a40:	4541                	li	a0,16
    2a42:	c202                	sw	zero,4(sp)
    2a44:	c402                	sw	zero,8(sp)
    2a46:	c602                	sw	zero,12(sp)
    2a48:	1ff000ef          	jal	ra,3446 <RCC_APB2PeriphClockCmd>
    2a4c:	18000793          	li	a5,384
    2a50:	827c                	sh	a5,4(sp)
    2a52:	47c1                	li	a5,16
    2a54:	c63e                	sw	a5,12(sp)
    2a56:	004c                	addi	a1,sp,4
    2a58:	478d                	li	a5,3
    2a5a:	40011537          	lui	a0,0x40011
    2a5e:	c43e                	sw	a5,8(sp)
    2a60:	782000ef          	jal	ra,31e2 <GPIO_Init>
    2a64:	4605                	li	a2,1
    2a66:	18000593          	li	a1,384
    2a6a:	40011537          	lui	a0,0x40011
    2a6e:	035000ef          	jal	ra,32a2 <GPIO_WriteBit>
    2a72:	0141                	addi	sp,sp,16
    2a74:	fa0fd06f          	j	214 <__riscv_restore_0>

00002a78 <main>:
    2a78:	f48fd2ef          	jal	t0,1c0 <__riscv_save_12>
    2a7c:	1101                	addi	sp,sp,-32
    2a7e:	4509                	li	a0,2
    2a80:	02d000ef          	jal	ra,32ac <NVIC_PriorityGroupConfig>
    2a84:	2911                	jal	2e98 <SystemCoreClockUpdate>
    2a86:	451000ef          	jal	ra,36d6 <Delay_Init>
    2a8a:	6571                	lui	a0,0x1c
    2a8c:	20050513          	addi	a0,a0,512 # 1c200 <_data_lma+0x15718>
    2a90:	4a3000ef          	jal	ra,3732 <USART_Printf_Init>
    2a94:	80c1a583          	lw	a1,-2036(gp) # 2000008c <SystemCoreClock>
    2a98:	00005537          	lui	a0,0x5
    2a9c:	74450513          	addi	a0,a0,1860 # 5744 <halfrate.6375+0x5c>
    2aa0:	649000ef          	jal	ra,38e8 <iprintf>
    2aa4:	2d1d                	jal	30da <DBGMCU_GetCHIPID>
    2aa6:	85aa                	mv	a1,a0
    2aa8:	00005537          	lui	a0,0x5
    2aac:	75450513          	addi	a0,a0,1876 # 5754 <halfrate.6375+0x6c>
    2ab0:	639000ef          	jal	ra,38e8 <iprintf>
    2ab4:	00005537          	lui	a0,0x5
    2ab8:	76450513          	addi	a0,a0,1892 # 5764 <halfrate.6375+0x7c>
    2abc:	741000ef          	jal	ra,39fc <puts>
    2ac0:	3fa5                	jal	2a38 <GPIO_Toggle_INIT>
    2ac2:	0c800513          	li	a0,200
    2ac6:	437000ef          	jal	ra,36fc <Delay_Ms>
    2aca:	200005b7          	lui	a1,0x20000
    2ace:	50000693          	li	a3,1280
    2ad2:	4609                	li	a2,2
    2ad4:	1cc58593          	addi	a1,a1,460 # 200001cc <ar_audio_samples>
    2ad8:	34c18513          	addi	a0,gp,844 # 20000bcc <audio_samples>
    2adc:	fecfd0ef          	jal	ra,2c8 <Init_FIFO>
    2ae0:	8edfd0ef          	jal	ra,3cc <SPI_Flash_Init>
    2ae4:	9a5fd0ef          	jal	ra,488 <SPI_Flash_ReadID>
    2ae8:	6785                	lui	a5,0x1
    2aea:	0ed78793          	addi	a5,a5,237 # 10ed <__stack_size+0xf1>
    2aee:	953e                	add	a0,a0,a5
    2af0:	0542                	slli	a0,a0,0x10
    2af2:	8141                	srli	a0,a0,0x10
    2af4:	4791                	li	a5,4
    2af6:	80818413          	addi	s0,gp,-2040 # 20000088 <flash_ok>
    2afa:	18a7e163          	bltu	a5,a0,2c7c <main+0x204>
    2afe:	6795                	lui	a5,0x5
    2b00:	aec78793          	addi	a5,a5,-1300 # 4aec <_read+0x10>
    2b04:	050a                	slli	a0,a0,0x2
    2b06:	953e                	add	a0,a0,a5
    2b08:	411c                	lw	a5,0(a0)
    2b0a:	8782                	jr	a5
    2b0c:	00005537          	lui	a0,0x5
    2b10:	78450513          	addi	a0,a0,1924 # 5784 <halfrate.6375+0x9c>
    2b14:	6e9000ef          	jal	ra,39fc <puts>
    2b18:	1f400513          	li	a0,500
    2b1c:	3e1000ef          	jal	ra,36fc <Delay_Ms>
    2b20:	401c                	lw	a5,0(s0)
    2b22:	c799                	beqz	a5,2b30 <main+0xb8>
    2b24:	00005537          	lui	a0,0x5
    2b28:	7cc50513          	addi	a0,a0,1996 # 57cc <halfrate.6375+0xe4>
    2b2c:	6d1000ef          	jal	ra,39fc <puts>
    2b30:	20001c37          	lui	s8,0x20001
    2b34:	084c0793          	addi	a5,s8,132 # 20001084 <mp3d>
    2b38:	6709                	lui	a4,0x2
    2b3a:	97ba                	add	a5,a5,a4
    2b3c:	c23e                	sw	a5,4(sp)
    2b3e:	84c18a93          	addi	s5,gp,-1972 # 200000cc <DAC_Value>
    2b42:	36c18c93          	addi	s9,gp,876 # 20000bec <buf>
    2b46:	4792                	lw	a5,4(sp)
    2b48:	80078423          	sb	zero,-2040(a5)
    2b4c:	00005537          	lui	a0,0x5
    2b50:	83418793          	addi	a5,gp,-1996 # 200000b4 <nbuf>
    2b54:	0007a023          	sw	zero,0(a5)
    2b58:	7e450513          	addi	a0,a0,2020 # 57e4 <halfrate.6375+0xfc>
    2b5c:	83818793          	addi	a5,gp,-1992 # 200000b8 <pread>
    2b60:	20003d37          	lui	s10,0x20003
    2b64:	0007a023          	sw	zero,0(a5)
    2b68:	83418413          	addi	s0,gp,-1996 # 200000b4 <nbuf>
    2b6c:	691000ef          	jal	ra,39fc <puts>
    2b70:	83818a13          	addi	s4,gp,-1992 # 200000b8 <pread>
    2b74:	8dea                	mv	s11,s10
    2b76:	000a2583          	lw	a1,0(s4)
    2b7a:	4010                	lw	a2,0(s0)
    2b7c:	4014                	lw	a3,0(s0)
    2b7e:	48000493          	li	s1,1152
    2b82:	000067b7          	lui	a5,0x6
    2b86:	40c48633          	sub	a2,s1,a2
    2b8a:	80078513          	addi	a0,a5,-2048 # 5800 <halfrate.6375+0x118>
    2b8e:	55b000ef          	jal	ra,38e8 <iprintf>
    2b92:	4008                	lw	a0,0(s0)
    2b94:	000a2583          	lw	a1,0(s4)
    2b98:	4010                	lw	a2,0(s0)
    2b9a:	9566                	add	a0,a0,s9
    2b9c:	40c48633          	sub	a2,s1,a2
    2ba0:	939fd0ef          	jal	ra,4d8 <SPI_Flash_Read>
    2ba4:	401c                	lw	a5,0(s0)
    2ba6:	000a2703          	lw	a4,0(s4)
    2baa:	a90d0693          	addi	a3,s10,-1392 # 20002a90 <pcm>
    2bae:	40f487b3          	sub	a5,s1,a5
    2bb2:	97ba                	add	a5,a5,a4
    2bb4:	00fa2023          	sw	a5,0(s4)
    2bb8:	4018                	lw	a4,0(s0)
    2bba:	401c                	lw	a5,0(s0)
    2bbc:	85e6                	mv	a1,s9
    2bbe:	8c99                	sub	s1,s1,a4
    2bc0:	94be                	add	s1,s1,a5
    2bc2:	c004                	sw	s1,0(s0)
    2bc4:	4010                	lw	a2,0(s0)
    2bc6:	7ec18713          	addi	a4,gp,2028 # 2000106c <info>
    2bca:	084c0513          	addi	a0,s8,132
    2bce:	812fe0ef          	jal	ra,be0 <mp3dec_decode_frame>
    2bd2:	82418793          	addi	a5,gp,-2012 # 200000a4 <frame_size>
    2bd6:	c388                	sw	a0,0(a5)
    2bd8:	7ec18b13          	addi	s6,gp,2028 # 2000106c <info>
    2bdc:	401c                	lw	a5,0(s0)
    2bde:	000b2703          	lw	a4,0(s6)
    2be2:	36c18593          	addi	a1,gp,876 # 20000bec <buf>
    2be6:	7ec18493          	addi	s1,gp,2028 # 2000106c <info>
    2bea:	8f99                	sub	a5,a5,a4
    2bec:	c01c                	sw	a5,0(s0)
    2bee:	83018693          	addi	a3,gp,-2000 # 200000b0 <ks>
    2bf2:	0006a023          	sw	zero,0(a3)
    2bf6:	82418913          	addi	s2,gp,-2012 # 200000a4 <frame_size>
    2bfa:	83018793          	addi	a5,gp,-2000 # 200000b0 <ks>
    2bfe:	3ff00613          	li	a2,1023
    2c02:	0ff00513          	li	a0,255
    2c06:	4394                	lw	a3,0(a5)
    2c08:	08d67163          	bgeu	a2,a3,2c8a <main+0x212>
    2c0c:	4394                	lw	a3,0(a5)
    2c0e:	40000793          	li	a5,1024
    2c12:	f2f68ae3          	beq	a3,a5,2b46 <main+0xce>
    2c16:	4010                	lw	a2,0(s0)
    2c18:	95ba                	add	a1,a1,a4
    2c1a:	36c18513          	addi	a0,gp,876 # 20000bec <buf>
    2c1e:	c43a                	sw	a4,8(sp)
    2c20:	483000ef          	jal	ra,38a2 <memmove>
    2c24:	48dc                	lw	a5,20(s1)
    2c26:	4722                	lw	a4,8(sp)
    2c28:	00092583          	lw	a1,0(s2)
    2c2c:	4494                	lw	a3,8(s1)
    2c2e:	44d0                	lw	a2,12(s1)
    2c30:	00006537          	lui	a0,0x6
    2c34:	81850513          	addi	a0,a0,-2024 # 5818 <halfrate.6375+0x130>
    2c38:	4b1000ef          	jal	ra,38e8 <iprintf>
    2c3c:	82018793          	addi	a5,gp,-2016 # 200000a0 <_edata>
    2c40:	4398                	lw	a4,0(a5)
    2c42:	82018b13          	addi	s6,gp,-2016 # 200000a0 <_edata>
    2c46:	cb39                	beqz	a4,2c9c <main+0x224>
    2c48:	4685                	li	a3,1
    2c4a:	12d70563          	beq	a4,a3,2d74 <main+0x2fc>
    2c4e:	409c                	lw	a5,0(s1)
    2c50:	f39d                	bnez	a5,2b76 <main+0xfe>
    2c52:	bdc5                	j	2b42 <main+0xca>
    2c54:	00005537          	lui	a0,0x5
    2c58:	79050513          	addi	a0,a0,1936 # 5790 <halfrate.6375+0xa8>
    2c5c:	bd65                	j	2b14 <main+0x9c>
    2c5e:	00005537          	lui	a0,0x5
    2c62:	79c50513          	addi	a0,a0,1948 # 579c <halfrate.6375+0xb4>
    2c66:	b57d                	j	2b14 <main+0x9c>
    2c68:	00005537          	lui	a0,0x5
    2c6c:	7a850513          	addi	a0,a0,1960 # 57a8 <halfrate.6375+0xc0>
    2c70:	b555                	j	2b14 <main+0x9c>
    2c72:	00005537          	lui	a0,0x5
    2c76:	7b450513          	addi	a0,a0,1972 # 57b4 <halfrate.6375+0xcc>
    2c7a:	bd69                	j	2b14 <main+0x9c>
    2c7c:	00005537          	lui	a0,0x5
    2c80:	00042023          	sw	zero,0(s0)
    2c84:	7c450513          	addi	a0,a0,1988 # 57c4 <halfrate.6375+0xdc>
    2c88:	b571                	j	2b14 <main+0x9c>
    2c8a:	4394                	lw	a3,0(a5)
    2c8c:	96ae                	add	a3,a3,a1
    2c8e:	2294                	lbu	a3,0(a3)
    2c90:	f6a69ee3          	bne	a3,a0,2c0c <main+0x194>
    2c94:	4394                	lw	a3,0(a5)
    2c96:	0685                	addi	a3,a3,1
    2c98:	c394                	sw	a3,0(a5)
    2c9a:	b7b5                	j	2c06 <main+0x18e>
    2c9c:	449c                	lw	a5,8(s1)
    2c9e:	dbc5                	beqz	a5,2c4e <main+0x1d6>
    2ca0:	44dc                	lw	a5,12(s1)
    2ca2:	faf056e3          	blez	a5,2c4e <main+0x1d6>
    2ca6:	00092783          	lw	a5,0(s2)
    2caa:	faf052e3          	blez	a5,2c4e <main+0x1d6>
    2cae:	00006537          	lui	a0,0x6
    2cb2:	86450513          	addi	a0,a0,-1948 # 5864 <halfrate.6375+0x17c>
    2cb6:	547000ef          	jal	ra,39fc <puts>
    2cba:	a90d8713          	addi	a4,s11,-1392
    2cbe:	4681                	li	a3,0
    2cc0:	00092783          	lw	a5,0(s2)
    2cc4:	04f6e863          	bltu	a3,a5,2d14 <main+0x29c>
    2cc8:	82c18793          	addi	a5,gp,-2004 # 200000ac <is>
    2ccc:	0007a023          	sw	zero,0(a5)
    2cd0:	82c18913          	addi	s2,gp,-2004 # 200000ac <is>
    2cd4:	00092783          	lw	a5,0(s2)
    2cd8:	03f00713          	li	a4,63
    2cdc:	06f77263          	bgeu	a4,a5,2d40 <main+0x2c8>
    2ce0:	8001a223          	sw	zero,-2044(gp) # 20000084 <flag_hb>
    2ce4:	04000793          	li	a5,64
    2ce8:	00f92023          	sw	a5,0(s2)
    2cec:	00092783          	lw	a5,0(s2)
    2cf0:	07f00713          	li	a4,127
    2cf4:	06f77463          	bgeu	a4,a5,2d5c <main+0x2e4>
    2cf8:	200007b7          	lui	a5,0x20000
    2cfc:	0807a023          	sw	zero,128(a5) # 20000080 <flag_cb>
    2d00:	a7fff0ef          	jal	ra,277e <Dac_Init>
    2d04:	ae3ff0ef          	jal	ra,27e6 <Dac_Dma_Init>
    2d08:	44c8                	lw	a0,12(s1)
    2d0a:	39d1                	jal	29de <Timer4_Init>
    2d0c:	4785                	li	a5,1
    2d0e:	00fb2023          	sw	a5,0(s6)
    2d12:	bf35                	j	2c4e <main+0x1d6>
    2d14:	00071783          	lh	a5,0(a4) # 2000 <__stack_size+0x1004>
    2d18:	00271603          	lh	a2,2(a4)
    2d1c:	01e10593          	addi	a1,sp,30
    2d20:	34c18513          	addi	a0,gp,844 # 20000bcc <audio_samples>
    2d24:	97b2                	add	a5,a5,a2
    2d26:	8795                	srai	a5,a5,0x5
    2d28:	7ff78793          	addi	a5,a5,2047
    2d2c:	c636                	sw	a3,12(sp)
    2d2e:	c43a                	sw	a4,8(sp)
    2d30:	87fc                	sh	a5,30(sp)
    2d32:	dc6fd0ef          	jal	ra,2f8 <put_sample_FIFO>
    2d36:	46b2                	lw	a3,12(sp)
    2d38:	4722                	lw	a4,8(sp)
    2d3a:	0685                	addi	a3,a3,1
    2d3c:	0711                	addi	a4,a4,4
    2d3e:	b749                	j	2cc0 <main+0x248>
    2d40:	00092583          	lw	a1,0(s2)
    2d44:	34c18513          	addi	a0,gp,844 # 20000bcc <audio_samples>
    2d48:	0586                	slli	a1,a1,0x1
    2d4a:	95d6                	add	a1,a1,s5
    2d4c:	deefd0ef          	jal	ra,33a <get_sample_FIFO>
    2d50:	00092783          	lw	a5,0(s2)
    2d54:	0785                	addi	a5,a5,1
    2d56:	00f92023          	sw	a5,0(s2)
    2d5a:	bfad                	j	2cd4 <main+0x25c>
    2d5c:	00092583          	lw	a1,0(s2)
    2d60:	34c18513          	addi	a0,gp,844 # 20000bcc <audio_samples>
    2d64:	0586                	slli	a1,a1,0x1
    2d66:	95d6                	add	a1,a1,s5
    2d68:	dd2fd0ef          	jal	ra,33a <get_sample_FIFO>
    2d6c:	00092783          	lw	a5,0(s2)
    2d70:	0785                	addi	a5,a5,1
    2d72:	bf9d                	j	2ce8 <main+0x270>
    2d74:	00092703          	lw	a4,0(s2)
    2d78:	04e05563          	blez	a4,2dc2 <main+0x34a>
    2d7c:	34c18513          	addi	a0,gp,844 # 20000bcc <audio_samples>
    2d80:	d66fd0ef          	jal	ra,2e6 <n_sample_out_FIFO>
    2d84:	00092783          	lw	a5,0(s2)
    2d88:	fef54ae3          	blt	a0,a5,2d7c <main+0x304>
    2d8c:	a90d8b13          	addi	s6,s11,-1392
    2d90:	4701                	li	a4,0
    2d92:	00092783          	lw	a5,0(s2)
    2d96:	eaf77ce3          	bgeu	a4,a5,2c4e <main+0x1d6>
    2d9a:	000b1783          	lh	a5,0(s6)
    2d9e:	002b1683          	lh	a3,2(s6)
    2da2:	01e10593          	addi	a1,sp,30
    2da6:	34c18513          	addi	a0,gp,844 # 20000bcc <audio_samples>
    2daa:	97b6                	add	a5,a5,a3
    2dac:	8795                	srai	a5,a5,0x5
    2dae:	7ff78793          	addi	a5,a5,2047
    2db2:	c43a                	sw	a4,8(sp)
    2db4:	87fc                	sh	a5,30(sp)
    2db6:	d42fd0ef          	jal	ra,2f8 <put_sample_FIFO>
    2dba:	4722                	lw	a4,8(sp)
    2dbc:	0b11                	addi	s6,s6,4
    2dbe:	0705                	addi	a4,a4,1
    2dc0:	bfc9                	j	2d92 <main+0x31a>
    2dc2:	40001537          	lui	a0,0x40001
    2dc6:	4581                	li	a1,0
    2dc8:	80050513          	addi	a0,a0,-2048 # 40000800 <_eusrstack+0x1fff8800>
    2dcc:	025000ef          	jal	ra,35f0 <TIM_Cmd>
    2dd0:	40020537          	lui	a0,0x40020
    2dd4:	4581                	li	a1,0
    2dd6:	44450513          	addi	a0,a0,1092 # 40020444 <_eusrstack+0x20018444>
    2dda:	2e85                	jal	314a <DMA_Cmd>
    2ddc:	82018793          	addi	a5,gp,-2016 # 200000a0 <_edata>
    2de0:	0007a023          	sw	zero,0(a5)
    2de4:	b5ad                	j	2c4e <main+0x1d6>

00002de6 <SystemInit>:
    2de6:	400217b7          	lui	a5,0x40021
    2dea:	4398                	lw	a4,0(a5)
    2dec:	f0ff06b7          	lui	a3,0xf0ff0
    2df0:	00176713          	ori	a4,a4,1
    2df4:	c398                	sw	a4,0(a5)
    2df6:	43d8                	lw	a4,4(a5)
    2df8:	8f75                	and	a4,a4,a3
    2dfa:	c3d8                	sw	a4,4(a5)
    2dfc:	4398                	lw	a4,0(a5)
    2dfe:	fef706b7          	lui	a3,0xfef70
    2e02:	16fd                	addi	a3,a3,-1
    2e04:	8f75                	and	a4,a4,a3
    2e06:	c398                	sw	a4,0(a5)
    2e08:	4398                	lw	a4,0(a5)
    2e0a:	fffc06b7          	lui	a3,0xfffc0
    2e0e:	16fd                	addi	a3,a3,-1
    2e10:	8f75                	and	a4,a4,a3
    2e12:	c398                	sw	a4,0(a5)
    2e14:	43d8                	lw	a4,4(a5)
    2e16:	ff0106b7          	lui	a3,0xff010
    2e1a:	16fd                	addi	a3,a3,-1
    2e1c:	8f75                	and	a4,a4,a3
    2e1e:	c3d8                	sw	a4,4(a5)
    2e20:	4398                	lw	a4,0(a5)
    2e22:	ec0006b7          	lui	a3,0xec000
    2e26:	16fd                	addi	a3,a3,-1
    2e28:	8f75                	and	a4,a4,a3
    2e2a:	c398                	sw	a4,0(a5)
    2e2c:	00ff0737          	lui	a4,0xff0
    2e30:	c798                	sw	a4,8(a5)
    2e32:	0207a623          	sw	zero,44(a5) # 4002102c <_eusrstack+0x2001902c>
    2e36:	400246b7          	lui	a3,0x40024
    2e3a:	8006a703          	lw	a4,-2048(a3) # 40023800 <_eusrstack+0x2001b800>
    2e3e:	01076713          	ori	a4,a4,16
    2e42:	80e6a023          	sw	a4,-2048(a3)
    2e46:	43d8                	lw	a4,4(a5)
    2e48:	ffc106b7          	lui	a3,0xffc10
    2e4c:	16fd                	addi	a3,a3,-1
    2e4e:	c3d8                	sw	a4,4(a5)
    2e50:	43d8                	lw	a4,4(a5)
    2e52:	c3d8                	sw	a4,4(a5)
    2e54:	43d8                	lw	a4,4(a5)
    2e56:	40076713          	ori	a4,a4,1024
    2e5a:	c3d8                	sw	a4,4(a5)
    2e5c:	43d8                	lw	a4,4(a5)
    2e5e:	8f75                	and	a4,a4,a3
    2e60:	c3d8                	sw	a4,4(a5)
    2e62:	43d8                	lw	a4,4(a5)
    2e64:	010006b7          	lui	a3,0x1000
    2e68:	c3d8                	sw	a4,4(a5)
    2e6a:	4398                	lw	a4,0(a5)
    2e6c:	8f55                	or	a4,a4,a3
    2e6e:	c398                	sw	a4,0(a5)
    2e70:	4398                	lw	a4,0(a5)
    2e72:	00671693          	slli	a3,a4,0x6
    2e76:	fe06dde3          	bgez	a3,2e70 <SystemInit+0x8a>
    2e7a:	43d8                	lw	a4,4(a5)
    2e7c:	400216b7          	lui	a3,0x40021
    2e80:	9b71                	andi	a4,a4,-4
    2e82:	c3d8                	sw	a4,4(a5)
    2e84:	43d8                	lw	a4,4(a5)
    2e86:	00276713          	ori	a4,a4,2
    2e8a:	c3d8                	sw	a4,4(a5)
    2e8c:	4721                	li	a4,8
    2e8e:	42dc                	lw	a5,4(a3)
    2e90:	8bb1                	andi	a5,a5,12
    2e92:	fee79ee3          	bne	a5,a4,2e8e <SystemInit+0xa8>
    2e96:	8082                	ret

00002e98 <SystemCoreClockUpdate>:
    2e98:	400216b7          	lui	a3,0x40021
    2e9c:	42d8                	lw	a4,4(a3)
    2e9e:	4611                	li	a2,4
    2ea0:	8b31                	andi	a4,a4,12
    2ea2:	80c18793          	addi	a5,gp,-2036 # 2000008c <SystemCoreClock>
    2ea6:	00c70563          	beq	a4,a2,2eb0 <SystemCoreClockUpdate+0x18>
    2eaa:	4621                	li	a2,8
    2eac:	02c70863          	beq	a4,a2,2edc <SystemCoreClockUpdate+0x44>
    2eb0:	007a1737          	lui	a4,0x7a1
    2eb4:	20070713          	addi	a4,a4,512 # 7a1200 <_data_lma+0x79a718>
    2eb8:	c398                	sw	a4,0(a5)
    2eba:	40021737          	lui	a4,0x40021
    2ebe:	4358                	lw	a4,4(a4)
    2ec0:	8311                	srli	a4,a4,0x4
    2ec2:	00f77693          	andi	a3,a4,15
    2ec6:	20000737          	lui	a4,0x20000
    2eca:	00070713          	mv	a4,a4
    2ece:	9736                	add	a4,a4,a3
    2ed0:	2314                	lbu	a3,0(a4)
    2ed2:	4398                	lw	a4,0(a5)
    2ed4:	00d75733          	srl	a4,a4,a3
    2ed8:	c398                	sw	a4,0(a5)
    2eda:	8082                	ret
    2edc:	42d8                	lw	a4,4(a3)
    2ede:	42d4                	lw	a3,4(a3)
    2ee0:	6641                	lui	a2,0x10
    2ee2:	8349                	srli	a4,a4,0x12
    2ee4:	8b3d                	andi	a4,a4,15
    2ee6:	8ef1                	and	a3,a3,a2
    2ee8:	00270613          	addi	a2,a4,2 # 20000002 <_data_vma+0x2>
    2eec:	cf15                	beqz	a4,2f28 <SystemCoreClockUpdate+0x90>
    2eee:	473d                	li	a4,15
    2ef0:	02e60f63          	beq	a2,a4,2f2e <SystemCoreClockUpdate+0x96>
    2ef4:	4741                	li	a4,16
    2ef6:	02e60f63          	beq	a2,a4,2f34 <SystemCoreClockUpdate+0x9c>
    2efa:	4745                	li	a4,17
    2efc:	4581                	li	a1,0
    2efe:	00e61363          	bne	a2,a4,2f04 <SystemCoreClockUpdate+0x6c>
    2f02:	4641                	li	a2,16
    2f04:	e2a1                	bnez	a3,2f44 <SystemCoreClockUpdate+0xac>
    2f06:	40024737          	lui	a4,0x40024
    2f0a:	80072703          	lw	a4,-2048(a4) # 40023800 <_eusrstack+0x2001b800>
    2f0e:	8b41                	andi	a4,a4,16
    2f10:	c70d                	beqz	a4,2f3a <SystemCoreClockUpdate+0xa2>
    2f12:	007a1737          	lui	a4,0x7a1
    2f16:	20070713          	addi	a4,a4,512 # 7a1200 <_data_lma+0x79a718>
    2f1a:	02c70633          	mul	a2,a4,a2
    2f1e:	c390                	sw	a2,0(a5)
    2f20:	ddc9                	beqz	a1,2eba <SystemCoreClockUpdate+0x22>
    2f22:	4398                	lw	a4,0(a5)
    2f24:	8305                	srli	a4,a4,0x1
    2f26:	bf49                	j	2eb8 <SystemCoreClockUpdate+0x20>
    2f28:	4581                	li	a1,0
    2f2a:	4649                	li	a2,18
    2f2c:	bfe1                	j	2f04 <SystemCoreClockUpdate+0x6c>
    2f2e:	4585                	li	a1,1
    2f30:	4635                	li	a2,13
    2f32:	bfc9                	j	2f04 <SystemCoreClockUpdate+0x6c>
    2f34:	4581                	li	a1,0
    2f36:	463d                	li	a2,15
    2f38:	b7f1                	j	2f04 <SystemCoreClockUpdate+0x6c>
    2f3a:	003d1737          	lui	a4,0x3d1
    2f3e:	90070713          	addi	a4,a4,-1792 # 3d0900 <_data_lma+0x3c9e18>
    2f42:	bfe1                	j	2f1a <SystemCoreClockUpdate+0x82>
    2f44:	40021537          	lui	a0,0x40021
    2f48:	5558                	lw	a4,44(a0)
    2f4a:	00f71693          	slli	a3,a4,0xf
    2f4e:	5558                	lw	a4,44(a0)
    2f50:	0406df63          	bgez	a3,2fae <SystemCoreClockUpdate+0x116>
    2f54:	8311                	srli	a4,a4,0x4
    2f56:	8b3d                	andi	a4,a4,15
    2f58:	00170693          	addi	a3,a4,1
    2f5c:	007a1737          	lui	a4,0x7a1
    2f60:	20070713          	addi	a4,a4,512 # 7a1200 <_data_lma+0x79a718>
    2f64:	02d75733          	divu	a4,a4,a3
    2f68:	c398                	sw	a4,0(a5)
    2f6a:	5554                	lw	a3,44(a0)
    2f6c:	82a1                	srli	a3,a3,0x8
    2f6e:	8abd                	andi	a3,a3,15
    2f70:	e28d                	bnez	a3,2f92 <SystemCoreClockUpdate+0xfa>
    2f72:	4695                	li	a3,5
    2f74:	02d70733          	mul	a4,a4,a3
    2f78:	8305                	srli	a4,a4,0x1
    2f7a:	c398                	sw	a4,0(a5)
    2f7c:	40021737          	lui	a4,0x40021
    2f80:	5758                	lw	a4,44(a4)
    2f82:	4394                	lw	a3,0(a5)
    2f84:	8b3d                	andi	a4,a4,15
    2f86:	0705                	addi	a4,a4,1
    2f88:	02e6d733          	divu	a4,a3,a4
    2f8c:	c398                	sw	a4,0(a5)
    2f8e:	4398                	lw	a4,0(a5)
    2f90:	b769                	j	2f1a <SystemCoreClockUpdate+0x82>
    2f92:	4505                	li	a0,1
    2f94:	00a69463          	bne	a3,a0,2f9c <SystemCoreClockUpdate+0x104>
    2f98:	46e5                	li	a3,25
    2f9a:	bfe9                	j	2f74 <SystemCoreClockUpdate+0xdc>
    2f9c:	453d                	li	a0,15
    2f9e:	00a69663          	bne	a3,a0,2faa <SystemCoreClockUpdate+0x112>
    2fa2:	46d1                	li	a3,20
    2fa4:	02e68733          	mul	a4,a3,a4
    2fa8:	bfc9                	j	2f7a <SystemCoreClockUpdate+0xe2>
    2faa:	0689                	addi	a3,a3,2
    2fac:	bfe5                	j	2fa4 <SystemCoreClockUpdate+0x10c>
    2fae:	8b3d                	andi	a4,a4,15
    2fb0:	00170693          	addi	a3,a4,1 # 40021001 <_eusrstack+0x20019001>
    2fb4:	007a1737          	lui	a4,0x7a1
    2fb8:	20070713          	addi	a4,a4,512 # 7a1200 <_data_lma+0x79a718>
    2fbc:	02d75733          	divu	a4,a4,a3
    2fc0:	b7f1                	j	2f8c <SystemCoreClockUpdate+0xf4>

00002fc2 <ADC1_2_IRQHandler>:
    2fc2:	a001                	j	2fc2 <ADC1_2_IRQHandler>

00002fc4 <handle_reset>:
    2fc4:	1fffe197          	auipc	gp,0x1fffe
    2fc8:	8bc18193          	addi	gp,gp,-1860 # 20000880 <__global_pointer$>
    2fcc:	20005117          	auipc	sp,0x20005
    2fd0:	03410113          	addi	sp,sp,52 # 20008000 <_eusrstack>
    2fd4:	00004517          	auipc	a0,0x4
    2fd8:	b1450513          	addi	a0,a0,-1260 # 6ae8 <_data_lma>
    2fdc:	1fffd597          	auipc	a1,0x1fffd
    2fe0:	02458593          	addi	a1,a1,36 # 20000000 <_data_vma>
    2fe4:	82018613          	addi	a2,gp,-2016 # 200000a0 <_edata>
    2fe8:	00c5fa63          	bgeu	a1,a2,2ffc <handle_reset+0x38>
    2fec:	00052283          	lw	t0,0(a0)
    2ff0:	0055a023          	sw	t0,0(a1)
    2ff4:	0511                	addi	a0,a0,4
    2ff6:	0591                	addi	a1,a1,4
    2ff8:	fec5eae3          	bltu	a1,a2,2fec <handle_reset+0x28>
    2ffc:	82018513          	addi	a0,gp,-2016 # 200000a0 <_edata>
    3000:	20001597          	auipc	a1,0x20001
    3004:	c9458593          	addi	a1,a1,-876 # 20003c94 <_ebss>
    3008:	00b57763          	bgeu	a0,a1,3016 <handle_reset+0x52>
    300c:	00052023          	sw	zero,0(a0)
    3010:	0511                	addi	a0,a0,4
    3012:	feb56de3          	bltu	a0,a1,300c <handle_reset+0x48>
    3016:	42fd                	li	t0,31
    3018:	bc029073          	csrw	0xbc0,t0
    301c:	42ad                	li	t0,11
    301e:	80429073          	csrw	0x804,t0
    3022:	000062b7          	lui	t0,0x6
    3026:	08828293          	addi	t0,t0,136 # 6088 <tabs.6490+0x724>
    302a:	30029073          	csrw	mstatus,t0
    302e:	ffffd297          	auipc	t0,0xffffd
    3032:	fd628293          	addi	t0,t0,-42 # 4 <_einit>
    3036:	0032e293          	ori	t0,t0,3
    303a:	30529073          	csrw	mtvec,t0
    303e:	da9ff0ef          	jal	ra,2de6 <SystemInit>
    3042:	00000297          	auipc	t0,0x0
    3046:	a3628293          	addi	t0,t0,-1482 # 2a78 <main>
    304a:	34129073          	csrw	mepc,t0
    304e:	30200073          	mret

00003052 <DAC_Init>:
    3052:	400076b7          	lui	a3,0x40007
    3056:	6705                	lui	a4,0x1
    3058:	4006a783          	lw	a5,1024(a3) # 40007400 <_eusrstack+0x1ffff400>
    305c:	1779                	addi	a4,a4,-2
    305e:	00a71733          	sll	a4,a4,a0
    3062:	fff74713          	not	a4,a4
    3066:	41d0                	lw	a2,4(a1)
    3068:	8f7d                	and	a4,a4,a5
    306a:	419c                	lw	a5,0(a1)
    306c:	8fd1                	or	a5,a5,a2
    306e:	4590                	lw	a2,8(a1)
    3070:	8fd1                	or	a5,a5,a2
    3072:	45d0                	lw	a2,12(a1)
    3074:	8fd1                	or	a5,a5,a2
    3076:	00a797b3          	sll	a5,a5,a0
    307a:	8fd9                	or	a5,a5,a4
    307c:	40f6a023          	sw	a5,1024(a3)
    3080:	8082                	ret

00003082 <DAC_Cmd>:
    3082:	4785                	li	a5,1
    3084:	00a79533          	sll	a0,a5,a0
    3088:	c989                	beqz	a1,309a <DAC_Cmd+0x18>
    308a:	40007737          	lui	a4,0x40007
    308e:	40072783          	lw	a5,1024(a4) # 40007400 <_eusrstack+0x1ffff400>
    3092:	8d5d                	or	a0,a0,a5
    3094:	40a72023          	sw	a0,1024(a4)
    3098:	8082                	ret
    309a:	400077b7          	lui	a5,0x40007
    309e:	4007a703          	lw	a4,1024(a5) # 40007400 <_eusrstack+0x1ffff400>
    30a2:	fff54513          	not	a0,a0
    30a6:	8d79                	and	a0,a0,a4
    30a8:	40a7a023          	sw	a0,1024(a5)
    30ac:	8082                	ret

000030ae <DAC_DMACmd>:
    30ae:	6785                	lui	a5,0x1
    30b0:	00a79533          	sll	a0,a5,a0
    30b4:	c989                	beqz	a1,30c6 <DAC_DMACmd+0x18>
    30b6:	40007737          	lui	a4,0x40007
    30ba:	40072783          	lw	a5,1024(a4) # 40007400 <_eusrstack+0x1ffff400>
    30be:	8d5d                	or	a0,a0,a5
    30c0:	40a72023          	sw	a0,1024(a4)
    30c4:	8082                	ret
    30c6:	400077b7          	lui	a5,0x40007
    30ca:	4007a703          	lw	a4,1024(a5) # 40007400 <_eusrstack+0x1ffff400>
    30ce:	fff54513          	not	a0,a0
    30d2:	8d79                	and	a0,a0,a4
    30d4:	40a7a023          	sw	a0,1024(a5)
    30d8:	8082                	ret

000030da <DBGMCU_GetCHIPID>:
    30da:	1ffff7b7          	lui	a5,0x1ffff
    30de:	7047a503          	lw	a0,1796(a5) # 1ffff704 <_data_lma+0x1fff8c1c>
    30e2:	8082                	ret

000030e4 <DMA_Init>:
    30e4:	411c                	lw	a5,0(a0)
    30e6:	7761                	lui	a4,0xffff8
    30e8:	073d                	addi	a4,a4,15
    30ea:	5194                	lw	a3,32(a1)
    30ec:	8f7d                	and	a4,a4,a5
    30ee:	459c                	lw	a5,8(a1)
    30f0:	8fd5                	or	a5,a5,a3
    30f2:	4994                	lw	a3,16(a1)
    30f4:	8fd5                	or	a5,a5,a3
    30f6:	49d4                	lw	a3,20(a1)
    30f8:	8fd5                	or	a5,a5,a3
    30fa:	4d94                	lw	a3,24(a1)
    30fc:	8fd5                	or	a5,a5,a3
    30fe:	4dd4                	lw	a3,28(a1)
    3100:	8fd5                	or	a5,a5,a3
    3102:	51d4                	lw	a3,36(a1)
    3104:	8fd5                	or	a5,a5,a3
    3106:	5594                	lw	a3,40(a1)
    3108:	8fd5                	or	a5,a5,a3
    310a:	8fd9                	or	a5,a5,a4
    310c:	c11c                	sw	a5,0(a0)
    310e:	45dc                	lw	a5,12(a1)
    3110:	c15c                	sw	a5,4(a0)
    3112:	419c                	lw	a5,0(a1)
    3114:	c51c                	sw	a5,8(a0)
    3116:	41dc                	lw	a5,4(a1)
    3118:	c55c                	sw	a5,12(a0)
    311a:	8082                	ret

0000311c <DMA_StructInit>:
    311c:	00052023          	sw	zero,0(a0)
    3120:	00052223          	sw	zero,4(a0)
    3124:	00052423          	sw	zero,8(a0)
    3128:	00052623          	sw	zero,12(a0)
    312c:	00052823          	sw	zero,16(a0)
    3130:	00052a23          	sw	zero,20(a0)
    3134:	00052c23          	sw	zero,24(a0)
    3138:	00052e23          	sw	zero,28(a0)
    313c:	02052023          	sw	zero,32(a0)
    3140:	02052223          	sw	zero,36(a0)
    3144:	02052423          	sw	zero,40(a0)
    3148:	8082                	ret

0000314a <DMA_Cmd>:
    314a:	411c                	lw	a5,0(a0)
    314c:	c589                	beqz	a1,3156 <DMA_Cmd+0xc>
    314e:	0017e793          	ori	a5,a5,1
    3152:	c11c                	sw	a5,0(a0)
    3154:	8082                	ret
    3156:	6741                	lui	a4,0x10
    3158:	1779                	addi	a4,a4,-2
    315a:	8ff9                	and	a5,a5,a4
    315c:	bfdd                	j	3152 <DMA_Cmd+0x8>

0000315e <DMA_ITConfig>:
    315e:	411c                	lw	a5,0(a0)
    3160:	c601                	beqz	a2,3168 <DMA_ITConfig+0xa>
    3162:	8ddd                	or	a1,a1,a5
    3164:	c10c                	sw	a1,0(a0)
    3166:	8082                	ret
    3168:	fff5c593          	not	a1,a1
    316c:	8dfd                	and	a1,a1,a5
    316e:	bfdd                	j	3164 <DMA_ITConfig+0x6>

00003170 <DMA_GetFlagStatus>:
    3170:	00351793          	slli	a5,a0,0x3
    3174:	0007da63          	bgez	a5,3188 <DMA_GetFlagStatus+0x18>
    3178:	400207b7          	lui	a5,0x40020
    317c:	4007a783          	lw	a5,1024(a5) # 40020400 <_eusrstack+0x20018400>
    3180:	8d7d                	and	a0,a0,a5
    3182:	00a03533          	snez	a0,a0
    3186:	8082                	ret
    3188:	00251793          	slli	a5,a0,0x2
    318c:	0007d763          	bgez	a5,319a <DMA_GetFlagStatus+0x2a>
    3190:	400207b7          	lui	a5,0x40020
    3194:	4d07a783          	lw	a5,1232(a5) # 400204d0 <_eusrstack+0x200184d0>
    3198:	b7e5                	j	3180 <DMA_GetFlagStatus+0x10>
    319a:	400207b7          	lui	a5,0x40020
    319e:	439c                	lw	a5,0(a5)
    31a0:	b7c5                	j	3180 <DMA_GetFlagStatus+0x10>

000031a2 <DMA_ClearFlag>:
    31a2:	00351793          	slli	a5,a0,0x3
    31a6:	0007d763          	bgez	a5,31b4 <DMA_ClearFlag+0x12>
    31aa:	400207b7          	lui	a5,0x40020
    31ae:	40a7a223          	sw	a0,1028(a5) # 40020404 <_eusrstack+0x20018404>
    31b2:	8082                	ret
    31b4:	00251793          	slli	a5,a0,0x2
    31b8:	0007d763          	bgez	a5,31c6 <DMA_ClearFlag+0x24>
    31bc:	400207b7          	lui	a5,0x40020
    31c0:	4ca7aa23          	sw	a0,1236(a5) # 400204d4 <_eusrstack+0x200184d4>
    31c4:	8082                	ret
    31c6:	400207b7          	lui	a5,0x40020
    31ca:	c3c8                	sw	a0,4(a5)
    31cc:	8082                	ret

000031ce <DMA_GetITStatus>:
    31ce:	822fd2ef          	jal	t0,1f0 <__riscv_save_0>
    31d2:	3f79                	jal	3170 <DMA_GetFlagStatus>
    31d4:	840fd06f          	j	214 <__riscv_restore_0>

000031d8 <DMA_ClearITPendingBit>:
    31d8:	818fd2ef          	jal	t0,1f0 <__riscv_save_0>
    31dc:	37d9                	jal	31a2 <DMA_ClearFlag>
    31de:	836fd06f          	j	214 <__riscv_restore_0>

000031e2 <GPIO_Init>:
    31e2:	459c                	lw	a5,8(a1)
    31e4:	0107f713          	andi	a4,a5,16
    31e8:	00f7f813          	andi	a6,a5,15
    31ec:	c701                	beqz	a4,31f4 <GPIO_Init+0x12>
    31ee:	41d8                	lw	a4,4(a1)
    31f0:	00e86833          	or	a6,a6,a4
    31f4:	218e                	lhu	a1,0(a1)
    31f6:	0ff5f713          	andi	a4,a1,255
    31fa:	c339                	beqz	a4,3240 <GPIO_Init+0x5e>
    31fc:	4118                	lw	a4,0(a0)
    31fe:	4681                	li	a3,0
    3200:	4e85                	li	t4,1
    3202:	4f3d                	li	t5,15
    3204:	02800f93          	li	t6,40
    3208:	04800293          	li	t0,72
    320c:	4e21                	li	t3,8
    320e:	00de9633          	sll	a2,t4,a3
    3212:	00c5f8b3          	and	a7,a1,a2
    3216:	03161163          	bne	a2,a7,3238 <GPIO_Init+0x56>
    321a:	00269893          	slli	a7,a3,0x2
    321e:	011f1333          	sll	t1,t5,a7
    3222:	fff34313          	not	t1,t1
    3226:	00e37733          	and	a4,t1,a4
    322a:	011818b3          	sll	a7,a6,a7
    322e:	00e8e733          	or	a4,a7,a4
    3232:	05f79f63          	bne	a5,t6,3290 <GPIO_Init+0xae>
    3236:	c950                	sw	a2,20(a0)
    3238:	0685                	addi	a3,a3,1
    323a:	fdc69ae3          	bne	a3,t3,320e <GPIO_Init+0x2c>
    323e:	c118                	sw	a4,0(a0)
    3240:	0ff00713          	li	a4,255
    3244:	04b77563          	bgeu	a4,a1,328e <GPIO_Init+0xac>
    3248:	4154                	lw	a3,4(a0)
    324a:	4621                	li	a2,8
    324c:	4e85                	li	t4,1
    324e:	4f3d                	li	t5,15
    3250:	02800f93          	li	t6,40
    3254:	04800293          	li	t0,72
    3258:	4e41                	li	t3,16
    325a:	00ce98b3          	sll	a7,t4,a2
    325e:	0115f733          	and	a4,a1,a7
    3262:	02e89263          	bne	a7,a4,3286 <GPIO_Init+0xa4>
    3266:	00261713          	slli	a4,a2,0x2
    326a:	1701                	addi	a4,a4,-32
    326c:	00ef1333          	sll	t1,t5,a4
    3270:	fff34313          	not	t1,t1
    3274:	00d376b3          	and	a3,t1,a3
    3278:	00e81733          	sll	a4,a6,a4
    327c:	8ed9                	or	a3,a3,a4
    327e:	01f79d63          	bne	a5,t6,3298 <GPIO_Init+0xb6>
    3282:	01152a23          	sw	a7,20(a0)
    3286:	0605                	addi	a2,a2,1
    3288:	fdc619e3          	bne	a2,t3,325a <GPIO_Init+0x78>
    328c:	c154                	sw	a3,4(a0)
    328e:	8082                	ret
    3290:	fa5794e3          	bne	a5,t0,3238 <GPIO_Init+0x56>
    3294:	c910                	sw	a2,16(a0)
    3296:	b74d                	j	3238 <GPIO_Init+0x56>
    3298:	fe5797e3          	bne	a5,t0,3286 <GPIO_Init+0xa4>
    329c:	01152823          	sw	a7,16(a0)
    32a0:	b7dd                	j	3286 <GPIO_Init+0xa4>

000032a2 <GPIO_WriteBit>:
    32a2:	c219                	beqz	a2,32a8 <GPIO_WriteBit+0x6>
    32a4:	c90c                	sw	a1,16(a0)
    32a6:	8082                	ret
    32a8:	c94c                	sw	a1,20(a0)
    32aa:	8082                	ret

000032ac <NVIC_PriorityGroupConfig>:
    32ac:	82a1ae23          	sw	a0,-1988(gp) # 200000bc <NVIC_Priority_Group>
    32b0:	8082                	ret

000032b2 <RCC_GetClocksFreq>:
    32b2:	40021737          	lui	a4,0x40021
    32b6:	435c                	lw	a5,4(a4)
    32b8:	4691                	li	a3,4
    32ba:	8bb1                	andi	a5,a5,12
    32bc:	00d78563          	beq	a5,a3,32c6 <RCC_GetClocksFreq+0x14>
    32c0:	46a1                	li	a3,8
    32c2:	06d78263          	beq	a5,a3,3326 <RCC_GetClocksFreq+0x74>
    32c6:	007a17b7          	lui	a5,0x7a1
    32ca:	20078793          	addi	a5,a5,512 # 7a1200 <_data_lma+0x79a718>
    32ce:	c11c                	sw	a5,0(a0)
    32d0:	40021637          	lui	a2,0x40021
    32d4:	425c                	lw	a5,4(a2)
    32d6:	20000737          	lui	a4,0x20000
    32da:	01070713          	addi	a4,a4,16 # 20000010 <APBAHBPrescTable>
    32de:	8391                	srli	a5,a5,0x4
    32e0:	8bbd                	andi	a5,a5,15
    32e2:	97ba                	add	a5,a5,a4
    32e4:	2394                	lbu	a3,0(a5)
    32e6:	411c                	lw	a5,0(a0)
    32e8:	00d7d7b3          	srl	a5,a5,a3
    32ec:	c15c                	sw	a5,4(a0)
    32ee:	4254                	lw	a3,4(a2)
    32f0:	82a1                	srli	a3,a3,0x8
    32f2:	8a9d                	andi	a3,a3,7
    32f4:	96ba                	add	a3,a3,a4
    32f6:	2294                	lbu	a3,0(a3)
    32f8:	00d7d6b3          	srl	a3,a5,a3
    32fc:	c514                	sw	a3,8(a0)
    32fe:	4254                	lw	a3,4(a2)
    3300:	82ad                	srli	a3,a3,0xb
    3302:	8a9d                	andi	a3,a3,7
    3304:	9736                	add	a4,a4,a3
    3306:	2318                	lbu	a4,0(a4)
    3308:	00e7d7b3          	srl	a5,a5,a4
    330c:	c55c                	sw	a5,12(a0)
    330e:	4258                	lw	a4,4(a2)
    3310:	8339                	srli	a4,a4,0xe
    3312:	00377693          	andi	a3,a4,3
    3316:	81018713          	addi	a4,gp,-2032 # 20000090 <ADCPrescTable>
    331a:	9736                	add	a4,a4,a3
    331c:	2318                	lbu	a4,0(a4)
    331e:	02e7d7b3          	divu	a5,a5,a4
    3322:	c91c                	sw	a5,16(a0)
    3324:	8082                	ret
    3326:	435c                	lw	a5,4(a4)
    3328:	4358                	lw	a4,4(a4)
    332a:	66c1                	lui	a3,0x10
    332c:	83c9                	srli	a5,a5,0x12
    332e:	8f75                	and	a4,a4,a3
    3330:	1ffff6b7          	lui	a3,0x1ffff
    3334:	70c6a683          	lw	a3,1804(a3) # 1ffff70c <_data_lma+0x1fff8c24>
    3338:	8bbd                	andi	a5,a5,15
    333a:	0789                	addi	a5,a5,2
    333c:	01169613          	slli	a2,a3,0x11
    3340:	00064863          	bltz	a2,3350 <RCC_GetClocksFreq+0x9e>
    3344:	46c5                	li	a3,17
    3346:	4601                	li	a2,0
    3348:	02d79263          	bne	a5,a3,336c <RCC_GetClocksFreq+0xba>
    334c:	47c9                	li	a5,18
    334e:	a839                	j	336c <RCC_GetClocksFreq+0xba>
    3350:	4689                	li	a3,2
    3352:	02d78f63          	beq	a5,a3,3390 <RCC_GetClocksFreq+0xde>
    3356:	46bd                	li	a3,15
    3358:	02d78e63          	beq	a5,a3,3394 <RCC_GetClocksFreq+0xe2>
    335c:	46c1                	li	a3,16
    335e:	02d78e63          	beq	a5,a3,339a <RCC_GetClocksFreq+0xe8>
    3362:	46c5                	li	a3,17
    3364:	4601                	li	a2,0
    3366:	00d79363          	bne	a5,a3,336c <RCC_GetClocksFreq+0xba>
    336a:	47c1                	li	a5,16
    336c:	ef1d                	bnez	a4,33aa <RCC_GetClocksFreq+0xf8>
    336e:	40024737          	lui	a4,0x40024
    3372:	80072703          	lw	a4,-2048(a4) # 40023800 <_eusrstack+0x2001b800>
    3376:	8b41                	andi	a4,a4,16
    3378:	c705                	beqz	a4,33a0 <RCC_GetClocksFreq+0xee>
    337a:	007a1737          	lui	a4,0x7a1
    337e:	20070713          	addi	a4,a4,512 # 7a1200 <_data_lma+0x79a718>
    3382:	02f707b3          	mul	a5,a4,a5
    3386:	c11c                	sw	a5,0(a0)
    3388:	d621                	beqz	a2,32d0 <RCC_GetClocksFreq+0x1e>
    338a:	411c                	lw	a5,0(a0)
    338c:	8385                	srli	a5,a5,0x1
    338e:	b781                	j	32ce <RCC_GetClocksFreq+0x1c>
    3390:	4601                	li	a2,0
    3392:	bf6d                	j	334c <RCC_GetClocksFreq+0x9a>
    3394:	4605                	li	a2,1
    3396:	47b5                	li	a5,13
    3398:	bfd1                	j	336c <RCC_GetClocksFreq+0xba>
    339a:	4601                	li	a2,0
    339c:	47bd                	li	a5,15
    339e:	b7f9                	j	336c <RCC_GetClocksFreq+0xba>
    33a0:	003d1737          	lui	a4,0x3d1
    33a4:	90070713          	addi	a4,a4,-1792 # 3d0900 <_data_lma+0x3c9e18>
    33a8:	bfe9                	j	3382 <RCC_GetClocksFreq+0xd0>
    33aa:	400215b7          	lui	a1,0x40021
    33ae:	55d8                	lw	a4,44(a1)
    33b0:	00f71693          	slli	a3,a4,0xf
    33b4:	55d8                	lw	a4,44(a1)
    33b6:	0406df63          	bgez	a3,3414 <RCC_GetClocksFreq+0x162>
    33ba:	8311                	srli	a4,a4,0x4
    33bc:	8b3d                	andi	a4,a4,15
    33be:	00170693          	addi	a3,a4,1
    33c2:	007a1737          	lui	a4,0x7a1
    33c6:	20070713          	addi	a4,a4,512 # 7a1200 <_data_lma+0x79a718>
    33ca:	02d75733          	divu	a4,a4,a3
    33ce:	c118                	sw	a4,0(a0)
    33d0:	55d4                	lw	a3,44(a1)
    33d2:	82a1                	srli	a3,a3,0x8
    33d4:	8abd                	andi	a3,a3,15
    33d6:	e28d                	bnez	a3,33f8 <RCC_GetClocksFreq+0x146>
    33d8:	4695                	li	a3,5
    33da:	02d70733          	mul	a4,a4,a3
    33de:	8305                	srli	a4,a4,0x1
    33e0:	c118                	sw	a4,0(a0)
    33e2:	40021737          	lui	a4,0x40021
    33e6:	5758                	lw	a4,44(a4)
    33e8:	4114                	lw	a3,0(a0)
    33ea:	8b3d                	andi	a4,a4,15
    33ec:	0705                	addi	a4,a4,1
    33ee:	02e6d733          	divu	a4,a3,a4
    33f2:	c118                	sw	a4,0(a0)
    33f4:	4118                	lw	a4,0(a0)
    33f6:	b771                	j	3382 <RCC_GetClocksFreq+0xd0>
    33f8:	4585                	li	a1,1
    33fa:	00b69463          	bne	a3,a1,3402 <RCC_GetClocksFreq+0x150>
    33fe:	46e5                	li	a3,25
    3400:	bfe9                	j	33da <RCC_GetClocksFreq+0x128>
    3402:	45bd                	li	a1,15
    3404:	00b69663          	bne	a3,a1,3410 <RCC_GetClocksFreq+0x15e>
    3408:	46d1                	li	a3,20
    340a:	02e68733          	mul	a4,a3,a4
    340e:	bfc9                	j	33e0 <RCC_GetClocksFreq+0x12e>
    3410:	0689                	addi	a3,a3,2
    3412:	bfe5                	j	340a <RCC_GetClocksFreq+0x158>
    3414:	8b3d                	andi	a4,a4,15
    3416:	00170693          	addi	a3,a4,1 # 40021001 <_eusrstack+0x20019001>
    341a:	007a1737          	lui	a4,0x7a1
    341e:	20070713          	addi	a4,a4,512 # 7a1200 <_data_lma+0x79a718>
    3422:	02d75733          	divu	a4,a4,a3
    3426:	b7f1                	j	33f2 <RCC_GetClocksFreq+0x140>

00003428 <RCC_AHBPeriphClockCmd>:
    3428:	c599                	beqz	a1,3436 <RCC_AHBPeriphClockCmd+0xe>
    342a:	40021737          	lui	a4,0x40021
    342e:	4b5c                	lw	a5,20(a4)
    3430:	8d5d                	or	a0,a0,a5
    3432:	cb48                	sw	a0,20(a4)
    3434:	8082                	ret
    3436:	400217b7          	lui	a5,0x40021
    343a:	4bd8                	lw	a4,20(a5)
    343c:	fff54513          	not	a0,a0
    3440:	8d79                	and	a0,a0,a4
    3442:	cbc8                	sw	a0,20(a5)
    3444:	8082                	ret

00003446 <RCC_APB2PeriphClockCmd>:
    3446:	c599                	beqz	a1,3454 <RCC_APB2PeriphClockCmd+0xe>
    3448:	40021737          	lui	a4,0x40021
    344c:	4f1c                	lw	a5,24(a4)
    344e:	8d5d                	or	a0,a0,a5
    3450:	cf08                	sw	a0,24(a4)
    3452:	8082                	ret
    3454:	400217b7          	lui	a5,0x40021
    3458:	4f98                	lw	a4,24(a5)
    345a:	fff54513          	not	a0,a0
    345e:	8d79                	and	a0,a0,a4
    3460:	cf88                	sw	a0,24(a5)
    3462:	8082                	ret

00003464 <RCC_APB1PeriphClockCmd>:
    3464:	c599                	beqz	a1,3472 <RCC_APB1PeriphClockCmd+0xe>
    3466:	40021737          	lui	a4,0x40021
    346a:	4f5c                	lw	a5,28(a4)
    346c:	8d5d                	or	a0,a0,a5
    346e:	cf48                	sw	a0,28(a4)
    3470:	8082                	ret
    3472:	400217b7          	lui	a5,0x40021
    3476:	4fd8                	lw	a4,28(a5)
    3478:	fff54513          	not	a0,a0
    347c:	8d79                	and	a0,a0,a4
    347e:	cfc8                	sw	a0,28(a5)
    3480:	8082                	ret

00003482 <SPI_Init>:
    3482:	211a                	lhu	a4,0(a0)
    3484:	678d                	lui	a5,0x3
    3486:	04078793          	addi	a5,a5,64 # 3040 <handle_reset+0x7c>
    348a:	21b6                	lhu	a3,2(a1)
    348c:	8f7d                	and	a4,a4,a5
    348e:	219e                	lhu	a5,0(a1)
    3490:	8fd5                	or	a5,a5,a3
    3492:	21d6                	lhu	a3,4(a1)
    3494:	8fd5                	or	a5,a5,a3
    3496:	21f6                	lhu	a3,6(a1)
    3498:	8fd5                	or	a5,a5,a3
    349a:	2596                	lhu	a3,8(a1)
    349c:	8fd5                	or	a5,a5,a3
    349e:	25b6                	lhu	a3,10(a1)
    34a0:	8fd5                	or	a5,a5,a3
    34a2:	25d6                	lhu	a3,12(a1)
    34a4:	8fd5                	or	a5,a5,a3
    34a6:	25f6                	lhu	a3,14(a1)
    34a8:	8fd5                	or	a5,a5,a3
    34aa:	8fd9                	or	a5,a5,a4
    34ac:	a11e                	sh	a5,0(a0)
    34ae:	2d5a                	lhu	a4,28(a0)
    34b0:	77fd                	lui	a5,0xfffff
    34b2:	7ff78793          	addi	a5,a5,2047 # fffff7ff <_eusrstack+0xdfff77ff>
    34b6:	8ff9                	and	a5,a5,a4
    34b8:	ad5e                	sh	a5,28(a0)
    34ba:	299e                	lhu	a5,16(a1)
    34bc:	a91e                	sh	a5,16(a0)
    34be:	8082                	ret

000034c0 <SPI_Cmd>:
    34c0:	211e                	lhu	a5,0(a0)
    34c2:	c589                	beqz	a1,34cc <SPI_Cmd+0xc>
    34c4:	0407e793          	ori	a5,a5,64
    34c8:	a11e                	sh	a5,0(a0)
    34ca:	8082                	ret
    34cc:	07c2                	slli	a5,a5,0x10
    34ce:	83c1                	srli	a5,a5,0x10
    34d0:	fbf7f793          	andi	a5,a5,-65
    34d4:	07c2                	slli	a5,a5,0x10
    34d6:	83c1                	srli	a5,a5,0x10
    34d8:	bfc5                	j	34c8 <SPI_Cmd+0x8>

000034da <SPI_I2S_SendData>:
    34da:	a54e                	sh	a1,12(a0)
    34dc:	8082                	ret

000034de <SPI_I2S_ReceiveData>:
    34de:	254a                	lhu	a0,12(a0)
    34e0:	8082                	ret

000034e2 <SPI_I2S_GetFlagStatus>:
    34e2:	250a                	lhu	a0,8(a0)
    34e4:	8d6d                	and	a0,a0,a1
    34e6:	00a03533          	snez	a0,a0
    34ea:	8082                	ret

000034ec <TIM_TimeBaseInit>:
    34ec:	1ffff737          	lui	a4,0x1ffff
    34f0:	70472703          	lw	a4,1796(a4) # 1ffff704 <_data_lma+0x1fff8c1c>
    34f4:	211e                	lhu	a5,0(a0)
    34f6:	4691                	li	a3,4
    34f8:	8311                	srli	a4,a4,0x4
    34fa:	8b3d                	andi	a4,a4,15
    34fc:	07c2                	slli	a5,a5,0x10
    34fe:	1771                	addi	a4,a4,-4
    3500:	83c1                	srli	a5,a5,0x10
    3502:	02e6e663          	bltu	a3,a4,352e <TIM_TimeBaseInit+0x42>
    3506:	40013737          	lui	a4,0x40013
    350a:	c0070693          	addi	a3,a4,-1024 # 40012c00 <_eusrstack+0x2000ac00>
    350e:	00d50e63          	beq	a0,a3,352a <TIM_TimeBaseInit+0x3e>
    3512:	40070713          	addi	a4,a4,1024
    3516:	00e50a63          	beq	a0,a4,352a <TIM_TimeBaseInit+0x3e>
    351a:	40015737          	lui	a4,0x40015
    351e:	c0070693          	addi	a3,a4,-1024 # 40014c00 <_eusrstack+0x2000cc00>
    3522:	00d50463          	beq	a0,a3,352a <TIM_TimeBaseInit+0x3e>
    3526:	00e51a63          	bne	a0,a4,353a <TIM_TimeBaseInit+0x4e>
    352a:	6709                	lui	a4,0x2
    352c:	8fd9                	or	a5,a5,a4
    352e:	40013737          	lui	a4,0x40013
    3532:	c0070713          	addi	a4,a4,-1024 # 40012c00 <_eusrstack+0x2000ac00>
    3536:	04e50263          	beq	a0,a4,357a <TIM_TimeBaseInit+0x8e>
    353a:	40000737          	lui	a4,0x40000
    353e:	02e50e63          	beq	a0,a4,357a <TIM_TimeBaseInit+0x8e>
    3542:	40070713          	addi	a4,a4,1024 # 40000400 <_eusrstack+0x1fff8400>
    3546:	02e50a63          	beq	a0,a4,357a <TIM_TimeBaseInit+0x8e>
    354a:	40001737          	lui	a4,0x40001
    354e:	80070693          	addi	a3,a4,-2048 # 40000800 <_eusrstack+0x1fff8800>
    3552:	02d50463          	beq	a0,a3,357a <TIM_TimeBaseInit+0x8e>
    3556:	c0070713          	addi	a4,a4,-1024
    355a:	02e50063          	beq	a0,a4,357a <TIM_TimeBaseInit+0x8e>
    355e:	40013737          	lui	a4,0x40013
    3562:	40070713          	addi	a4,a4,1024 # 40013400 <_eusrstack+0x2000b400>
    3566:	00e50a63          	beq	a0,a4,357a <TIM_TimeBaseInit+0x8e>
    356a:	40015737          	lui	a4,0x40015
    356e:	c0070693          	addi	a3,a4,-1024 # 40014c00 <_eusrstack+0x2000cc00>
    3572:	00d50463          	beq	a0,a3,357a <TIM_TimeBaseInit+0x8e>
    3576:	00e51863          	bne	a0,a4,3586 <TIM_TimeBaseInit+0x9a>
    357a:	f8f7f793          	andi	a5,a5,-113
    357e:	21ba                	lhu	a4,2(a1)
    3580:	07c2                	slli	a5,a5,0x10
    3582:	83c1                	srli	a5,a5,0x10
    3584:	8fd9                	or	a5,a5,a4
    3586:	40001737          	lui	a4,0x40001
    358a:	00e50c63          	beq	a0,a4,35a2 <TIM_TimeBaseInit+0xb6>
    358e:	40070713          	addi	a4,a4,1024 # 40001400 <_eusrstack+0x1fff9400>
    3592:	00e50863          	beq	a0,a4,35a2 <TIM_TimeBaseInit+0xb6>
    3596:	cff7f793          	andi	a5,a5,-769
    359a:	21fa                	lhu	a4,6(a1)
    359c:	07c2                	slli	a5,a5,0x10
    359e:	83c1                	srli	a5,a5,0x10
    35a0:	8fd9                	or	a5,a5,a4
    35a2:	a11e                	sh	a5,0(a0)
    35a4:	21de                	lhu	a5,4(a1)
    35a6:	b55e                	sh	a5,44(a0)
    35a8:	219e                	lhu	a5,0(a1)
    35aa:	b51e                	sh	a5,40(a0)
    35ac:	400137b7          	lui	a5,0x40013
    35b0:	c0078713          	addi	a4,a5,-1024 # 40012c00 <_eusrstack+0x2000ac00>
    35b4:	00e50e63          	beq	a0,a4,35d0 <TIM_TimeBaseInit+0xe4>
    35b8:	40078793          	addi	a5,a5,1024
    35bc:	00f50a63          	beq	a0,a5,35d0 <TIM_TimeBaseInit+0xe4>
    35c0:	400157b7          	lui	a5,0x40015
    35c4:	c0078713          	addi	a4,a5,-1024 # 40014c00 <_eusrstack+0x2000cc00>
    35c8:	00e50463          	beq	a0,a4,35d0 <TIM_TimeBaseInit+0xe4>
    35cc:	00f51463          	bne	a0,a5,35d4 <TIM_TimeBaseInit+0xe8>
    35d0:	259c                	lbu	a5,8(a1)
    35d2:	b91e                	sh	a5,48(a0)
    35d4:	4785                	li	a5,1
    35d6:	a95e                	sh	a5,20(a0)
    35d8:	8082                	ret

000035da <TIM_TimeBaseStructInit>:
    35da:	57fd                	li	a5,-1
    35dc:	a15e                	sh	a5,4(a0)
    35de:	00051023          	sh	zero,0(a0)
    35e2:	00051323          	sh	zero,6(a0)
    35e6:	00051123          	sh	zero,2(a0)
    35ea:	00050423          	sb	zero,8(a0)
    35ee:	8082                	ret

000035f0 <TIM_Cmd>:
    35f0:	211e                	lhu	a5,0(a0)
    35f2:	c589                	beqz	a1,35fc <TIM_Cmd+0xc>
    35f4:	0017e793          	ori	a5,a5,1
    35f8:	a11e                	sh	a5,0(a0)
    35fa:	8082                	ret
    35fc:	07c2                	slli	a5,a5,0x10
    35fe:	83c1                	srli	a5,a5,0x10
    3600:	9bf9                	andi	a5,a5,-2
    3602:	07c2                	slli	a5,a5,0x10
    3604:	83c1                	srli	a5,a5,0x10
    3606:	bfcd                	j	35f8 <TIM_Cmd+0x8>

00003608 <TIM_SelectOutputTrigger>:
    3608:	215e                	lhu	a5,4(a0)
    360a:	07c2                	slli	a5,a5,0x10
    360c:	83c1                	srli	a5,a5,0x10
    360e:	f8f7f793          	andi	a5,a5,-113
    3612:	07c2                	slli	a5,a5,0x10
    3614:	83c1                	srli	a5,a5,0x10
    3616:	a15e                	sh	a5,4(a0)
    3618:	215e                	lhu	a5,4(a0)
    361a:	8ddd                	or	a1,a1,a5
    361c:	a14e                	sh	a1,4(a0)
    361e:	8082                	ret

00003620 <USART_Init>:
    3620:	bd1fc2ef          	jal	t0,1f0 <__riscv_save_0>
    3624:	2916                	lhu	a3,16(a0)
    3626:	77f5                	lui	a5,0xffffd
    3628:	17fd                	addi	a5,a5,-1
    362a:	8ff5                	and	a5,a5,a3
    362c:	21f6                	lhu	a3,6(a1)
    362e:	25da                	lhu	a4,12(a1)
    3630:	7179                	addi	sp,sp,-48
    3632:	8fd5                	or	a5,a5,a3
    3634:	a91e                	sh	a5,16(a0)
    3636:	2556                	lhu	a3,12(a0)
    3638:	77fd                	lui	a5,0xfffff
    363a:	9f378793          	addi	a5,a5,-1549 # ffffe9f3 <_eusrstack+0xdfff69f3>
    363e:	8ff5                	and	a5,a5,a3
    3640:	21d6                	lhu	a3,4(a1)
    3642:	842a                	mv	s0,a0
    3644:	c62e                	sw	a1,12(sp)
    3646:	8fd5                	or	a5,a5,a3
    3648:	2596                	lhu	a3,8(a1)
    364a:	8fd5                	or	a5,a5,a3
    364c:	25b6                	lhu	a3,10(a1)
    364e:	8fd5                	or	a5,a5,a3
    3650:	a55e                	sh	a5,12(a0)
    3652:	295e                	lhu	a5,20(a0)
    3654:	07c2                	slli	a5,a5,0x10
    3656:	83c1                	srli	a5,a5,0x10
    3658:	cff7f793          	andi	a5,a5,-769
    365c:	8fd9                	or	a5,a5,a4
    365e:	a95e                	sh	a5,20(a0)
    3660:	0868                	addi	a0,sp,28
    3662:	3981                	jal	32b2 <RCC_GetClocksFreq>
    3664:	400147b7          	lui	a5,0x40014
    3668:	80078793          	addi	a5,a5,-2048 # 40013800 <_eusrstack+0x2000b800>
    366c:	45b2                	lw	a1,12(sp)
    366e:	02f41e63          	bne	s0,a5,36aa <USART_Init+0x8a>
    3672:	57a2                	lw	a5,40(sp)
    3674:	4765                	li	a4,25
    3676:	02e787b3          	mul	a5,a5,a4
    367a:	4198                	lw	a4,0(a1)
    367c:	06400693          	li	a3,100
    3680:	070a                	slli	a4,a4,0x2
    3682:	02e7d7b3          	divu	a5,a5,a4
    3686:	02d7d733          	divu	a4,a5,a3
    368a:	02d7f7b3          	remu	a5,a5,a3
    368e:	0712                	slli	a4,a4,0x4
    3690:	0792                	slli	a5,a5,0x4
    3692:	03278793          	addi	a5,a5,50
    3696:	02d7d7b3          	divu	a5,a5,a3
    369a:	8bbd                	andi	a5,a5,15
    369c:	8fd9                	or	a5,a5,a4
    369e:	07c2                	slli	a5,a5,0x10
    36a0:	83c1                	srli	a5,a5,0x10
    36a2:	a41e                	sh	a5,8(s0)
    36a4:	6145                	addi	sp,sp,48
    36a6:	b6ffc06f          	j	214 <__riscv_restore_0>
    36aa:	5792                	lw	a5,36(sp)
    36ac:	b7e1                	j	3674 <USART_Init+0x54>

000036ae <USART_Cmd>:
    36ae:	c591                	beqz	a1,36ba <USART_Cmd+0xc>
    36b0:	255e                	lhu	a5,12(a0)
    36b2:	6709                	lui	a4,0x2
    36b4:	8fd9                	or	a5,a5,a4
    36b6:	a55e                	sh	a5,12(a0)
    36b8:	8082                	ret
    36ba:	255a                	lhu	a4,12(a0)
    36bc:	77f9                	lui	a5,0xffffe
    36be:	17fd                	addi	a5,a5,-1
    36c0:	8ff9                	and	a5,a5,a4
    36c2:	bfd5                	j	36b6 <USART_Cmd+0x8>

000036c4 <USART_SendData>:
    36c4:	1ff5f593          	andi	a1,a1,511
    36c8:	a14e                	sh	a1,4(a0)
    36ca:	8082                	ret

000036cc <USART_GetFlagStatus>:
    36cc:	210a                	lhu	a0,0(a0)
    36ce:	8d6d                	and	a0,a0,a1
    36d0:	00a03533          	snez	a0,a0
    36d4:	8082                	ret

000036d6 <Delay_Init>:
    36d6:	80c1a783          	lw	a5,-2036(gp) # 2000008c <SystemCoreClock>
    36da:	007a1737          	lui	a4,0x7a1
    36de:	20070713          	addi	a4,a4,512 # 7a1200 <_data_lma+0x79a718>
    36e2:	02e7d7b3          	divu	a5,a5,a4
    36e6:	0ff7f793          	andi	a5,a5,255
    36ea:	84f18123          	sb	a5,-1982(gp) # 200000c2 <p_us>
    36ee:	3e800713          	li	a4,1000
    36f2:	02e787b3          	mul	a5,a5,a4
    36f6:	84f19023          	sh	a5,-1984(gp) # 200000c0 <p_ms>
    36fa:	8082                	ret

000036fc <Delay_Ms>:
    36fc:	e000f7b7          	lui	a5,0xe000f
    3700:	43d8                	lw	a4,4(a5)
    3702:	4681                	li	a3,0
    3704:	9b79                	andi	a4,a4,-2
    3706:	c3d8                	sw	a4,4(a5)
    3708:	8401d703          	lhu	a4,-1984(gp) # 200000c0 <p_ms>
    370c:	02a70633          	mul	a2,a4,a0
    3710:	cb90                	sw	a2,16(a5)
    3712:	cbd4                	sw	a3,20(a5)
    3714:	4398                	lw	a4,0(a5)
    3716:	01076713          	ori	a4,a4,16
    371a:	c398                	sw	a4,0(a5)
    371c:	4398                	lw	a4,0(a5)
    371e:	02176713          	ori	a4,a4,33
    3722:	c398                	sw	a4,0(a5)
    3724:	43d8                	lw	a4,4(a5)
    3726:	8b05                	andi	a4,a4,1
    3728:	df75                	beqz	a4,3724 <Delay_Ms+0x28>
    372a:	4398                	lw	a4,0(a5)
    372c:	9b79                	andi	a4,a4,-2
    372e:	c398                	sw	a4,0(a5)
    3730:	8082                	ret

00003732 <USART_Printf_Init>:
    3732:	abffc2ef          	jal	t0,1f0 <__riscv_save_0>
    3736:	1101                	addi	sp,sp,-32
    3738:	842a                	mv	s0,a0
    373a:	4585                	li	a1,1
    373c:	00040537          	lui	a0,0x40
    3740:	3315                	jal	3464 <RCC_APB1PeriphClockCmd>
    3742:	4585                	li	a1,1
    3744:	4521                	li	a0,8
    3746:	3301                	jal	3446 <RCC_APB2PeriphClockCmd>
    3748:	40000793          	li	a5,1024
    374c:	827c                	sh	a5,4(sp)
    374e:	40011537          	lui	a0,0x40011
    3752:	478d                	li	a5,3
    3754:	c43e                	sw	a5,8(sp)
    3756:	004c                	addi	a1,sp,4
    3758:	47e1                	li	a5,24
    375a:	c0050513          	addi	a0,a0,-1024 # 40010c00 <_eusrstack+0x20008c00>
    375e:	c63e                	sw	a5,12(sp)
    3760:	a83ff0ef          	jal	ra,31e2 <GPIO_Init>
    3764:	c822                	sw	s0,16(sp)
    3766:	40005437          	lui	s0,0x40005
    376a:	000807b7          	lui	a5,0x80
    376e:	080c                	addi	a1,sp,16
    3770:	80040513          	addi	a0,s0,-2048 # 40004800 <_eusrstack+0x1fffc800>
    3774:	cc3e                	sw	a5,24(sp)
    3776:	ca02                	sw	zero,20(sp)
    3778:	00011e23          	sh	zero,28(sp)
    377c:	3555                	jal	3620 <USART_Init>
    377e:	4585                	li	a1,1
    3780:	80040513          	addi	a0,s0,-2048
    3784:	372d                	jal	36ae <USART_Cmd>
    3786:	6105                	addi	sp,sp,32
    3788:	a8dfc06f          	j	214 <__riscv_restore_0>

0000378c <_write>:
    378c:	a4bfc2ef          	jal	t0,1d6 <__riscv_save_4>
    3790:	400054b7          	lui	s1,0x40005
    3794:	89ae                	mv	s3,a1
    3796:	8932                	mv	s2,a2
    3798:	4401                	li	s0,0
    379a:	80048493          	addi	s1,s1,-2048 # 40004800 <_eusrstack+0x1fffc800>
    379e:	01244563          	blt	s0,s2,37a8 <_write+0x1c>
    37a2:	854a                	mv	a0,s2
    37a4:	a67fc06f          	j	20a <__riscv_restore_4>
    37a8:	04000593          	li	a1,64
    37ac:	8526                	mv	a0,s1
    37ae:	3f39                	jal	36cc <USART_GetFlagStatus>
    37b0:	dd65                	beqz	a0,37a8 <_write+0x1c>
    37b2:	008987b3          	add	a5,s3,s0
    37b6:	00078583          	lb	a1,0(a5) # 80000 <_data_lma+0x79518>
    37ba:	8526                	mv	a0,s1
    37bc:	0405                	addi	s0,s0,1
    37be:	05c2                	slli	a1,a1,0x10
    37c0:	81c1                	srli	a1,a1,0x10
    37c2:	3709                	jal	36c4 <USART_SendData>
    37c4:	bfe9                	j	379e <_write+0x12>

000037c6 <_sbrk>:
    37c6:	81418713          	addi	a4,gp,-2028 # 20000094 <curbrk.5275>
    37ca:	431c                	lw	a5,0(a4)
    37cc:	200046b7          	lui	a3,0x20004
    37d0:	c9468693          	addi	a3,a3,-876 # 20003c94 <_ebss>
    37d4:	953e                	add	a0,a0,a5
    37d6:	00d56b63          	bltu	a0,a3,37ec <_sbrk+0x26>
    37da:	200076b7          	lui	a3,0x20007
    37de:	00468693          	addi	a3,a3,4 # 20007004 <_heap_end>
    37e2:	00a6e563          	bltu	a3,a0,37ec <_sbrk+0x26>
    37e6:	c308                	sw	a0,0(a4)
    37e8:	853e                	mv	a0,a5
    37ea:	8082                	ret
    37ec:	57fd                	li	a5,-1
    37ee:	bfed                	j	37e8 <_sbrk+0x22>

000037f0 <memcpy>:
    37f0:	00a5c7b3          	xor	a5,a1,a0
    37f4:	8b8d                	andi	a5,a5,3
    37f6:	00c50733          	add	a4,a0,a2
    37fa:	e781                	bnez	a5,3802 <memcpy+0x12>
    37fc:	478d                	li	a5,3
    37fe:	00c7ed63          	bltu	a5,a2,3818 <memcpy+0x28>
    3802:	87aa                	mv	a5,a0
    3804:	08e57e63          	bgeu	a0,a4,38a0 <memcpy+0xb0>
    3808:	2194                	lbu	a3,0(a1)
    380a:	0785                	addi	a5,a5,1
    380c:	0585                	addi	a1,a1,1
    380e:	fed78fa3          	sb	a3,-1(a5)
    3812:	fee7ebe3          	bltu	a5,a4,3808 <memcpy+0x18>
    3816:	8082                	ret
    3818:	00357693          	andi	a3,a0,3
    381c:	87aa                	mv	a5,a0
    381e:	ca89                	beqz	a3,3830 <memcpy+0x40>
    3820:	2194                	lbu	a3,0(a1)
    3822:	0785                	addi	a5,a5,1
    3824:	0585                	addi	a1,a1,1
    3826:	fed78fa3          	sb	a3,-1(a5)
    382a:	0037f693          	andi	a3,a5,3
    382e:	bfc5                	j	381e <memcpy+0x2e>
    3830:	ffc77693          	andi	a3,a4,-4
    3834:	fe068613          	addi	a2,a3,-32
    3838:	06c7f063          	bgeu	a5,a2,3898 <memcpy+0xa8>
    383c:	0005a383          	lw	t2,0(a1) # 40021000 <_eusrstack+0x20019000>
    3840:	0045a283          	lw	t0,4(a1)
    3844:	0085af83          	lw	t6,8(a1)
    3848:	00c5af03          	lw	t5,12(a1)
    384c:	0105ae83          	lw	t4,16(a1)
    3850:	0145ae03          	lw	t3,20(a1)
    3854:	0185a303          	lw	t1,24(a1)
    3858:	01c5a883          	lw	a7,28(a1)
    385c:	02458593          	addi	a1,a1,36
    3860:	0077a023          	sw	t2,0(a5)
    3864:	ffc5a803          	lw	a6,-4(a1)
    3868:	0057a223          	sw	t0,4(a5)
    386c:	01f7a423          	sw	t6,8(a5)
    3870:	01e7a623          	sw	t5,12(a5)
    3874:	01d7a823          	sw	t4,16(a5)
    3878:	01c7aa23          	sw	t3,20(a5)
    387c:	0067ac23          	sw	t1,24(a5)
    3880:	0117ae23          	sw	a7,28(a5)
    3884:	02478793          	addi	a5,a5,36
    3888:	ff07ae23          	sw	a6,-4(a5)
    388c:	b775                	j	3838 <memcpy+0x48>
    388e:	4190                	lw	a2,0(a1)
    3890:	0791                	addi	a5,a5,4
    3892:	0591                	addi	a1,a1,4
    3894:	fec7ae23          	sw	a2,-4(a5)
    3898:	fed7ebe3          	bltu	a5,a3,388e <memcpy+0x9e>
    389c:	f6e7e6e3          	bltu	a5,a4,3808 <memcpy+0x18>
    38a0:	8082                	ret

000038a2 <memmove>:
    38a2:	04a5f163          	bgeu	a1,a0,38e4 <memmove+0x42>
    38a6:	00c586b3          	add	a3,a1,a2
    38aa:	02d57d63          	bgeu	a0,a3,38e4 <memmove+0x42>
    38ae:	fff64593          	not	a1,a2
    38b2:	4781                	li	a5,0
    38b4:	17fd                	addi	a5,a5,-1
    38b6:	00f59363          	bne	a1,a5,38bc <memmove+0x1a>
    38ba:	8082                	ret
    38bc:	00f68733          	add	a4,a3,a5
    38c0:	00074803          	lbu	a6,0(a4)
    38c4:	00c78733          	add	a4,a5,a2
    38c8:	972a                	add	a4,a4,a0
    38ca:	01070023          	sb	a6,0(a4)
    38ce:	b7dd                	j	38b4 <memmove+0x12>
    38d0:	00f58733          	add	a4,a1,a5
    38d4:	2314                	lbu	a3,0(a4)
    38d6:	00f50733          	add	a4,a0,a5
    38da:	0785                	addi	a5,a5,1
    38dc:	a314                	sb	a3,0(a4)
    38de:	fef619e3          	bne	a2,a5,38d0 <memmove+0x2e>
    38e2:	8082                	ret
    38e4:	4781                	li	a5,0
    38e6:	bfe5                	j	38de <memmove+0x3c>

000038e8 <iprintf>:
    38e8:	7139                	addi	sp,sp,-64
    38ea:	da3e                	sw	a5,52(sp)
    38ec:	d22e                	sw	a1,36(sp)
    38ee:	d432                	sw	a2,40(sp)
    38f0:	d636                	sw	a3,44(sp)
    38f2:	d83a                	sw	a4,48(sp)
    38f4:	dc42                	sw	a6,56(sp)
    38f6:	de46                	sw	a7,60(sp)
    38f8:	81818793          	addi	a5,gp,-2024 # 20000098 <_impure_ptr>
    38fc:	cc22                	sw	s0,24(sp)
    38fe:	4380                	lw	s0,0(a5)
    3900:	ca26                	sw	s1,20(sp)
    3902:	ce06                	sw	ra,28(sp)
    3904:	84aa                	mv	s1,a0
    3906:	c409                	beqz	s0,3910 <iprintf+0x28>
    3908:	4c1c                	lw	a5,24(s0)
    390a:	e399                	bnez	a5,3910 <iprintf+0x28>
    390c:	8522                	mv	a0,s0
    390e:	29ed                	jal	3e08 <__sinit>
    3910:	440c                	lw	a1,8(s0)
    3912:	1054                	addi	a3,sp,36
    3914:	8626                	mv	a2,s1
    3916:	8522                	mv	a0,s0
    3918:	c636                	sw	a3,12(sp)
    391a:	127000ef          	jal	ra,4240 <_vfiprintf_r>
    391e:	40f2                	lw	ra,28(sp)
    3920:	4462                	lw	s0,24(sp)
    3922:	44d2                	lw	s1,20(sp)
    3924:	6121                	addi	sp,sp,64
    3926:	8082                	ret

00003928 <_puts_r>:
    3928:	1101                	addi	sp,sp,-32
    392a:	ca26                	sw	s1,20(sp)
    392c:	c84a                	sw	s2,16(sp)
    392e:	ce06                	sw	ra,28(sp)
    3930:	cc22                	sw	s0,24(sp)
    3932:	c64e                	sw	s3,12(sp)
    3934:	c452                	sw	s4,8(sp)
    3936:	84aa                	mv	s1,a0
    3938:	892e                	mv	s2,a1
    393a:	c501                	beqz	a0,3942 <_puts_r+0x1a>
    393c:	4d1c                	lw	a5,24(a0)
    393e:	e391                	bnez	a5,3942 <_puts_r+0x1a>
    3940:	21e1                	jal	3e08 <__sinit>
    3942:	4c9c                	lw	a5,24(s1)
    3944:	4480                	lw	s0,8(s1)
    3946:	e399                	bnez	a5,394c <_puts_r+0x24>
    3948:	8526                	mv	a0,s1
    394a:	297d                	jal	3e08 <__sinit>
    394c:	00003797          	auipc	a5,0x3
    3950:	12078793          	addi	a5,a5,288 # 6a6c <__sf_fake_stdin>
    3954:	02f41b63          	bne	s0,a5,398a <_puts_r+0x62>
    3958:	40c0                	lw	s0,4(s1)
    395a:	245e                	lhu	a5,12(s0)
    395c:	8ba1                	andi	a5,a5,8
    395e:	c7b1                	beqz	a5,39aa <_puts_r+0x82>
    3960:	481c                	lw	a5,16(s0)
    3962:	c7a1                	beqz	a5,39aa <_puts_r+0x82>
    3964:	59fd                	li	s3,-1
    3966:	4a29                	li	s4,10
    3968:	441c                	lw	a5,8(s0)
    396a:	00094583          	lbu	a1,0(s2)
    396e:	17fd                	addi	a5,a5,-1
    3970:	e9b1                	bnez	a1,39c4 <_puts_r+0x9c>
    3972:	c41c                	sw	a5,8(s0)
    3974:	0607dd63          	bgez	a5,39ee <_puts_r+0xc6>
    3978:	8622                	mv	a2,s0
    397a:	45a9                	li	a1,10
    397c:	8526                	mv	a0,s1
    397e:	2061                	jal	3a06 <__swbuf_r>
    3980:	57fd                	li	a5,-1
    3982:	02f50863          	beq	a0,a5,39b2 <_puts_r+0x8a>
    3986:	4529                	li	a0,10
    3988:	a035                	j	39b4 <_puts_r+0x8c>
    398a:	00003797          	auipc	a5,0x3
    398e:	10278793          	addi	a5,a5,258 # 6a8c <__sf_fake_stdout>
    3992:	00f41463          	bne	s0,a5,399a <_puts_r+0x72>
    3996:	4480                	lw	s0,8(s1)
    3998:	b7c9                	j	395a <_puts_r+0x32>
    399a:	00003797          	auipc	a5,0x3
    399e:	0b278793          	addi	a5,a5,178 # 6a4c <__sf_fake_stderr>
    39a2:	faf41ce3          	bne	s0,a5,395a <_puts_r+0x32>
    39a6:	44c0                	lw	s0,12(s1)
    39a8:	bf4d                	j	395a <_puts_r+0x32>
    39aa:	85a2                	mv	a1,s0
    39ac:	8526                	mv	a0,s1
    39ae:	2a11                	jal	3ac2 <__swsetup_r>
    39b0:	d955                	beqz	a0,3964 <_puts_r+0x3c>
    39b2:	557d                	li	a0,-1
    39b4:	40f2                	lw	ra,28(sp)
    39b6:	4462                	lw	s0,24(sp)
    39b8:	44d2                	lw	s1,20(sp)
    39ba:	4942                	lw	s2,16(sp)
    39bc:	49b2                	lw	s3,12(sp)
    39be:	4a22                	lw	s4,8(sp)
    39c0:	6105                	addi	sp,sp,32
    39c2:	8082                	ret
    39c4:	c41c                	sw	a5,8(s0)
    39c6:	0905                	addi	s2,s2,1
    39c8:	0007d763          	bgez	a5,39d6 <_puts_r+0xae>
    39cc:	4c18                	lw	a4,24(s0)
    39ce:	00e7ca63          	blt	a5,a4,39e2 <_puts_r+0xba>
    39d2:	01458863          	beq	a1,s4,39e2 <_puts_r+0xba>
    39d6:	401c                	lw	a5,0(s0)
    39d8:	00178713          	addi	a4,a5,1
    39dc:	c018                	sw	a4,0(s0)
    39de:	a38c                	sb	a1,0(a5)
    39e0:	b761                	j	3968 <_puts_r+0x40>
    39e2:	8622                	mv	a2,s0
    39e4:	8526                	mv	a0,s1
    39e6:	2005                	jal	3a06 <__swbuf_r>
    39e8:	f93510e3          	bne	a0,s3,3968 <_puts_r+0x40>
    39ec:	b7d9                	j	39b2 <_puts_r+0x8a>
    39ee:	401c                	lw	a5,0(s0)
    39f0:	00178713          	addi	a4,a5,1
    39f4:	c018                	sw	a4,0(s0)
    39f6:	4729                	li	a4,10
    39f8:	a398                	sb	a4,0(a5)
    39fa:	b771                	j	3986 <_puts_r+0x5e>

000039fc <puts>:
    39fc:	81818793          	addi	a5,gp,-2024 # 20000098 <_impure_ptr>
    3a00:	85aa                	mv	a1,a0
    3a02:	4388                	lw	a0,0(a5)
    3a04:	b715                	j	3928 <_puts_r>

00003a06 <__swbuf_r>:
    3a06:	1101                	addi	sp,sp,-32
    3a08:	cc22                	sw	s0,24(sp)
    3a0a:	ca26                	sw	s1,20(sp)
    3a0c:	c84a                	sw	s2,16(sp)
    3a0e:	ce06                	sw	ra,28(sp)
    3a10:	c64e                	sw	s3,12(sp)
    3a12:	84aa                	mv	s1,a0
    3a14:	892e                	mv	s2,a1
    3a16:	8432                	mv	s0,a2
    3a18:	c501                	beqz	a0,3a20 <__swbuf_r+0x1a>
    3a1a:	4d1c                	lw	a5,24(a0)
    3a1c:	e391                	bnez	a5,3a20 <__swbuf_r+0x1a>
    3a1e:	26ed                	jal	3e08 <__sinit>
    3a20:	00003797          	auipc	a5,0x3
    3a24:	04c78793          	addi	a5,a5,76 # 6a6c <__sf_fake_stdin>
    3a28:	06f41763          	bne	s0,a5,3a96 <__swbuf_r+0x90>
    3a2c:	40c0                	lw	s0,4(s1)
    3a2e:	4c1c                	lw	a5,24(s0)
    3a30:	c41c                	sw	a5,8(s0)
    3a32:	245e                	lhu	a5,12(s0)
    3a34:	8ba1                	andi	a5,a5,8
    3a36:	c3c1                	beqz	a5,3ab6 <__swbuf_r+0xb0>
    3a38:	481c                	lw	a5,16(s0)
    3a3a:	cfb5                	beqz	a5,3ab6 <__swbuf_r+0xb0>
    3a3c:	481c                	lw	a5,16(s0)
    3a3e:	4008                	lw	a0,0(s0)
    3a40:	0ff97993          	andi	s3,s2,255
    3a44:	0ff97913          	andi	s2,s2,255
    3a48:	8d1d                	sub	a0,a0,a5
    3a4a:	485c                	lw	a5,20(s0)
    3a4c:	00f54663          	blt	a0,a5,3a58 <__swbuf_r+0x52>
    3a50:	85a2                	mv	a1,s0
    3a52:	8526                	mv	a0,s1
    3a54:	2c69                	jal	3cee <_fflush_r>
    3a56:	e525                	bnez	a0,3abe <__swbuf_r+0xb8>
    3a58:	441c                	lw	a5,8(s0)
    3a5a:	0505                	addi	a0,a0,1
    3a5c:	17fd                	addi	a5,a5,-1
    3a5e:	c41c                	sw	a5,8(s0)
    3a60:	401c                	lw	a5,0(s0)
    3a62:	00178713          	addi	a4,a5,1
    3a66:	c018                	sw	a4,0(s0)
    3a68:	01378023          	sb	s3,0(a5)
    3a6c:	485c                	lw	a5,20(s0)
    3a6e:	00a78863          	beq	a5,a0,3a7e <__swbuf_r+0x78>
    3a72:	245e                	lhu	a5,12(s0)
    3a74:	8b85                	andi	a5,a5,1
    3a76:	cb81                	beqz	a5,3a86 <__swbuf_r+0x80>
    3a78:	47a9                	li	a5,10
    3a7a:	00f91663          	bne	s2,a5,3a86 <__swbuf_r+0x80>
    3a7e:	85a2                	mv	a1,s0
    3a80:	8526                	mv	a0,s1
    3a82:	24b5                	jal	3cee <_fflush_r>
    3a84:	ed0d                	bnez	a0,3abe <__swbuf_r+0xb8>
    3a86:	40f2                	lw	ra,28(sp)
    3a88:	4462                	lw	s0,24(sp)
    3a8a:	854a                	mv	a0,s2
    3a8c:	44d2                	lw	s1,20(sp)
    3a8e:	4942                	lw	s2,16(sp)
    3a90:	49b2                	lw	s3,12(sp)
    3a92:	6105                	addi	sp,sp,32
    3a94:	8082                	ret
    3a96:	00003797          	auipc	a5,0x3
    3a9a:	ff678793          	addi	a5,a5,-10 # 6a8c <__sf_fake_stdout>
    3a9e:	00f41463          	bne	s0,a5,3aa6 <__swbuf_r+0xa0>
    3aa2:	4480                	lw	s0,8(s1)
    3aa4:	b769                	j	3a2e <__swbuf_r+0x28>
    3aa6:	00003797          	auipc	a5,0x3
    3aaa:	fa678793          	addi	a5,a5,-90 # 6a4c <__sf_fake_stderr>
    3aae:	f8f410e3          	bne	s0,a5,3a2e <__swbuf_r+0x28>
    3ab2:	44c0                	lw	s0,12(s1)
    3ab4:	bfad                	j	3a2e <__swbuf_r+0x28>
    3ab6:	85a2                	mv	a1,s0
    3ab8:	8526                	mv	a0,s1
    3aba:	2021                	jal	3ac2 <__swsetup_r>
    3abc:	d141                	beqz	a0,3a3c <__swbuf_r+0x36>
    3abe:	597d                	li	s2,-1
    3ac0:	b7d9                	j	3a86 <__swbuf_r+0x80>

00003ac2 <__swsetup_r>:
    3ac2:	1141                	addi	sp,sp,-16
    3ac4:	81818793          	addi	a5,gp,-2024 # 20000098 <_impure_ptr>
    3ac8:	c226                	sw	s1,4(sp)
    3aca:	4384                	lw	s1,0(a5)
    3acc:	c422                	sw	s0,8(sp)
    3ace:	c04a                	sw	s2,0(sp)
    3ad0:	c606                	sw	ra,12(sp)
    3ad2:	892a                	mv	s2,a0
    3ad4:	842e                	mv	s0,a1
    3ad6:	c489                	beqz	s1,3ae0 <__swsetup_r+0x1e>
    3ad8:	4c9c                	lw	a5,24(s1)
    3ada:	e399                	bnez	a5,3ae0 <__swsetup_r+0x1e>
    3adc:	8526                	mv	a0,s1
    3ade:	262d                	jal	3e08 <__sinit>
    3ae0:	00003797          	auipc	a5,0x3
    3ae4:	f8c78793          	addi	a5,a5,-116 # 6a6c <__sf_fake_stdin>
    3ae8:	02f41b63          	bne	s0,a5,3b1e <__swsetup_r+0x5c>
    3aec:	40c0                	lw	s0,4(s1)
    3aee:	00c41703          	lh	a4,12(s0)
    3af2:	01071793          	slli	a5,a4,0x10
    3af6:	83c1                	srli	a5,a5,0x10
    3af8:	0087f693          	andi	a3,a5,8
    3afc:	eaad                	bnez	a3,3b6e <__swsetup_r+0xac>
    3afe:	0107f693          	andi	a3,a5,16
    3b02:	ee95                	bnez	a3,3b3e <__swsetup_r+0x7c>
    3b04:	47a5                	li	a5,9
    3b06:	00f92023          	sw	a5,0(s2)
    3b0a:	04076713          	ori	a4,a4,64
    3b0e:	a45a                	sh	a4,12(s0)
    3b10:	557d                	li	a0,-1
    3b12:	40b2                	lw	ra,12(sp)
    3b14:	4422                	lw	s0,8(sp)
    3b16:	4492                	lw	s1,4(sp)
    3b18:	4902                	lw	s2,0(sp)
    3b1a:	0141                	addi	sp,sp,16
    3b1c:	8082                	ret
    3b1e:	00003797          	auipc	a5,0x3
    3b22:	f6e78793          	addi	a5,a5,-146 # 6a8c <__sf_fake_stdout>
    3b26:	00f41463          	bne	s0,a5,3b2e <__swsetup_r+0x6c>
    3b2a:	4480                	lw	s0,8(s1)
    3b2c:	b7c9                	j	3aee <__swsetup_r+0x2c>
    3b2e:	00003797          	auipc	a5,0x3
    3b32:	f1e78793          	addi	a5,a5,-226 # 6a4c <__sf_fake_stderr>
    3b36:	faf41ce3          	bne	s0,a5,3aee <__swsetup_r+0x2c>
    3b3a:	44c0                	lw	s0,12(s1)
    3b3c:	bf4d                	j	3aee <__swsetup_r+0x2c>
    3b3e:	8b91                	andi	a5,a5,4
    3b40:	c39d                	beqz	a5,3b66 <__swsetup_r+0xa4>
    3b42:	584c                	lw	a1,52(s0)
    3b44:	c989                	beqz	a1,3b56 <__swsetup_r+0x94>
    3b46:	04440793          	addi	a5,s0,68
    3b4a:	00f58463          	beq	a1,a5,3b52 <__swsetup_r+0x90>
    3b4e:	854a                	mv	a0,s2
    3b50:	2331                	jal	405c <_free_r>
    3b52:	02042a23          	sw	zero,52(s0)
    3b56:	245e                	lhu	a5,12(s0)
    3b58:	00042223          	sw	zero,4(s0)
    3b5c:	fdb7f793          	andi	a5,a5,-37
    3b60:	a45e                	sh	a5,12(s0)
    3b62:	481c                	lw	a5,16(s0)
    3b64:	c01c                	sw	a5,0(s0)
    3b66:	245e                	lhu	a5,12(s0)
    3b68:	0087e793          	ori	a5,a5,8
    3b6c:	a45e                	sh	a5,12(s0)
    3b6e:	481c                	lw	a5,16(s0)
    3b70:	eb99                	bnez	a5,3b86 <__swsetup_r+0xc4>
    3b72:	245e                	lhu	a5,12(s0)
    3b74:	20000713          	li	a4,512
    3b78:	2807f793          	andi	a5,a5,640
    3b7c:	00e78563          	beq	a5,a4,3b86 <__swsetup_r+0xc4>
    3b80:	85a2                	mv	a1,s0
    3b82:	854a                	mv	a0,s2
    3b84:	21a1                	jal	3fcc <__smakebuf_r>
    3b86:	245e                	lhu	a5,12(s0)
    3b88:	0017f713          	andi	a4,a5,1
    3b8c:	c31d                	beqz	a4,3bb2 <__swsetup_r+0xf0>
    3b8e:	485c                	lw	a5,20(s0)
    3b90:	00042423          	sw	zero,8(s0)
    3b94:	40f007b3          	neg	a5,a5
    3b98:	cc1c                	sw	a5,24(s0)
    3b9a:	481c                	lw	a5,16(s0)
    3b9c:	4501                	li	a0,0
    3b9e:	fbb5                	bnez	a5,3b12 <__swsetup_r+0x50>
    3ba0:	00c41783          	lh	a5,12(s0)
    3ba4:	0807f713          	andi	a4,a5,128
    3ba8:	d72d                	beqz	a4,3b12 <__swsetup_r+0x50>
    3baa:	0407e793          	ori	a5,a5,64
    3bae:	a45e                	sh	a5,12(s0)
    3bb0:	b785                	j	3b10 <__swsetup_r+0x4e>
    3bb2:	8b89                	andi	a5,a5,2
    3bb4:	4701                	li	a4,0
    3bb6:	e391                	bnez	a5,3bba <__swsetup_r+0xf8>
    3bb8:	4858                	lw	a4,20(s0)
    3bba:	c418                	sw	a4,8(s0)
    3bbc:	bff9                	j	3b9a <__swsetup_r+0xd8>

00003bbe <__sflush_r>:
    3bbe:	25de                	lhu	a5,12(a1)
    3bc0:	1101                	addi	sp,sp,-32
    3bc2:	cc22                	sw	s0,24(sp)
    3bc4:	ca26                	sw	s1,20(sp)
    3bc6:	ce06                	sw	ra,28(sp)
    3bc8:	c84a                	sw	s2,16(sp)
    3bca:	c64e                	sw	s3,12(sp)
    3bcc:	0087f713          	andi	a4,a5,8
    3bd0:	84aa                	mv	s1,a0
    3bd2:	842e                	mv	s0,a1
    3bd4:	eb79                	bnez	a4,3caa <__sflush_r+0xec>
    3bd6:	41d8                	lw	a4,4(a1)
    3bd8:	00e04d63          	bgtz	a4,3bf2 <__sflush_r+0x34>
    3bdc:	41b8                	lw	a4,64(a1)
    3bde:	00e04a63          	bgtz	a4,3bf2 <__sflush_r+0x34>
    3be2:	4501                	li	a0,0
    3be4:	40f2                	lw	ra,28(sp)
    3be6:	4462                	lw	s0,24(sp)
    3be8:	44d2                	lw	s1,20(sp)
    3bea:	4942                	lw	s2,16(sp)
    3bec:	49b2                	lw	s3,12(sp)
    3bee:	6105                	addi	sp,sp,32
    3bf0:	8082                	ret
    3bf2:	5458                	lw	a4,44(s0)
    3bf4:	d77d                	beqz	a4,3be2 <__sflush_r+0x24>
    3bf6:	0004a903          	lw	s2,0(s1)
    3bfa:	01379693          	slli	a3,a5,0x13
    3bfe:	0004a023          	sw	zero,0(s1)
    3c02:	0606db63          	bgez	a3,3c78 <__sflush_r+0xba>
    3c06:	4870                	lw	a2,84(s0)
    3c08:	245e                	lhu	a5,12(s0)
    3c0a:	8b91                	andi	a5,a5,4
    3c0c:	c799                	beqz	a5,3c1a <__sflush_r+0x5c>
    3c0e:	405c                	lw	a5,4(s0)
    3c10:	8e1d                	sub	a2,a2,a5
    3c12:	585c                	lw	a5,52(s0)
    3c14:	c399                	beqz	a5,3c1a <__sflush_r+0x5c>
    3c16:	403c                	lw	a5,64(s0)
    3c18:	8e1d                	sub	a2,a2,a5
    3c1a:	545c                	lw	a5,44(s0)
    3c1c:	500c                	lw	a1,32(s0)
    3c1e:	4681                	li	a3,0
    3c20:	8526                	mv	a0,s1
    3c22:	9782                	jalr	a5
    3c24:	57fd                	li	a5,-1
    3c26:	245a                	lhu	a4,12(s0)
    3c28:	00f51d63          	bne	a0,a5,3c42 <__sflush_r+0x84>
    3c2c:	4094                	lw	a3,0(s1)
    3c2e:	47f5                	li	a5,29
    3c30:	06d7e863          	bltu	a5,a3,3ca0 <__sflush_r+0xe2>
    3c34:	204007b7          	lui	a5,0x20400
    3c38:	0785                	addi	a5,a5,1
    3c3a:	00d7d7b3          	srl	a5,a5,a3
    3c3e:	8b85                	andi	a5,a5,1
    3c40:	c3a5                	beqz	a5,3ca0 <__sflush_r+0xe2>
    3c42:	481c                	lw	a5,16(s0)
    3c44:	00042223          	sw	zero,4(s0)
    3c48:	c01c                	sw	a5,0(s0)
    3c4a:	01371793          	slli	a5,a4,0x13
    3c4e:	0007d863          	bgez	a5,3c5e <__sflush_r+0xa0>
    3c52:	57fd                	li	a5,-1
    3c54:	00f51463          	bne	a0,a5,3c5c <__sflush_r+0x9e>
    3c58:	409c                	lw	a5,0(s1)
    3c5a:	e391                	bnez	a5,3c5e <__sflush_r+0xa0>
    3c5c:	c868                	sw	a0,84(s0)
    3c5e:	584c                	lw	a1,52(s0)
    3c60:	0124a023          	sw	s2,0(s1)
    3c64:	ddbd                	beqz	a1,3be2 <__sflush_r+0x24>
    3c66:	04440793          	addi	a5,s0,68
    3c6a:	00f58463          	beq	a1,a5,3c72 <__sflush_r+0xb4>
    3c6e:	8526                	mv	a0,s1
    3c70:	26f5                	jal	405c <_free_r>
    3c72:	02042a23          	sw	zero,52(s0)
    3c76:	b7b5                	j	3be2 <__sflush_r+0x24>
    3c78:	500c                	lw	a1,32(s0)
    3c7a:	4601                	li	a2,0
    3c7c:	4685                	li	a3,1
    3c7e:	8526                	mv	a0,s1
    3c80:	9702                	jalr	a4
    3c82:	57fd                	li	a5,-1
    3c84:	862a                	mv	a2,a0
    3c86:	f8f511e3          	bne	a0,a5,3c08 <__sflush_r+0x4a>
    3c8a:	409c                	lw	a5,0(s1)
    3c8c:	dfb5                	beqz	a5,3c08 <__sflush_r+0x4a>
    3c8e:	4775                	li	a4,29
    3c90:	00e78563          	beq	a5,a4,3c9a <__sflush_r+0xdc>
    3c94:	4759                	li	a4,22
    3c96:	04e79363          	bne	a5,a4,3cdc <__sflush_r+0x11e>
    3c9a:	0124a023          	sw	s2,0(s1)
    3c9e:	b791                	j	3be2 <__sflush_r+0x24>
    3ca0:	04076713          	ori	a4,a4,64
    3ca4:	a45a                	sh	a4,12(s0)
    3ca6:	557d                	li	a0,-1
    3ca8:	bf35                	j	3be4 <__sflush_r+0x26>
    3caa:	0105a983          	lw	s3,16(a1)
    3cae:	f2098ae3          	beqz	s3,3be2 <__sflush_r+0x24>
    3cb2:	0005a903          	lw	s2,0(a1)
    3cb6:	8b8d                	andi	a5,a5,3
    3cb8:	0135a023          	sw	s3,0(a1)
    3cbc:	41390933          	sub	s2,s2,s3
    3cc0:	4701                	li	a4,0
    3cc2:	e391                	bnez	a5,3cc6 <__sflush_r+0x108>
    3cc4:	49d8                	lw	a4,20(a1)
    3cc6:	c418                	sw	a4,8(s0)
    3cc8:	f1205de3          	blez	s2,3be2 <__sflush_r+0x24>
    3ccc:	541c                	lw	a5,40(s0)
    3cce:	500c                	lw	a1,32(s0)
    3cd0:	86ca                	mv	a3,s2
    3cd2:	864e                	mv	a2,s3
    3cd4:	8526                	mv	a0,s1
    3cd6:	9782                	jalr	a5
    3cd8:	00a04763          	bgtz	a0,3ce6 <__sflush_r+0x128>
    3cdc:	245e                	lhu	a5,12(s0)
    3cde:	0407e793          	ori	a5,a5,64
    3ce2:	a45e                	sh	a5,12(s0)
    3ce4:	b7c9                	j	3ca6 <__sflush_r+0xe8>
    3ce6:	99aa                	add	s3,s3,a0
    3ce8:	40a90933          	sub	s2,s2,a0
    3cec:	bff1                	j	3cc8 <__sflush_r+0x10a>

00003cee <_fflush_r>:
    3cee:	499c                	lw	a5,16(a1)
    3cf0:	cfb9                	beqz	a5,3d4e <_fflush_r+0x60>
    3cf2:	1101                	addi	sp,sp,-32
    3cf4:	cc22                	sw	s0,24(sp)
    3cf6:	ce06                	sw	ra,28(sp)
    3cf8:	842a                	mv	s0,a0
    3cfa:	c511                	beqz	a0,3d06 <_fflush_r+0x18>
    3cfc:	4d1c                	lw	a5,24(a0)
    3cfe:	e781                	bnez	a5,3d06 <_fflush_r+0x18>
    3d00:	c62e                	sw	a1,12(sp)
    3d02:	2219                	jal	3e08 <__sinit>
    3d04:	45b2                	lw	a1,12(sp)
    3d06:	00003797          	auipc	a5,0x3
    3d0a:	d6678793          	addi	a5,a5,-666 # 6a6c <__sf_fake_stdin>
    3d0e:	00f59b63          	bne	a1,a5,3d24 <_fflush_r+0x36>
    3d12:	404c                	lw	a1,4(s0)
    3d14:	00c59783          	lh	a5,12(a1)
    3d18:	c795                	beqz	a5,3d44 <_fflush_r+0x56>
    3d1a:	8522                	mv	a0,s0
    3d1c:	4462                	lw	s0,24(sp)
    3d1e:	40f2                	lw	ra,28(sp)
    3d20:	6105                	addi	sp,sp,32
    3d22:	bd71                	j	3bbe <__sflush_r>
    3d24:	00003797          	auipc	a5,0x3
    3d28:	d6878793          	addi	a5,a5,-664 # 6a8c <__sf_fake_stdout>
    3d2c:	00f59463          	bne	a1,a5,3d34 <_fflush_r+0x46>
    3d30:	440c                	lw	a1,8(s0)
    3d32:	b7cd                	j	3d14 <_fflush_r+0x26>
    3d34:	00003797          	auipc	a5,0x3
    3d38:	d1878793          	addi	a5,a5,-744 # 6a4c <__sf_fake_stderr>
    3d3c:	fcf59ce3          	bne	a1,a5,3d14 <_fflush_r+0x26>
    3d40:	444c                	lw	a1,12(s0)
    3d42:	bfc9                	j	3d14 <_fflush_r+0x26>
    3d44:	40f2                	lw	ra,28(sp)
    3d46:	4462                	lw	s0,24(sp)
    3d48:	4501                	li	a0,0
    3d4a:	6105                	addi	sp,sp,32
    3d4c:	8082                	ret
    3d4e:	4501                	li	a0,0
    3d50:	8082                	ret

00003d52 <std>:
    3d52:	1141                	addi	sp,sp,-16
    3d54:	c422                	sw	s0,8(sp)
    3d56:	c606                	sw	ra,12(sp)
    3d58:	842a                	mv	s0,a0
    3d5a:	a54e                	sh	a1,12(a0)
    3d5c:	a572                	sh	a2,14(a0)
    3d5e:	00052023          	sw	zero,0(a0)
    3d62:	00052223          	sw	zero,4(a0)
    3d66:	00052423          	sw	zero,8(a0)
    3d6a:	06052223          	sw	zero,100(a0)
    3d6e:	00052823          	sw	zero,16(a0)
    3d72:	00052a23          	sw	zero,20(a0)
    3d76:	00052c23          	sw	zero,24(a0)
    3d7a:	4621                	li	a2,8
    3d7c:	4581                	li	a1,0
    3d7e:	05c50513          	addi	a0,a0,92
    3d82:	c9efc0ef          	jal	ra,220 <memset>
    3d86:	00001797          	auipc	a5,0x1
    3d8a:	b2078793          	addi	a5,a5,-1248 # 48a6 <__sread>
    3d8e:	d05c                	sw	a5,36(s0)
    3d90:	00001797          	auipc	a5,0x1
    3d94:	b4278793          	addi	a5,a5,-1214 # 48d2 <__swrite>
    3d98:	d41c                	sw	a5,40(s0)
    3d9a:	00001797          	auipc	a5,0x1
    3d9e:	b8078793          	addi	a5,a5,-1152 # 491a <__sseek>
    3da2:	d45c                	sw	a5,44(s0)
    3da4:	00001797          	auipc	a5,0x1
    3da8:	ba678793          	addi	a5,a5,-1114 # 494a <__sclose>
    3dac:	d000                	sw	s0,32(s0)
    3dae:	d81c                	sw	a5,48(s0)
    3db0:	40b2                	lw	ra,12(sp)
    3db2:	4422                	lw	s0,8(sp)
    3db4:	0141                	addi	sp,sp,16
    3db6:	8082                	ret

00003db8 <_cleanup_r>:
    3db8:	00000597          	auipc	a1,0x0
    3dbc:	f3658593          	addi	a1,a1,-202 # 3cee <_fflush_r>
    3dc0:	a2a9                	j	3f0a <_fwalk_reent>

00003dc2 <__sfmoreglue>:
    3dc2:	1141                	addi	sp,sp,-16
    3dc4:	c226                	sw	s1,4(sp)
    3dc6:	06800613          	li	a2,104
    3dca:	fff58493          	addi	s1,a1,-1
    3dce:	02c484b3          	mul	s1,s1,a2
    3dd2:	c04a                	sw	s2,0(sp)
    3dd4:	892e                	mv	s2,a1
    3dd6:	c422                	sw	s0,8(sp)
    3dd8:	c606                	sw	ra,12(sp)
    3dda:	07448593          	addi	a1,s1,116
    3dde:	261d                	jal	4104 <_malloc_r>
    3de0:	842a                	mv	s0,a0
    3de2:	cd01                	beqz	a0,3dfa <__sfmoreglue+0x38>
    3de4:	00052023          	sw	zero,0(a0)
    3de8:	01252223          	sw	s2,4(a0)
    3dec:	0531                	addi	a0,a0,12
    3dee:	c408                	sw	a0,8(s0)
    3df0:	06848613          	addi	a2,s1,104
    3df4:	4581                	li	a1,0
    3df6:	c2afc0ef          	jal	ra,220 <memset>
    3dfa:	8522                	mv	a0,s0
    3dfc:	40b2                	lw	ra,12(sp)
    3dfe:	4422                	lw	s0,8(sp)
    3e00:	4492                	lw	s1,4(sp)
    3e02:	4902                	lw	s2,0(sp)
    3e04:	0141                	addi	sp,sp,16
    3e06:	8082                	ret

00003e08 <__sinit>:
    3e08:	4d1c                	lw	a5,24(a0)
    3e0a:	e3ad                	bnez	a5,3e6c <__sinit+0x64>
    3e0c:	1141                	addi	sp,sp,-16
    3e0e:	c606                	sw	ra,12(sp)
    3e10:	c422                	sw	s0,8(sp)
    3e12:	00000797          	auipc	a5,0x0
    3e16:	fa678793          	addi	a5,a5,-90 # 3db8 <_cleanup_r>
    3e1a:	d51c                	sw	a5,40(a0)
    3e1c:	81c18793          	addi	a5,gp,-2020 # 2000009c <_global_impure_ptr>
    3e20:	439c                	lw	a5,0(a5)
    3e22:	04052423          	sw	zero,72(a0)
    3e26:	04052623          	sw	zero,76(a0)
    3e2a:	04052823          	sw	zero,80(a0)
    3e2e:	00f51463          	bne	a0,a5,3e36 <__sinit+0x2e>
    3e32:	4785                	li	a5,1
    3e34:	cd1c                	sw	a5,24(a0)
    3e36:	842a                	mv	s0,a0
    3e38:	281d                	jal	3e6e <__sfp>
    3e3a:	c048                	sw	a0,4(s0)
    3e3c:	8522                	mv	a0,s0
    3e3e:	2805                	jal	3e6e <__sfp>
    3e40:	c408                	sw	a0,8(s0)
    3e42:	8522                	mv	a0,s0
    3e44:	202d                	jal	3e6e <__sfp>
    3e46:	c448                	sw	a0,12(s0)
    3e48:	4048                	lw	a0,4(s0)
    3e4a:	4601                	li	a2,0
    3e4c:	4591                	li	a1,4
    3e4e:	3711                	jal	3d52 <std>
    3e50:	4408                	lw	a0,8(s0)
    3e52:	4605                	li	a2,1
    3e54:	45a5                	li	a1,9
    3e56:	3df5                	jal	3d52 <std>
    3e58:	4448                	lw	a0,12(s0)
    3e5a:	4609                	li	a2,2
    3e5c:	45c9                	li	a1,18
    3e5e:	3dd5                	jal	3d52 <std>
    3e60:	4785                	li	a5,1
    3e62:	cc1c                	sw	a5,24(s0)
    3e64:	40b2                	lw	ra,12(sp)
    3e66:	4422                	lw	s0,8(sp)
    3e68:	0141                	addi	sp,sp,16
    3e6a:	8082                	ret
    3e6c:	8082                	ret

00003e6e <__sfp>:
    3e6e:	1141                	addi	sp,sp,-16
    3e70:	81c18793          	addi	a5,gp,-2020 # 2000009c <_global_impure_ptr>
    3e74:	c226                	sw	s1,4(sp)
    3e76:	4384                	lw	s1,0(a5)
    3e78:	c04a                	sw	s2,0(sp)
    3e7a:	c606                	sw	ra,12(sp)
    3e7c:	4c9c                	lw	a5,24(s1)
    3e7e:	c422                	sw	s0,8(sp)
    3e80:	892a                	mv	s2,a0
    3e82:	e399                	bnez	a5,3e88 <__sfp+0x1a>
    3e84:	8526                	mv	a0,s1
    3e86:	3749                	jal	3e08 <__sinit>
    3e88:	04848493          	addi	s1,s1,72
    3e8c:	4480                	lw	s0,8(s1)
    3e8e:	40dc                	lw	a5,4(s1)
    3e90:	17fd                	addi	a5,a5,-1
    3e92:	0007d663          	bgez	a5,3e9e <__sfp+0x30>
    3e96:	409c                	lw	a5,0(s1)
    3e98:	cfb9                	beqz	a5,3ef6 <__sfp+0x88>
    3e9a:	4084                	lw	s1,0(s1)
    3e9c:	bfc5                	j	3e8c <__sfp+0x1e>
    3e9e:	00c41703          	lh	a4,12(s0)
    3ea2:	e739                	bnez	a4,3ef0 <__sfp+0x82>
    3ea4:	77c1                	lui	a5,0xffff0
    3ea6:	0785                	addi	a5,a5,1
    3ea8:	06042223          	sw	zero,100(s0)
    3eac:	00042023          	sw	zero,0(s0)
    3eb0:	00042223          	sw	zero,4(s0)
    3eb4:	00042423          	sw	zero,8(s0)
    3eb8:	c45c                	sw	a5,12(s0)
    3eba:	00042823          	sw	zero,16(s0)
    3ebe:	00042a23          	sw	zero,20(s0)
    3ec2:	00042c23          	sw	zero,24(s0)
    3ec6:	4621                	li	a2,8
    3ec8:	4581                	li	a1,0
    3eca:	05c40513          	addi	a0,s0,92
    3ece:	b52fc0ef          	jal	ra,220 <memset>
    3ed2:	02042a23          	sw	zero,52(s0)
    3ed6:	02042c23          	sw	zero,56(s0)
    3eda:	04042423          	sw	zero,72(s0)
    3ede:	04042623          	sw	zero,76(s0)
    3ee2:	8522                	mv	a0,s0
    3ee4:	40b2                	lw	ra,12(sp)
    3ee6:	4422                	lw	s0,8(sp)
    3ee8:	4492                	lw	s1,4(sp)
    3eea:	4902                	lw	s2,0(sp)
    3eec:	0141                	addi	sp,sp,16
    3eee:	8082                	ret
    3ef0:	06840413          	addi	s0,s0,104
    3ef4:	bf71                	j	3e90 <__sfp+0x22>
    3ef6:	4591                	li	a1,4
    3ef8:	854a                	mv	a0,s2
    3efa:	35e1                	jal	3dc2 <__sfmoreglue>
    3efc:	c088                	sw	a0,0(s1)
    3efe:	fd51                	bnez	a0,3e9a <__sfp+0x2c>
    3f00:	47b1                	li	a5,12
    3f02:	00f92023          	sw	a5,0(s2)
    3f06:	4401                	li	s0,0
    3f08:	bfe9                	j	3ee2 <__sfp+0x74>

00003f0a <_fwalk_reent>:
    3f0a:	7179                	addi	sp,sp,-48
    3f0c:	d422                	sw	s0,40(sp)
    3f0e:	d04a                	sw	s2,32(sp)
    3f10:	cc52                	sw	s4,24(sp)
    3f12:	ca56                	sw	s5,20(sp)
    3f14:	c85a                	sw	s6,16(sp)
    3f16:	c65e                	sw	s7,12(sp)
    3f18:	d606                	sw	ra,44(sp)
    3f1a:	d226                	sw	s1,36(sp)
    3f1c:	ce4e                	sw	s3,28(sp)
    3f1e:	8a2a                	mv	s4,a0
    3f20:	8aae                	mv	s5,a1
    3f22:	04850413          	addi	s0,a0,72
    3f26:	4901                	li	s2,0
    3f28:	4b05                	li	s6,1
    3f2a:	5bfd                	li	s7,-1
    3f2c:	ec09                	bnez	s0,3f46 <_fwalk_reent+0x3c>
    3f2e:	50b2                	lw	ra,44(sp)
    3f30:	5422                	lw	s0,40(sp)
    3f32:	854a                	mv	a0,s2
    3f34:	5492                	lw	s1,36(sp)
    3f36:	5902                	lw	s2,32(sp)
    3f38:	49f2                	lw	s3,28(sp)
    3f3a:	4a62                	lw	s4,24(sp)
    3f3c:	4ad2                	lw	s5,20(sp)
    3f3e:	4b42                	lw	s6,16(sp)
    3f40:	4bb2                	lw	s7,12(sp)
    3f42:	6145                	addi	sp,sp,48
    3f44:	8082                	ret
    3f46:	4404                	lw	s1,8(s0)
    3f48:	00442983          	lw	s3,4(s0)
    3f4c:	19fd                	addi	s3,s3,-1
    3f4e:	0009d463          	bgez	s3,3f56 <_fwalk_reent+0x4c>
    3f52:	4000                	lw	s0,0(s0)
    3f54:	bfe1                	j	3f2c <_fwalk_reent+0x22>
    3f56:	24de                	lhu	a5,12(s1)
    3f58:	00fb7b63          	bgeu	s6,a5,3f6e <_fwalk_reent+0x64>
    3f5c:	00e49783          	lh	a5,14(s1)
    3f60:	01778763          	beq	a5,s7,3f6e <_fwalk_reent+0x64>
    3f64:	85a6                	mv	a1,s1
    3f66:	8552                	mv	a0,s4
    3f68:	9a82                	jalr	s5
    3f6a:	00a96933          	or	s2,s2,a0
    3f6e:	06848493          	addi	s1,s1,104
    3f72:	bfe9                	j	3f4c <_fwalk_reent+0x42>

00003f74 <__swhatbuf_r>:
    3f74:	7119                	addi	sp,sp,-128
    3f76:	daa6                	sw	s1,116(sp)
    3f78:	84ae                	mv	s1,a1
    3f7a:	00e59583          	lh	a1,14(a1)
    3f7e:	dca2                	sw	s0,120(sp)
    3f80:	de86                	sw	ra,124(sp)
    3f82:	8432                	mv	s0,a2
    3f84:	0005db63          	bgez	a1,3f9a <__swhatbuf_r+0x26>
    3f88:	24de                	lhu	a5,12(s1)
    3f8a:	0006a023          	sw	zero,0(a3)
    3f8e:	0807f793          	andi	a5,a5,128
    3f92:	e785                	bnez	a5,3fba <__swhatbuf_r+0x46>
    3f94:	40000793          	li	a5,1024
    3f98:	a01d                	j	3fbe <__swhatbuf_r+0x4a>
    3f9a:	0830                	addi	a2,sp,24
    3f9c:	c636                	sw	a3,12(sp)
    3f9e:	219000ef          	jal	ra,49b6 <_fstat_r>
    3fa2:	46b2                	lw	a3,12(sp)
    3fa4:	fe0542e3          	bltz	a0,3f88 <__swhatbuf_r+0x14>
    3fa8:	4772                	lw	a4,28(sp)
    3faa:	67bd                	lui	a5,0xf
    3fac:	8ff9                	and	a5,a5,a4
    3fae:	7779                	lui	a4,0xffffe
    3fb0:	97ba                	add	a5,a5,a4
    3fb2:	0017b793          	seqz	a5,a5
    3fb6:	c29c                	sw	a5,0(a3)
    3fb8:	bff1                	j	3f94 <__swhatbuf_r+0x20>
    3fba:	04000793          	li	a5,64
    3fbe:	c01c                	sw	a5,0(s0)
    3fc0:	50f6                	lw	ra,124(sp)
    3fc2:	5466                	lw	s0,120(sp)
    3fc4:	54d6                	lw	s1,116(sp)
    3fc6:	4501                	li	a0,0
    3fc8:	6109                	addi	sp,sp,128
    3fca:	8082                	ret

00003fcc <__smakebuf_r>:
    3fcc:	25de                	lhu	a5,12(a1)
    3fce:	1101                	addi	sp,sp,-32
    3fd0:	cc22                	sw	s0,24(sp)
    3fd2:	ce06                	sw	ra,28(sp)
    3fd4:	ca26                	sw	s1,20(sp)
    3fd6:	c84a                	sw	s2,16(sp)
    3fd8:	8b89                	andi	a5,a5,2
    3fda:	842e                	mv	s0,a1
    3fdc:	cf89                	beqz	a5,3ff6 <__smakebuf_r+0x2a>
    3fde:	04740793          	addi	a5,s0,71
    3fe2:	c01c                	sw	a5,0(s0)
    3fe4:	c81c                	sw	a5,16(s0)
    3fe6:	4785                	li	a5,1
    3fe8:	c85c                	sw	a5,20(s0)
    3fea:	40f2                	lw	ra,28(sp)
    3fec:	4462                	lw	s0,24(sp)
    3fee:	44d2                	lw	s1,20(sp)
    3ff0:	4942                	lw	s2,16(sp)
    3ff2:	6105                	addi	sp,sp,32
    3ff4:	8082                	ret
    3ff6:	0074                	addi	a3,sp,12
    3ff8:	0030                	addi	a2,sp,8
    3ffa:	84aa                	mv	s1,a0
    3ffc:	3fa5                	jal	3f74 <__swhatbuf_r>
    3ffe:	45a2                	lw	a1,8(sp)
    4000:	892a                	mv	s2,a0
    4002:	8526                	mv	a0,s1
    4004:	2201                	jal	4104 <_malloc_r>
    4006:	e919                	bnez	a0,401c <__smakebuf_r+0x50>
    4008:	00c41783          	lh	a5,12(s0)
    400c:	2007f713          	andi	a4,a5,512
    4010:	ff69                	bnez	a4,3fea <__smakebuf_r+0x1e>
    4012:	9bf1                	andi	a5,a5,-4
    4014:	0027e793          	ori	a5,a5,2
    4018:	a45e                	sh	a5,12(s0)
    401a:	b7d1                	j	3fde <__smakebuf_r+0x12>
    401c:	00000797          	auipc	a5,0x0
    4020:	d9c78793          	addi	a5,a5,-612 # 3db8 <_cleanup_r>
    4024:	d49c                	sw	a5,40(s1)
    4026:	245e                	lhu	a5,12(s0)
    4028:	c008                	sw	a0,0(s0)
    402a:	c808                	sw	a0,16(s0)
    402c:	0807e793          	ori	a5,a5,128
    4030:	a45e                	sh	a5,12(s0)
    4032:	47a2                	lw	a5,8(sp)
    4034:	c85c                	sw	a5,20(s0)
    4036:	47b2                	lw	a5,12(sp)
    4038:	cf81                	beqz	a5,4050 <__smakebuf_r+0x84>
    403a:	00e41583          	lh	a1,14(s0)
    403e:	8526                	mv	a0,s1
    4040:	1a9000ef          	jal	ra,49e8 <_isatty_r>
    4044:	c511                	beqz	a0,4050 <__smakebuf_r+0x84>
    4046:	245e                	lhu	a5,12(s0)
    4048:	9bf1                	andi	a5,a5,-4
    404a:	0017e793          	ori	a5,a5,1
    404e:	a45e                	sh	a5,12(s0)
    4050:	245e                	lhu	a5,12(s0)
    4052:	00f96933          	or	s2,s2,a5
    4056:	01241623          	sh	s2,12(s0)
    405a:	bf41                	j	3fea <__smakebuf_r+0x1e>

0000405c <_free_r>:
    405c:	c1dd                	beqz	a1,4102 <_free_r+0xa6>
    405e:	ffc5a783          	lw	a5,-4(a1)
    4062:	1141                	addi	sp,sp,-16
    4064:	c422                	sw	s0,8(sp)
    4066:	c606                	sw	ra,12(sp)
    4068:	c226                	sw	s1,4(sp)
    406a:	ffc58413          	addi	s0,a1,-4
    406e:	0007d363          	bgez	a5,4074 <_free_r+0x18>
    4072:	943e                	add	s0,s0,a5
    4074:	84aa                	mv	s1,a0
    4076:	1ef000ef          	jal	ra,4a64 <__malloc_lock>
    407a:	84418793          	addi	a5,gp,-1980 # 200000c4 <__malloc_free_list>
    407e:	439c                	lw	a5,0(a5)
    4080:	ef81                	bnez	a5,4098 <_free_r+0x3c>
    4082:	00042223          	sw	zero,4(s0)
    4086:	8481a223          	sw	s0,-1980(gp) # 200000c4 <__malloc_free_list>
    408a:	4422                	lw	s0,8(sp)
    408c:	40b2                	lw	ra,12(sp)
    408e:	8526                	mv	a0,s1
    4090:	4492                	lw	s1,4(sp)
    4092:	0141                	addi	sp,sp,16
    4094:	1d30006f          	j	4a66 <__malloc_unlock>
    4098:	00f47e63          	bgeu	s0,a5,40b4 <_free_r+0x58>
    409c:	4014                	lw	a3,0(s0)
    409e:	00d40733          	add	a4,s0,a3
    40a2:	00e79663          	bne	a5,a4,40ae <_free_r+0x52>
    40a6:	4398                	lw	a4,0(a5)
    40a8:	43dc                	lw	a5,4(a5)
    40aa:	9736                	add	a4,a4,a3
    40ac:	c018                	sw	a4,0(s0)
    40ae:	c05c                	sw	a5,4(s0)
    40b0:	bfd9                	j	4086 <_free_r+0x2a>
    40b2:	87ba                	mv	a5,a4
    40b4:	43d8                	lw	a4,4(a5)
    40b6:	c319                	beqz	a4,40bc <_free_r+0x60>
    40b8:	fee47de3          	bgeu	s0,a4,40b2 <_free_r+0x56>
    40bc:	4394                	lw	a3,0(a5)
    40be:	00d78633          	add	a2,a5,a3
    40c2:	00861f63          	bne	a2,s0,40e0 <_free_r+0x84>
    40c6:	4010                	lw	a2,0(s0)
    40c8:	96b2                	add	a3,a3,a2
    40ca:	c394                	sw	a3,0(a5)
    40cc:	00d78633          	add	a2,a5,a3
    40d0:	fac71de3          	bne	a4,a2,408a <_free_r+0x2e>
    40d4:	4310                	lw	a2,0(a4)
    40d6:	4358                	lw	a4,4(a4)
    40d8:	96b2                	add	a3,a3,a2
    40da:	c394                	sw	a3,0(a5)
    40dc:	c3d8                	sw	a4,4(a5)
    40de:	b775                	j	408a <_free_r+0x2e>
    40e0:	00c47563          	bgeu	s0,a2,40ea <_free_r+0x8e>
    40e4:	47b1                	li	a5,12
    40e6:	c09c                	sw	a5,0(s1)
    40e8:	b74d                	j	408a <_free_r+0x2e>
    40ea:	4010                	lw	a2,0(s0)
    40ec:	00c406b3          	add	a3,s0,a2
    40f0:	00d71663          	bne	a4,a3,40fc <_free_r+0xa0>
    40f4:	4314                	lw	a3,0(a4)
    40f6:	4358                	lw	a4,4(a4)
    40f8:	96b2                	add	a3,a3,a2
    40fa:	c014                	sw	a3,0(s0)
    40fc:	c058                	sw	a4,4(s0)
    40fe:	c3c0                	sw	s0,4(a5)
    4100:	b769                	j	408a <_free_r+0x2e>
    4102:	8082                	ret

00004104 <_malloc_r>:
    4104:	1101                	addi	sp,sp,-32
    4106:	ca26                	sw	s1,20(sp)
    4108:	00358493          	addi	s1,a1,3
    410c:	98f1                	andi	s1,s1,-4
    410e:	ce06                	sw	ra,28(sp)
    4110:	cc22                	sw	s0,24(sp)
    4112:	c84a                	sw	s2,16(sp)
    4114:	c64e                	sw	s3,12(sp)
    4116:	04a1                	addi	s1,s1,8
    4118:	47b1                	li	a5,12
    411a:	04f4f363          	bgeu	s1,a5,4160 <_malloc_r+0x5c>
    411e:	44b1                	li	s1,12
    4120:	04b4e263          	bltu	s1,a1,4164 <_malloc_r+0x60>
    4124:	892a                	mv	s2,a0
    4126:	13f000ef          	jal	ra,4a64 <__malloc_lock>
    412a:	84418793          	addi	a5,gp,-1980 # 200000c4 <__malloc_free_list>
    412e:	4398                	lw	a4,0(a5)
    4130:	843a                	mv	s0,a4
    4132:	e039                	bnez	s0,4178 <_malloc_r+0x74>
    4134:	84818793          	addi	a5,gp,-1976 # 200000c8 <__malloc_sbrk_start>
    4138:	439c                	lw	a5,0(a5)
    413a:	e791                	bnez	a5,4146 <_malloc_r+0x42>
    413c:	4581                	li	a1,0
    413e:	854a                	mv	a0,s2
    4140:	2f15                	jal	4874 <_sbrk_r>
    4142:	84a1a423          	sw	a0,-1976(gp) # 200000c8 <__malloc_sbrk_start>
    4146:	85a6                	mv	a1,s1
    4148:	854a                	mv	a0,s2
    414a:	272d                	jal	4874 <_sbrk_r>
    414c:	59fd                	li	s3,-1
    414e:	07351963          	bne	a0,s3,41c0 <_malloc_r+0xbc>
    4152:	47b1                	li	a5,12
    4154:	00f92023          	sw	a5,0(s2)
    4158:	854a                	mv	a0,s2
    415a:	10d000ef          	jal	ra,4a66 <__malloc_unlock>
    415e:	a029                	j	4168 <_malloc_r+0x64>
    4160:	fc04d0e3          	bgez	s1,4120 <_malloc_r+0x1c>
    4164:	47b1                	li	a5,12
    4166:	c11c                	sw	a5,0(a0)
    4168:	4501                	li	a0,0
    416a:	40f2                	lw	ra,28(sp)
    416c:	4462                	lw	s0,24(sp)
    416e:	44d2                	lw	s1,20(sp)
    4170:	4942                	lw	s2,16(sp)
    4172:	49b2                	lw	s3,12(sp)
    4174:	6105                	addi	sp,sp,32
    4176:	8082                	ret
    4178:	401c                	lw	a5,0(s0)
    417a:	8f85                	sub	a5,a5,s1
    417c:	0207cf63          	bltz	a5,41ba <_malloc_r+0xb6>
    4180:	46ad                	li	a3,11
    4182:	00f6f663          	bgeu	a3,a5,418e <_malloc_r+0x8a>
    4186:	c01c                	sw	a5,0(s0)
    4188:	943e                	add	s0,s0,a5
    418a:	c004                	sw	s1,0(s0)
    418c:	a031                	j	4198 <_malloc_r+0x94>
    418e:	405c                	lw	a5,4(s0)
    4190:	02871363          	bne	a4,s0,41b6 <_malloc_r+0xb2>
    4194:	84f1a223          	sw	a5,-1980(gp) # 200000c4 <__malloc_free_list>
    4198:	854a                	mv	a0,s2
    419a:	0cd000ef          	jal	ra,4a66 <__malloc_unlock>
    419e:	00b40513          	addi	a0,s0,11
    41a2:	00440793          	addi	a5,s0,4
    41a6:	9961                	andi	a0,a0,-8
    41a8:	40f50733          	sub	a4,a0,a5
    41ac:	df5d                	beqz	a4,416a <_malloc_r+0x66>
    41ae:	943a                	add	s0,s0,a4
    41b0:	8f89                	sub	a5,a5,a0
    41b2:	c01c                	sw	a5,0(s0)
    41b4:	bf5d                	j	416a <_malloc_r+0x66>
    41b6:	c35c                	sw	a5,4(a4)
    41b8:	b7c5                	j	4198 <_malloc_r+0x94>
    41ba:	8722                	mv	a4,s0
    41bc:	4040                	lw	s0,4(s0)
    41be:	bf95                	j	4132 <_malloc_r+0x2e>
    41c0:	00350413          	addi	s0,a0,3
    41c4:	9871                	andi	s0,s0,-4
    41c6:	fc8502e3          	beq	a0,s0,418a <_malloc_r+0x86>
    41ca:	40a405b3          	sub	a1,s0,a0
    41ce:	854a                	mv	a0,s2
    41d0:	2555                	jal	4874 <_sbrk_r>
    41d2:	fb351ce3          	bne	a0,s3,418a <_malloc_r+0x86>
    41d6:	bfb5                	j	4152 <_malloc_r+0x4e>

000041d8 <__sfputc_r>:
    41d8:	461c                	lw	a5,8(a2)
    41da:	17fd                	addi	a5,a5,-1
    41dc:	c61c                	sw	a5,8(a2)
    41de:	0007da63          	bgez	a5,41f2 <__sfputc_r+0x1a>
    41e2:	4e18                	lw	a4,24(a2)
    41e4:	00e7c563          	blt	a5,a4,41ee <__sfputc_r+0x16>
    41e8:	47a9                	li	a5,10
    41ea:	00f59463          	bne	a1,a5,41f2 <__sfputc_r+0x1a>
    41ee:	819ff06f          	j	3a06 <__swbuf_r>
    41f2:	421c                	lw	a5,0(a2)
    41f4:	852e                	mv	a0,a1
    41f6:	00178713          	addi	a4,a5,1
    41fa:	c218                	sw	a4,0(a2)
    41fc:	a38c                	sb	a1,0(a5)
    41fe:	8082                	ret

00004200 <__sfputs_r>:
    4200:	1101                	addi	sp,sp,-32
    4202:	cc22                	sw	s0,24(sp)
    4204:	ca26                	sw	s1,20(sp)
    4206:	c84a                	sw	s2,16(sp)
    4208:	c64e                	sw	s3,12(sp)
    420a:	c452                	sw	s4,8(sp)
    420c:	ce06                	sw	ra,28(sp)
    420e:	892a                	mv	s2,a0
    4210:	89ae                	mv	s3,a1
    4212:	8432                	mv	s0,a2
    4214:	00d604b3          	add	s1,a2,a3
    4218:	5a7d                	li	s4,-1
    421a:	00941463          	bne	s0,s1,4222 <__sfputs_r+0x22>
    421e:	4501                	li	a0,0
    4220:	a801                	j	4230 <__sfputs_r+0x30>
    4222:	200c                	lbu	a1,0(s0)
    4224:	864e                	mv	a2,s3
    4226:	854a                	mv	a0,s2
    4228:	3f45                	jal	41d8 <__sfputc_r>
    422a:	0405                	addi	s0,s0,1
    422c:	ff4517e3          	bne	a0,s4,421a <__sfputs_r+0x1a>
    4230:	40f2                	lw	ra,28(sp)
    4232:	4462                	lw	s0,24(sp)
    4234:	44d2                	lw	s1,20(sp)
    4236:	4942                	lw	s2,16(sp)
    4238:	49b2                	lw	s3,12(sp)
    423a:	4a22                	lw	s4,8(sp)
    423c:	6105                	addi	sp,sp,32
    423e:	8082                	ret

00004240 <_vfiprintf_r>:
    4240:	7135                	addi	sp,sp,-160
    4242:	cd22                	sw	s0,152(sp)
    4244:	cb26                	sw	s1,148(sp)
    4246:	c94a                	sw	s2,144(sp)
    4248:	c74e                	sw	s3,140(sp)
    424a:	cf06                	sw	ra,156(sp)
    424c:	c552                	sw	s4,136(sp)
    424e:	c356                	sw	s5,132(sp)
    4250:	c15a                	sw	s6,128(sp)
    4252:	dede                	sw	s7,124(sp)
    4254:	dce2                	sw	s8,120(sp)
    4256:	dae6                	sw	s9,116(sp)
    4258:	89aa                	mv	s3,a0
    425a:	84ae                	mv	s1,a1
    425c:	8932                	mv	s2,a2
    425e:	8436                	mv	s0,a3
    4260:	c509                	beqz	a0,426a <_vfiprintf_r+0x2a>
    4262:	4d1c                	lw	a5,24(a0)
    4264:	e399                	bnez	a5,426a <_vfiprintf_r+0x2a>
    4266:	ba3ff0ef          	jal	ra,3e08 <__sinit>
    426a:	00003797          	auipc	a5,0x3
    426e:	80278793          	addi	a5,a5,-2046 # 6a6c <__sf_fake_stdin>
    4272:	0cf49763          	bne	s1,a5,4340 <_vfiprintf_r+0x100>
    4276:	0049a483          	lw	s1,4(s3)
    427a:	24de                	lhu	a5,12(s1)
    427c:	8ba1                	andi	a5,a5,8
    427e:	c3fd                	beqz	a5,4364 <_vfiprintf_r+0x124>
    4280:	489c                	lw	a5,16(s1)
    4282:	c3ed                	beqz	a5,4364 <_vfiprintf_r+0x124>
    4284:	02000793          	li	a5,32
    4288:	02f104a3          	sb	a5,41(sp)
    428c:	03000793          	li	a5,48
    4290:	d202                	sw	zero,36(sp)
    4292:	02f10523          	sb	a5,42(sp)
    4296:	c622                	sw	s0,12(sp)
    4298:	02500b93          	li	s7,37
    429c:	00003a97          	auipc	s5,0x3
    42a0:	810a8a93          	addi	s5,s5,-2032 # 6aac <__sf_fake_stdout+0x20>
    42a4:	4c05                	li	s8,1
    42a6:	4b29                	li	s6,10
    42a8:	844a                	mv	s0,s2
    42aa:	201c                	lbu	a5,0(s0)
    42ac:	c399                	beqz	a5,42b2 <_vfiprintf_r+0x72>
    42ae:	0d779e63          	bne	a5,s7,438a <_vfiprintf_r+0x14a>
    42b2:	41240cb3          	sub	s9,s0,s2
    42b6:	000c8d63          	beqz	s9,42d0 <_vfiprintf_r+0x90>
    42ba:	86e6                	mv	a3,s9
    42bc:	864a                	mv	a2,s2
    42be:	85a6                	mv	a1,s1
    42c0:	854e                	mv	a0,s3
    42c2:	3f3d                	jal	4200 <__sfputs_r>
    42c4:	57fd                	li	a5,-1
    42c6:	1cf50f63          	beq	a0,a5,44a4 <_vfiprintf_r+0x264>
    42ca:	5692                	lw	a3,36(sp)
    42cc:	96e6                	add	a3,a3,s9
    42ce:	d236                	sw	a3,36(sp)
    42d0:	201c                	lbu	a5,0(s0)
    42d2:	1c078963          	beqz	a5,44a4 <_vfiprintf_r+0x264>
    42d6:	57fd                	li	a5,-1
    42d8:	00140913          	addi	s2,s0,1
    42dc:	c802                	sw	zero,16(sp)
    42de:	ce02                	sw	zero,28(sp)
    42e0:	ca3e                	sw	a5,20(sp)
    42e2:	cc02                	sw	zero,24(sp)
    42e4:	040109a3          	sb	zero,83(sp)
    42e8:	d482                	sw	zero,104(sp)
    42ea:	00094583          	lbu	a1,0(s2)
    42ee:	4615                	li	a2,5
    42f0:	8556                	mv	a0,s5
    42f2:	2fa9                	jal	4a4c <memchr>
    42f4:	00190413          	addi	s0,s2,1
    42f8:	47c2                	lw	a5,16(sp)
    42fa:	e951                	bnez	a0,438e <_vfiprintf_r+0x14e>
    42fc:	0107f713          	andi	a4,a5,16
    4300:	c709                	beqz	a4,430a <_vfiprintf_r+0xca>
    4302:	02000713          	li	a4,32
    4306:	04e109a3          	sb	a4,83(sp)
    430a:	0087f713          	andi	a4,a5,8
    430e:	c709                	beqz	a4,4318 <_vfiprintf_r+0xd8>
    4310:	02b00713          	li	a4,43
    4314:	04e109a3          	sb	a4,83(sp)
    4318:	00094683          	lbu	a3,0(s2)
    431c:	02a00713          	li	a4,42
    4320:	06e68f63          	beq	a3,a4,439e <_vfiprintf_r+0x15e>
    4324:	47f2                	lw	a5,28(sp)
    4326:	844a                	mv	s0,s2
    4328:	4681                	li	a3,0
    432a:	4625                	li	a2,9
    432c:	2018                	lbu	a4,0(s0)
    432e:	00140593          	addi	a1,s0,1
    4332:	fd070713          	addi	a4,a4,-48 # ffffdfd0 <_eusrstack+0xdfff5fd0>
    4336:	0ae67763          	bgeu	a2,a4,43e4 <_vfiprintf_r+0x1a4>
    433a:	cab5                	beqz	a3,43ae <_vfiprintf_r+0x16e>
    433c:	ce3e                	sw	a5,28(sp)
    433e:	a885                	j	43ae <_vfiprintf_r+0x16e>
    4340:	00002797          	auipc	a5,0x2
    4344:	74c78793          	addi	a5,a5,1868 # 6a8c <__sf_fake_stdout>
    4348:	00f49563          	bne	s1,a5,4352 <_vfiprintf_r+0x112>
    434c:	0089a483          	lw	s1,8(s3)
    4350:	b72d                	j	427a <_vfiprintf_r+0x3a>
    4352:	00002797          	auipc	a5,0x2
    4356:	6fa78793          	addi	a5,a5,1786 # 6a4c <__sf_fake_stderr>
    435a:	f2f490e3          	bne	s1,a5,427a <_vfiprintf_r+0x3a>
    435e:	00c9a483          	lw	s1,12(s3)
    4362:	bf21                	j	427a <_vfiprintf_r+0x3a>
    4364:	85a6                	mv	a1,s1
    4366:	854e                	mv	a0,s3
    4368:	f5aff0ef          	jal	ra,3ac2 <__swsetup_r>
    436c:	dd01                	beqz	a0,4284 <_vfiprintf_r+0x44>
    436e:	557d                	li	a0,-1
    4370:	40fa                	lw	ra,156(sp)
    4372:	446a                	lw	s0,152(sp)
    4374:	44da                	lw	s1,148(sp)
    4376:	494a                	lw	s2,144(sp)
    4378:	49ba                	lw	s3,140(sp)
    437a:	4a2a                	lw	s4,136(sp)
    437c:	4a9a                	lw	s5,132(sp)
    437e:	4b0a                	lw	s6,128(sp)
    4380:	5bf6                	lw	s7,124(sp)
    4382:	5c66                	lw	s8,120(sp)
    4384:	5cd6                	lw	s9,116(sp)
    4386:	610d                	addi	sp,sp,160
    4388:	8082                	ret
    438a:	0405                	addi	s0,s0,1
    438c:	bf39                	j	42aa <_vfiprintf_r+0x6a>
    438e:	41550533          	sub	a0,a0,s5
    4392:	00ac1533          	sll	a0,s8,a0
    4396:	8fc9                	or	a5,a5,a0
    4398:	c83e                	sw	a5,16(sp)
    439a:	8922                	mv	s2,s0
    439c:	b7b9                	j	42ea <_vfiprintf_r+0xaa>
    439e:	4732                	lw	a4,12(sp)
    43a0:	00470693          	addi	a3,a4,4
    43a4:	4318                	lw	a4,0(a4)
    43a6:	c636                	sw	a3,12(sp)
    43a8:	02074763          	bltz	a4,43d6 <_vfiprintf_r+0x196>
    43ac:	ce3a                	sw	a4,28(sp)
    43ae:	2018                	lbu	a4,0(s0)
    43b0:	02e00793          	li	a5,46
    43b4:	04f71d63          	bne	a4,a5,440e <_vfiprintf_r+0x1ce>
    43b8:	3018                	lbu	a4,1(s0)
    43ba:	02a00793          	li	a5,42
    43be:	02f71b63          	bne	a4,a5,43f4 <_vfiprintf_r+0x1b4>
    43c2:	47b2                	lw	a5,12(sp)
    43c4:	0409                	addi	s0,s0,2
    43c6:	00478713          	addi	a4,a5,4
    43ca:	439c                	lw	a5,0(a5)
    43cc:	c63a                	sw	a4,12(sp)
    43ce:	0207c163          	bltz	a5,43f0 <_vfiprintf_r+0x1b0>
    43d2:	ca3e                	sw	a5,20(sp)
    43d4:	a82d                	j	440e <_vfiprintf_r+0x1ce>
    43d6:	40e00733          	neg	a4,a4
    43da:	0027e793          	ori	a5,a5,2
    43de:	ce3a                	sw	a4,28(sp)
    43e0:	c83e                	sw	a5,16(sp)
    43e2:	b7f1                	j	43ae <_vfiprintf_r+0x16e>
    43e4:	036787b3          	mul	a5,a5,s6
    43e8:	4685                	li	a3,1
    43ea:	842e                	mv	s0,a1
    43ec:	97ba                	add	a5,a5,a4
    43ee:	bf3d                	j	432c <_vfiprintf_r+0xec>
    43f0:	57fd                	li	a5,-1
    43f2:	b7c5                	j	43d2 <_vfiprintf_r+0x192>
    43f4:	0405                	addi	s0,s0,1
    43f6:	ca02                	sw	zero,20(sp)
    43f8:	4681                	li	a3,0
    43fa:	4781                	li	a5,0
    43fc:	4625                	li	a2,9
    43fe:	2018                	lbu	a4,0(s0)
    4400:	00140593          	addi	a1,s0,1
    4404:	fd070713          	addi	a4,a4,-48
    4408:	06e67463          	bgeu	a2,a4,4470 <_vfiprintf_r+0x230>
    440c:	f2f9                	bnez	a3,43d2 <_vfiprintf_r+0x192>
    440e:	200c                	lbu	a1,0(s0)
    4410:	460d                	li	a2,3
    4412:	00002517          	auipc	a0,0x2
    4416:	6a250513          	addi	a0,a0,1698 # 6ab4 <__sf_fake_stdout+0x28>
    441a:	2d0d                	jal	4a4c <memchr>
    441c:	cd11                	beqz	a0,4438 <_vfiprintf_r+0x1f8>
    441e:	00002797          	auipc	a5,0x2
    4422:	69678793          	addi	a5,a5,1686 # 6ab4 <__sf_fake_stdout+0x28>
    4426:	8d1d                	sub	a0,a0,a5
    4428:	04000793          	li	a5,64
    442c:	00a797b3          	sll	a5,a5,a0
    4430:	4542                	lw	a0,16(sp)
    4432:	0405                	addi	s0,s0,1
    4434:	8d5d                	or	a0,a0,a5
    4436:	c82a                	sw	a0,16(sp)
    4438:	200c                	lbu	a1,0(s0)
    443a:	4619                	li	a2,6
    443c:	00002517          	auipc	a0,0x2
    4440:	67c50513          	addi	a0,a0,1660 # 6ab8 <__sf_fake_stdout+0x2c>
    4444:	00140913          	addi	s2,s0,1
    4448:	02b10423          	sb	a1,40(sp)
    444c:	2501                	jal	4a4c <memchr>
    444e:	c135                	beqz	a0,44b2 <_vfiprintf_r+0x272>
    4450:	ffffc797          	auipc	a5,0xffffc
    4454:	bb078793          	addi	a5,a5,-1104 # 0 <_sinit>
    4458:	e795                	bnez	a5,4484 <_vfiprintf_r+0x244>
    445a:	4742                	lw	a4,16(sp)
    445c:	47b2                	lw	a5,12(sp)
    445e:	10077713          	andi	a4,a4,256
    4462:	cf09                	beqz	a4,447c <_vfiprintf_r+0x23c>
    4464:	0791                	addi	a5,a5,4
    4466:	c63e                	sw	a5,12(sp)
    4468:	5792                	lw	a5,36(sp)
    446a:	97d2                	add	a5,a5,s4
    446c:	d23e                	sw	a5,36(sp)
    446e:	bd2d                	j	42a8 <_vfiprintf_r+0x68>
    4470:	036787b3          	mul	a5,a5,s6
    4474:	4685                	li	a3,1
    4476:	842e                	mv	s0,a1
    4478:	97ba                	add	a5,a5,a4
    447a:	b751                	j	43fe <_vfiprintf_r+0x1be>
    447c:	079d                	addi	a5,a5,7
    447e:	9be1                	andi	a5,a5,-8
    4480:	07a1                	addi	a5,a5,8
    4482:	b7d5                	j	4466 <_vfiprintf_r+0x226>
    4484:	0078                	addi	a4,sp,12
    4486:	00000697          	auipc	a3,0x0
    448a:	d7a68693          	addi	a3,a3,-646 # 4200 <__sfputs_r>
    448e:	8626                	mv	a2,s1
    4490:	080c                	addi	a1,sp,16
    4492:	854e                	mv	a0,s3
    4494:	00000097          	auipc	ra,0x0
    4498:	000000e7          	jalr	zero # 0 <_sinit>
    449c:	57fd                	li	a5,-1
    449e:	8a2a                	mv	s4,a0
    44a0:	fcf514e3          	bne	a0,a5,4468 <_vfiprintf_r+0x228>
    44a4:	24de                	lhu	a5,12(s1)
    44a6:	0407f793          	andi	a5,a5,64
    44aa:	ec0792e3          	bnez	a5,436e <_vfiprintf_r+0x12e>
    44ae:	5512                	lw	a0,36(sp)
    44b0:	b5c1                	j	4370 <_vfiprintf_r+0x130>
    44b2:	0078                	addi	a4,sp,12
    44b4:	00000697          	auipc	a3,0x0
    44b8:	d4c68693          	addi	a3,a3,-692 # 4200 <__sfputs_r>
    44bc:	8626                	mv	a2,s1
    44be:	080c                	addi	a1,sp,16
    44c0:	854e                	mv	a0,s3
    44c2:	2a01                	jal	45d2 <_printf_i>
    44c4:	bfe1                	j	449c <_vfiprintf_r+0x25c>

000044c6 <_printf_common>:
    44c6:	7179                	addi	sp,sp,-48
    44c8:	ca56                	sw	s5,20(sp)
    44ca:	499c                	lw	a5,16(a1)
    44cc:	8aba                	mv	s5,a4
    44ce:	4598                	lw	a4,8(a1)
    44d0:	d422                	sw	s0,40(sp)
    44d2:	d226                	sw	s1,36(sp)
    44d4:	ce4e                	sw	s3,28(sp)
    44d6:	cc52                	sw	s4,24(sp)
    44d8:	d606                	sw	ra,44(sp)
    44da:	d04a                	sw	s2,32(sp)
    44dc:	c85a                	sw	s6,16(sp)
    44de:	c65e                	sw	s7,12(sp)
    44e0:	89aa                	mv	s3,a0
    44e2:	842e                	mv	s0,a1
    44e4:	84b2                	mv	s1,a2
    44e6:	8a36                	mv	s4,a3
    44e8:	00e7d363          	bge	a5,a4,44ee <_printf_common+0x28>
    44ec:	87ba                	mv	a5,a4
    44ee:	c09c                	sw	a5,0(s1)
    44f0:	04344703          	lbu	a4,67(s0)
    44f4:	c319                	beqz	a4,44fa <_printf_common+0x34>
    44f6:	0785                	addi	a5,a5,1
    44f8:	c09c                	sw	a5,0(s1)
    44fa:	401c                	lw	a5,0(s0)
    44fc:	0207f793          	andi	a5,a5,32
    4500:	c781                	beqz	a5,4508 <_printf_common+0x42>
    4502:	409c                	lw	a5,0(s1)
    4504:	0789                	addi	a5,a5,2
    4506:	c09c                	sw	a5,0(s1)
    4508:	00042903          	lw	s2,0(s0)
    450c:	00697913          	andi	s2,s2,6
    4510:	00091a63          	bnez	s2,4524 <_printf_common+0x5e>
    4514:	01940b13          	addi	s6,s0,25
    4518:	5bfd                	li	s7,-1
    451a:	445c                	lw	a5,12(s0)
    451c:	4098                	lw	a4,0(s1)
    451e:	8f99                	sub	a5,a5,a4
    4520:	04f94c63          	blt	s2,a5,4578 <_printf_common+0xb2>
    4524:	401c                	lw	a5,0(s0)
    4526:	04344683          	lbu	a3,67(s0)
    452a:	0207f793          	andi	a5,a5,32
    452e:	00d036b3          	snez	a3,a3
    4532:	eba5                	bnez	a5,45a2 <_printf_common+0xdc>
    4534:	04340613          	addi	a2,s0,67
    4538:	85d2                	mv	a1,s4
    453a:	854e                	mv	a0,s3
    453c:	9a82                	jalr	s5
    453e:	57fd                	li	a5,-1
    4540:	04f50363          	beq	a0,a5,4586 <_printf_common+0xc0>
    4544:	401c                	lw	a5,0(s0)
    4546:	4611                	li	a2,4
    4548:	4098                	lw	a4,0(s1)
    454a:	8b99                	andi	a5,a5,6
    454c:	4454                	lw	a3,12(s0)
    454e:	4481                	li	s1,0
    4550:	00c79763          	bne	a5,a2,455e <_printf_common+0x98>
    4554:	40e684b3          	sub	s1,a3,a4
    4558:	0004d363          	bgez	s1,455e <_printf_common+0x98>
    455c:	4481                	li	s1,0
    455e:	441c                	lw	a5,8(s0)
    4560:	4818                	lw	a4,16(s0)
    4562:	00f75463          	bge	a4,a5,456a <_printf_common+0xa4>
    4566:	8f99                	sub	a5,a5,a4
    4568:	94be                	add	s1,s1,a5
    456a:	4901                	li	s2,0
    456c:	0469                	addi	s0,s0,26
    456e:	5b7d                	li	s6,-1
    4570:	05249863          	bne	s1,s2,45c0 <_printf_common+0xfa>
    4574:	4501                	li	a0,0
    4576:	a809                	j	4588 <_printf_common+0xc2>
    4578:	4685                	li	a3,1
    457a:	865a                	mv	a2,s6
    457c:	85d2                	mv	a1,s4
    457e:	854e                	mv	a0,s3
    4580:	9a82                	jalr	s5
    4582:	01751e63          	bne	a0,s7,459e <_printf_common+0xd8>
    4586:	557d                	li	a0,-1
    4588:	50b2                	lw	ra,44(sp)
    458a:	5422                	lw	s0,40(sp)
    458c:	5492                	lw	s1,36(sp)
    458e:	5902                	lw	s2,32(sp)
    4590:	49f2                	lw	s3,28(sp)
    4592:	4a62                	lw	s4,24(sp)
    4594:	4ad2                	lw	s5,20(sp)
    4596:	4b42                	lw	s6,16(sp)
    4598:	4bb2                	lw	s7,12(sp)
    459a:	6145                	addi	sp,sp,48
    459c:	8082                	ret
    459e:	0905                	addi	s2,s2,1
    45a0:	bfad                	j	451a <_printf_common+0x54>
    45a2:	00d40733          	add	a4,s0,a3
    45a6:	03000613          	li	a2,48
    45aa:	04c701a3          	sb	a2,67(a4)
    45ae:	04544703          	lbu	a4,69(s0)
    45b2:	00168793          	addi	a5,a3,1
    45b6:	97a2                	add	a5,a5,s0
    45b8:	0689                	addi	a3,a3,2
    45ba:	04e781a3          	sb	a4,67(a5)
    45be:	bf9d                	j	4534 <_printf_common+0x6e>
    45c0:	4685                	li	a3,1
    45c2:	8622                	mv	a2,s0
    45c4:	85d2                	mv	a1,s4
    45c6:	854e                	mv	a0,s3
    45c8:	9a82                	jalr	s5
    45ca:	fb650ee3          	beq	a0,s6,4586 <_printf_common+0xc0>
    45ce:	0905                	addi	s2,s2,1
    45d0:	b745                	j	4570 <_printf_common+0xaa>

000045d2 <_printf_i>:
    45d2:	7179                	addi	sp,sp,-48
    45d4:	d422                	sw	s0,40(sp)
    45d6:	d226                	sw	s1,36(sp)
    45d8:	d04a                	sw	s2,32(sp)
    45da:	ce4e                	sw	s3,28(sp)
    45dc:	d606                	sw	ra,44(sp)
    45de:	cc52                	sw	s4,24(sp)
    45e0:	ca56                	sw	s5,20(sp)
    45e2:	c85a                	sw	s6,16(sp)
    45e4:	89b6                	mv	s3,a3
    45e6:	2d94                	lbu	a3,24(a1)
    45e8:	06900793          	li	a5,105
    45ec:	8932                	mv	s2,a2
    45ee:	84aa                	mv	s1,a0
    45f0:	842e                	mv	s0,a1
    45f2:	04358613          	addi	a2,a1,67
    45f6:	02f68d63          	beq	a3,a5,4630 <_printf_i+0x5e>
    45fa:	06d7e263          	bltu	a5,a3,465e <_printf_i+0x8c>
    45fe:	05800793          	li	a5,88
    4602:	18f68663          	beq	a3,a5,478e <_printf_i+0x1bc>
    4606:	00d7ed63          	bltu	a5,a3,4620 <_printf_i+0x4e>
    460a:	20068e63          	beqz	a3,4826 <_printf_i+0x254>
    460e:	04300793          	li	a5,67
    4612:	0af68e63          	beq	a3,a5,46ce <_printf_i+0xfc>
    4616:	04240a93          	addi	s5,s0,66
    461a:	04d40123          	sb	a3,66(s0)
    461e:	a0c9                	j	46e0 <_printf_i+0x10e>
    4620:	06300793          	li	a5,99
    4624:	0af68563          	beq	a3,a5,46ce <_printf_i+0xfc>
    4628:	06400793          	li	a5,100
    462c:	fef695e3          	bne	a3,a5,4616 <_printf_i+0x44>
    4630:	401c                	lw	a5,0(s0)
    4632:	4308                	lw	a0,0(a4)
    4634:	0807f693          	andi	a3,a5,128
    4638:	00450593          	addi	a1,a0,4
    463c:	c6c5                	beqz	a3,46e4 <_printf_i+0x112>
    463e:	411c                	lw	a5,0(a0)
    4640:	c30c                	sw	a1,0(a4)
    4642:	0007d863          	bgez	a5,4652 <_printf_i+0x80>
    4646:	02d00713          	li	a4,45
    464a:	40f007b3          	neg	a5,a5
    464e:	04e401a3          	sb	a4,67(s0)
    4652:	00002697          	auipc	a3,0x2
    4656:	46e68693          	addi	a3,a3,1134 # 6ac0 <__sf_fake_stdout+0x34>
    465a:	4729                	li	a4,10
    465c:	a865                	j	4714 <_printf_i+0x142>
    465e:	07000793          	li	a5,112
    4662:	16f68263          	beq	a3,a5,47c6 <_printf_i+0x1f4>
    4666:	02d7e563          	bltu	a5,a3,4690 <_printf_i+0xbe>
    466a:	06e00793          	li	a5,110
    466e:	18f68963          	beq	a3,a5,4800 <_printf_i+0x22e>
    4672:	06f00793          	li	a5,111
    4676:	faf690e3          	bne	a3,a5,4616 <_printf_i+0x44>
    467a:	400c                	lw	a1,0(s0)
    467c:	431c                	lw	a5,0(a4)
    467e:	0805f813          	andi	a6,a1,128
    4682:	00478513          	addi	a0,a5,4
    4686:	06080763          	beqz	a6,46f4 <_printf_i+0x122>
    468a:	c308                	sw	a0,0(a4)
    468c:	439c                	lw	a5,0(a5)
    468e:	a885                	j	46fe <_printf_i+0x12c>
    4690:	07500793          	li	a5,117
    4694:	fef683e3          	beq	a3,a5,467a <_printf_i+0xa8>
    4698:	07800793          	li	a5,120
    469c:	12f68963          	beq	a3,a5,47ce <_printf_i+0x1fc>
    46a0:	07300793          	li	a5,115
    46a4:	f6f699e3          	bne	a3,a5,4616 <_printf_i+0x44>
    46a8:	431c                	lw	a5,0(a4)
    46aa:	41d0                	lw	a2,4(a1)
    46ac:	4581                	li	a1,0
    46ae:	00478693          	addi	a3,a5,4
    46b2:	c314                	sw	a3,0(a4)
    46b4:	0007aa83          	lw	s5,0(a5)
    46b8:	8556                	mv	a0,s5
    46ba:	2e49                	jal	4a4c <memchr>
    46bc:	c501                	beqz	a0,46c4 <_printf_i+0xf2>
    46be:	41550533          	sub	a0,a0,s5
    46c2:	c048                	sw	a0,4(s0)
    46c4:	405c                	lw	a5,4(s0)
    46c6:	c81c                	sw	a5,16(s0)
    46c8:	040401a3          	sb	zero,67(s0)
    46cc:	a861                	j	4764 <_printf_i+0x192>
    46ce:	431c                	lw	a5,0(a4)
    46d0:	04240a93          	addi	s5,s0,66
    46d4:	00478693          	addi	a3,a5,4
    46d8:	439c                	lw	a5,0(a5)
    46da:	c314                	sw	a3,0(a4)
    46dc:	04f40123          	sb	a5,66(s0)
    46e0:	4785                	li	a5,1
    46e2:	b7d5                	j	46c6 <_printf_i+0xf4>
    46e4:	0407f693          	andi	a3,a5,64
    46e8:	411c                	lw	a5,0(a0)
    46ea:	c30c                	sw	a1,0(a4)
    46ec:	dab9                	beqz	a3,4642 <_printf_i+0x70>
    46ee:	07c2                	slli	a5,a5,0x10
    46f0:	87c1                	srai	a5,a5,0x10
    46f2:	bf81                	j	4642 <_printf_i+0x70>
    46f4:	0405f593          	andi	a1,a1,64
    46f8:	c308                	sw	a0,0(a4)
    46fa:	d9c9                	beqz	a1,468c <_printf_i+0xba>
    46fc:	239e                	lhu	a5,0(a5)
    46fe:	06f00713          	li	a4,111
    4702:	0ee68763          	beq	a3,a4,47f0 <_printf_i+0x21e>
    4706:	00002697          	auipc	a3,0x2
    470a:	3ba68693          	addi	a3,a3,954 # 6ac0 <__sf_fake_stdout+0x34>
    470e:	4729                	li	a4,10
    4710:	040401a3          	sb	zero,67(s0)
    4714:	404c                	lw	a1,4(s0)
    4716:	c40c                	sw	a1,8(s0)
    4718:	0005c563          	bltz	a1,4722 <_printf_i+0x150>
    471c:	4008                	lw	a0,0(s0)
    471e:	996d                	andi	a0,a0,-5
    4720:	c008                	sw	a0,0(s0)
    4722:	e399                	bnez	a5,4728 <_printf_i+0x156>
    4724:	8ab2                	mv	s5,a2
    4726:	cd89                	beqz	a1,4740 <_printf_i+0x16e>
    4728:	8ab2                	mv	s5,a2
    472a:	02e7f5b3          	remu	a1,a5,a4
    472e:	1afd                	addi	s5,s5,-1
    4730:	95b6                	add	a1,a1,a3
    4732:	218c                	lbu	a1,0(a1)
    4734:	00ba8023          	sb	a1,0(s5)
    4738:	02e7d5b3          	divu	a1,a5,a4
    473c:	0ce7f063          	bgeu	a5,a4,47fc <_printf_i+0x22a>
    4740:	47a1                	li	a5,8
    4742:	00f71e63          	bne	a4,a5,475e <_printf_i+0x18c>
    4746:	401c                	lw	a5,0(s0)
    4748:	8b85                	andi	a5,a5,1
    474a:	cb91                	beqz	a5,475e <_printf_i+0x18c>
    474c:	4058                	lw	a4,4(s0)
    474e:	481c                	lw	a5,16(s0)
    4750:	00e7c763          	blt	a5,a4,475e <_printf_i+0x18c>
    4754:	03000793          	li	a5,48
    4758:	fefa8fa3          	sb	a5,-1(s5)
    475c:	1afd                	addi	s5,s5,-1
    475e:	41560633          	sub	a2,a2,s5
    4762:	c810                	sw	a2,16(s0)
    4764:	874e                	mv	a4,s3
    4766:	86ca                	mv	a3,s2
    4768:	0070                	addi	a2,sp,12
    476a:	85a2                	mv	a1,s0
    476c:	8526                	mv	a0,s1
    476e:	d59ff0ef          	jal	ra,44c6 <_printf_common>
    4772:	5a7d                	li	s4,-1
    4774:	0b451d63          	bne	a0,s4,482e <_printf_i+0x25c>
    4778:	557d                	li	a0,-1
    477a:	50b2                	lw	ra,44(sp)
    477c:	5422                	lw	s0,40(sp)
    477e:	5492                	lw	s1,36(sp)
    4780:	5902                	lw	s2,32(sp)
    4782:	49f2                	lw	s3,28(sp)
    4784:	4a62                	lw	s4,24(sp)
    4786:	4ad2                	lw	s5,20(sp)
    4788:	4b42                	lw	s6,16(sp)
    478a:	6145                	addi	sp,sp,48
    478c:	8082                	ret
    478e:	04d582a3          	sb	a3,69(a1)
    4792:	00002697          	auipc	a3,0x2
    4796:	32e68693          	addi	a3,a3,814 # 6ac0 <__sf_fake_stdout+0x34>
    479a:	400c                	lw	a1,0(s0)
    479c:	4308                	lw	a0,0(a4)
    479e:	0805f813          	andi	a6,a1,128
    47a2:	411c                	lw	a5,0(a0)
    47a4:	0511                	addi	a0,a0,4
    47a6:	02080d63          	beqz	a6,47e0 <_printf_i+0x20e>
    47aa:	c308                	sw	a0,0(a4)
    47ac:	0015f713          	andi	a4,a1,1
    47b0:	c701                	beqz	a4,47b8 <_printf_i+0x1e6>
    47b2:	0205e593          	ori	a1,a1,32
    47b6:	c00c                	sw	a1,0(s0)
    47b8:	4741                	li	a4,16
    47ba:	fbb9                	bnez	a5,4710 <_printf_i+0x13e>
    47bc:	400c                	lw	a1,0(s0)
    47be:	fdf5f593          	andi	a1,a1,-33
    47c2:	c00c                	sw	a1,0(s0)
    47c4:	b7b1                	j	4710 <_printf_i+0x13e>
    47c6:	419c                	lw	a5,0(a1)
    47c8:	0207e793          	ori	a5,a5,32
    47cc:	c19c                	sw	a5,0(a1)
    47ce:	07800793          	li	a5,120
    47d2:	04f402a3          	sb	a5,69(s0)
    47d6:	00002697          	auipc	a3,0x2
    47da:	2fe68693          	addi	a3,a3,766 # 6ad4 <__sf_fake_stdout+0x48>
    47de:	bf75                	j	479a <_printf_i+0x1c8>
    47e0:	0405f813          	andi	a6,a1,64
    47e4:	c308                	sw	a0,0(a4)
    47e6:	fc0803e3          	beqz	a6,47ac <_printf_i+0x1da>
    47ea:	07c2                	slli	a5,a5,0x10
    47ec:	83c1                	srli	a5,a5,0x10
    47ee:	bf7d                	j	47ac <_printf_i+0x1da>
    47f0:	00002697          	auipc	a3,0x2
    47f4:	2d068693          	addi	a3,a3,720 # 6ac0 <__sf_fake_stdout+0x34>
    47f8:	4721                	li	a4,8
    47fa:	bf19                	j	4710 <_printf_i+0x13e>
    47fc:	87ae                	mv	a5,a1
    47fe:	b735                	j	472a <_printf_i+0x158>
    4800:	4194                	lw	a3,0(a1)
    4802:	431c                	lw	a5,0(a4)
    4804:	49cc                	lw	a1,20(a1)
    4806:	0806f813          	andi	a6,a3,128
    480a:	00478513          	addi	a0,a5,4
    480e:	00080663          	beqz	a6,481a <_printf_i+0x248>
    4812:	c308                	sw	a0,0(a4)
    4814:	439c                	lw	a5,0(a5)
    4816:	c38c                	sw	a1,0(a5)
    4818:	a039                	j	4826 <_printf_i+0x254>
    481a:	c308                	sw	a0,0(a4)
    481c:	0406f693          	andi	a3,a3,64
    4820:	439c                	lw	a5,0(a5)
    4822:	daf5                	beqz	a3,4816 <_printf_i+0x244>
    4824:	a38e                	sh	a1,0(a5)
    4826:	00042823          	sw	zero,16(s0)
    482a:	8ab2                	mv	s5,a2
    482c:	bf25                	j	4764 <_printf_i+0x192>
    482e:	4814                	lw	a3,16(s0)
    4830:	8656                	mv	a2,s5
    4832:	85ca                	mv	a1,s2
    4834:	8526                	mv	a0,s1
    4836:	9982                	jalr	s3
    4838:	f54500e3          	beq	a0,s4,4778 <_printf_i+0x1a6>
    483c:	401c                	lw	a5,0(s0)
    483e:	8b89                	andi	a5,a5,2
    4840:	e78d                	bnez	a5,486a <_printf_i+0x298>
    4842:	47b2                	lw	a5,12(sp)
    4844:	4448                	lw	a0,12(s0)
    4846:	f2f55ae3          	bge	a0,a5,477a <_printf_i+0x1a8>
    484a:	853e                	mv	a0,a5
    484c:	b73d                	j	477a <_printf_i+0x1a8>
    484e:	4685                	li	a3,1
    4850:	8656                	mv	a2,s5
    4852:	85ca                	mv	a1,s2
    4854:	8526                	mv	a0,s1
    4856:	9982                	jalr	s3
    4858:	f36500e3          	beq	a0,s6,4778 <_printf_i+0x1a6>
    485c:	0a05                	addi	s4,s4,1
    485e:	445c                	lw	a5,12(s0)
    4860:	4732                	lw	a4,12(sp)
    4862:	8f99                	sub	a5,a5,a4
    4864:	fefa45e3          	blt	s4,a5,484e <_printf_i+0x27c>
    4868:	bfe9                	j	4842 <_printf_i+0x270>
    486a:	4a01                	li	s4,0
    486c:	01940a93          	addi	s5,s0,25
    4870:	5b7d                	li	s6,-1
    4872:	b7f5                	j	485e <_printf_i+0x28c>

00004874 <_sbrk_r>:
    4874:	1141                	addi	sp,sp,-16
    4876:	c422                	sw	s0,8(sp)
    4878:	842a                	mv	s0,a0
    487a:	852e                	mv	a0,a1
    487c:	1ffff797          	auipc	a5,0x1ffff
    4880:	4007aa23          	sw	zero,1044(a5) # 20003c90 <errno>
    4884:	c606                	sw	ra,12(sp)
    4886:	f41fe0ef          	jal	ra,37c6 <_sbrk>
    488a:	57fd                	li	a5,-1
    488c:	00f51963          	bne	a0,a5,489e <_sbrk_r+0x2a>
    4890:	1ffff797          	auipc	a5,0x1ffff
    4894:	40078793          	addi	a5,a5,1024 # 20003c90 <errno>
    4898:	439c                	lw	a5,0(a5)
    489a:	c391                	beqz	a5,489e <_sbrk_r+0x2a>
    489c:	c01c                	sw	a5,0(s0)
    489e:	40b2                	lw	ra,12(sp)
    48a0:	4422                	lw	s0,8(sp)
    48a2:	0141                	addi	sp,sp,16
    48a4:	8082                	ret

000048a6 <__sread>:
    48a6:	1141                	addi	sp,sp,-16
    48a8:	c422                	sw	s0,8(sp)
    48aa:	842e                	mv	s0,a1
    48ac:	00e59583          	lh	a1,14(a1)
    48b0:	c606                	sw	ra,12(sp)
    48b2:	2a5d                	jal	4a68 <_read_r>
    48b4:	00054963          	bltz	a0,48c6 <__sread+0x20>
    48b8:	487c                	lw	a5,84(s0)
    48ba:	97aa                	add	a5,a5,a0
    48bc:	c87c                	sw	a5,84(s0)
    48be:	40b2                	lw	ra,12(sp)
    48c0:	4422                	lw	s0,8(sp)
    48c2:	0141                	addi	sp,sp,16
    48c4:	8082                	ret
    48c6:	245e                	lhu	a5,12(s0)
    48c8:	777d                	lui	a4,0xfffff
    48ca:	177d                	addi	a4,a4,-1
    48cc:	8ff9                	and	a5,a5,a4
    48ce:	a45e                	sh	a5,12(s0)
    48d0:	b7fd                	j	48be <__sread+0x18>

000048d2 <__swrite>:
    48d2:	25de                	lhu	a5,12(a1)
    48d4:	1101                	addi	sp,sp,-32
    48d6:	cc22                	sw	s0,24(sp)
    48d8:	ca26                	sw	s1,20(sp)
    48da:	c84a                	sw	s2,16(sp)
    48dc:	c64e                	sw	s3,12(sp)
    48de:	ce06                	sw	ra,28(sp)
    48e0:	1007f793          	andi	a5,a5,256
    48e4:	84aa                	mv	s1,a0
    48e6:	842e                	mv	s0,a1
    48e8:	8932                	mv	s2,a2
    48ea:	89b6                	mv	s3,a3
    48ec:	c791                	beqz	a5,48f8 <__swrite+0x26>
    48ee:	00e59583          	lh	a1,14(a1)
    48f2:	4689                	li	a3,2
    48f4:	4601                	li	a2,0
    48f6:	220d                	jal	4a18 <_lseek_r>
    48f8:	245e                	lhu	a5,12(s0)
    48fa:	777d                	lui	a4,0xfffff
    48fc:	177d                	addi	a4,a4,-1
    48fe:	8ff9                	and	a5,a5,a4
    4900:	a45e                	sh	a5,12(s0)
    4902:	00e41583          	lh	a1,14(s0)
    4906:	4462                	lw	s0,24(sp)
    4908:	40f2                	lw	ra,28(sp)
    490a:	86ce                	mv	a3,s3
    490c:	864a                	mv	a2,s2
    490e:	49b2                	lw	s3,12(sp)
    4910:	4942                	lw	s2,16(sp)
    4912:	8526                	mv	a0,s1
    4914:	44d2                	lw	s1,20(sp)
    4916:	6105                	addi	sp,sp,32
    4918:	a825                	j	4950 <_write_r>

0000491a <__sseek>:
    491a:	1141                	addi	sp,sp,-16
    491c:	c422                	sw	s0,8(sp)
    491e:	842e                	mv	s0,a1
    4920:	00e59583          	lh	a1,14(a1)
    4924:	c606                	sw	ra,12(sp)
    4926:	28cd                	jal	4a18 <_lseek_r>
    4928:	57fd                	li	a5,-1
    492a:	245a                	lhu	a4,12(s0)
    492c:	00f51a63          	bne	a0,a5,4940 <__sseek+0x26>
    4930:	77fd                	lui	a5,0xfffff
    4932:	17fd                	addi	a5,a5,-1
    4934:	8ff9                	and	a5,a5,a4
    4936:	a45e                	sh	a5,12(s0)
    4938:	40b2                	lw	ra,12(sp)
    493a:	4422                	lw	s0,8(sp)
    493c:	0141                	addi	sp,sp,16
    493e:	8082                	ret
    4940:	6785                	lui	a5,0x1
    4942:	8fd9                	or	a5,a5,a4
    4944:	a45e                	sh	a5,12(s0)
    4946:	c868                	sw	a0,84(s0)
    4948:	bfc5                	j	4938 <__sseek+0x1e>

0000494a <__sclose>:
    494a:	00e59583          	lh	a1,14(a1)
    494e:	a825                	j	4986 <_close_r>

00004950 <_write_r>:
    4950:	1141                	addi	sp,sp,-16
    4952:	c422                	sw	s0,8(sp)
    4954:	842a                	mv	s0,a0
    4956:	852e                	mv	a0,a1
    4958:	85b2                	mv	a1,a2
    495a:	8636                	mv	a2,a3
    495c:	1ffff797          	auipc	a5,0x1ffff
    4960:	3207aa23          	sw	zero,820(a5) # 20003c90 <errno>
    4964:	c606                	sw	ra,12(sp)
    4966:	e27fe0ef          	jal	ra,378c <_write>
    496a:	57fd                	li	a5,-1
    496c:	00f51963          	bne	a0,a5,497e <_write_r+0x2e>
    4970:	1ffff797          	auipc	a5,0x1ffff
    4974:	32078793          	addi	a5,a5,800 # 20003c90 <errno>
    4978:	439c                	lw	a5,0(a5)
    497a:	c391                	beqz	a5,497e <_write_r+0x2e>
    497c:	c01c                	sw	a5,0(s0)
    497e:	40b2                	lw	ra,12(sp)
    4980:	4422                	lw	s0,8(sp)
    4982:	0141                	addi	sp,sp,16
    4984:	8082                	ret

00004986 <_close_r>:
    4986:	1141                	addi	sp,sp,-16
    4988:	c422                	sw	s0,8(sp)
    498a:	842a                	mv	s0,a0
    498c:	852e                	mv	a0,a1
    498e:	1ffff797          	auipc	a5,0x1ffff
    4992:	3007a123          	sw	zero,770(a5) # 20003c90 <errno>
    4996:	c606                	sw	ra,12(sp)
    4998:	2211                	jal	4a9c <_close>
    499a:	57fd                	li	a5,-1
    499c:	00f51963          	bne	a0,a5,49ae <_close_r+0x28>
    49a0:	1ffff797          	auipc	a5,0x1ffff
    49a4:	2f078793          	addi	a5,a5,752 # 20003c90 <errno>
    49a8:	439c                	lw	a5,0(a5)
    49aa:	c391                	beqz	a5,49ae <_close_r+0x28>
    49ac:	c01c                	sw	a5,0(s0)
    49ae:	40b2                	lw	ra,12(sp)
    49b0:	4422                	lw	s0,8(sp)
    49b2:	0141                	addi	sp,sp,16
    49b4:	8082                	ret

000049b6 <_fstat_r>:
    49b6:	1141                	addi	sp,sp,-16
    49b8:	c422                	sw	s0,8(sp)
    49ba:	842a                	mv	s0,a0
    49bc:	852e                	mv	a0,a1
    49be:	85b2                	mv	a1,a2
    49c0:	1ffff797          	auipc	a5,0x1ffff
    49c4:	2c07a823          	sw	zero,720(a5) # 20003c90 <errno>
    49c8:	c606                	sw	ra,12(sp)
    49ca:	20cd                	jal	4aac <_fstat>
    49cc:	57fd                	li	a5,-1
    49ce:	00f51963          	bne	a0,a5,49e0 <_fstat_r+0x2a>
    49d2:	1ffff797          	auipc	a5,0x1ffff
    49d6:	2be78793          	addi	a5,a5,702 # 20003c90 <errno>
    49da:	439c                	lw	a5,0(a5)
    49dc:	c391                	beqz	a5,49e0 <_fstat_r+0x2a>
    49de:	c01c                	sw	a5,0(s0)
    49e0:	40b2                	lw	ra,12(sp)
    49e2:	4422                	lw	s0,8(sp)
    49e4:	0141                	addi	sp,sp,16
    49e6:	8082                	ret

000049e8 <_isatty_r>:
    49e8:	1141                	addi	sp,sp,-16
    49ea:	c422                	sw	s0,8(sp)
    49ec:	842a                	mv	s0,a0
    49ee:	852e                	mv	a0,a1
    49f0:	1ffff797          	auipc	a5,0x1ffff
    49f4:	2a07a023          	sw	zero,672(a5) # 20003c90 <errno>
    49f8:	c606                	sw	ra,12(sp)
    49fa:	20c9                	jal	4abc <_isatty>
    49fc:	57fd                	li	a5,-1
    49fe:	00f51963          	bne	a0,a5,4a10 <_isatty_r+0x28>
    4a02:	1ffff797          	auipc	a5,0x1ffff
    4a06:	28e78793          	addi	a5,a5,654 # 20003c90 <errno>
    4a0a:	439c                	lw	a5,0(a5)
    4a0c:	c391                	beqz	a5,4a10 <_isatty_r+0x28>
    4a0e:	c01c                	sw	a5,0(s0)
    4a10:	40b2                	lw	ra,12(sp)
    4a12:	4422                	lw	s0,8(sp)
    4a14:	0141                	addi	sp,sp,16
    4a16:	8082                	ret

00004a18 <_lseek_r>:
    4a18:	1141                	addi	sp,sp,-16
    4a1a:	c422                	sw	s0,8(sp)
    4a1c:	842a                	mv	s0,a0
    4a1e:	852e                	mv	a0,a1
    4a20:	85b2                	mv	a1,a2
    4a22:	8636                	mv	a2,a3
    4a24:	1ffff797          	auipc	a5,0x1ffff
    4a28:	2607a623          	sw	zero,620(a5) # 20003c90 <errno>
    4a2c:	c606                	sw	ra,12(sp)
    4a2e:	2879                	jal	4acc <_lseek>
    4a30:	57fd                	li	a5,-1
    4a32:	00f51963          	bne	a0,a5,4a44 <_lseek_r+0x2c>
    4a36:	1ffff797          	auipc	a5,0x1ffff
    4a3a:	25a78793          	addi	a5,a5,602 # 20003c90 <errno>
    4a3e:	439c                	lw	a5,0(a5)
    4a40:	c391                	beqz	a5,4a44 <_lseek_r+0x2c>
    4a42:	c01c                	sw	a5,0(s0)
    4a44:	40b2                	lw	ra,12(sp)
    4a46:	4422                	lw	s0,8(sp)
    4a48:	0141                	addi	sp,sp,16
    4a4a:	8082                	ret

00004a4c <memchr>:
    4a4c:	0ff5f593          	andi	a1,a1,255
    4a50:	962a                	add	a2,a2,a0
    4a52:	00c51463          	bne	a0,a2,4a5a <memchr+0xe>
    4a56:	4501                	li	a0,0
    4a58:	8082                	ret
    4a5a:	211c                	lbu	a5,0(a0)
    4a5c:	feb78ee3          	beq	a5,a1,4a58 <memchr+0xc>
    4a60:	0505                	addi	a0,a0,1
    4a62:	bfc5                	j	4a52 <memchr+0x6>

00004a64 <__malloc_lock>:
    4a64:	8082                	ret

00004a66 <__malloc_unlock>:
    4a66:	8082                	ret

00004a68 <_read_r>:
    4a68:	1141                	addi	sp,sp,-16
    4a6a:	c422                	sw	s0,8(sp)
    4a6c:	842a                	mv	s0,a0
    4a6e:	852e                	mv	a0,a1
    4a70:	85b2                	mv	a1,a2
    4a72:	8636                	mv	a2,a3
    4a74:	1ffff797          	auipc	a5,0x1ffff
    4a78:	2007ae23          	sw	zero,540(a5) # 20003c90 <errno>
    4a7c:	c606                	sw	ra,12(sp)
    4a7e:	28b9                	jal	4adc <_read>
    4a80:	57fd                	li	a5,-1
    4a82:	00f51963          	bne	a0,a5,4a94 <_read_r+0x2c>
    4a86:	1ffff797          	auipc	a5,0x1ffff
    4a8a:	20a78793          	addi	a5,a5,522 # 20003c90 <errno>
    4a8e:	439c                	lw	a5,0(a5)
    4a90:	c391                	beqz	a5,4a94 <_read_r+0x2c>
    4a92:	c01c                	sw	a5,0(s0)
    4a94:	40b2                	lw	ra,12(sp)
    4a96:	4422                	lw	s0,8(sp)
    4a98:	0141                	addi	sp,sp,16
    4a9a:	8082                	ret

00004a9c <_close>:
    4a9c:	05800793          	li	a5,88
    4aa0:	1ffff717          	auipc	a4,0x1ffff
    4aa4:	1ef72823          	sw	a5,496(a4) # 20003c90 <errno>
    4aa8:	557d                	li	a0,-1
    4aaa:	8082                	ret

00004aac <_fstat>:
    4aac:	05800793          	li	a5,88
    4ab0:	1ffff717          	auipc	a4,0x1ffff
    4ab4:	1ef72023          	sw	a5,480(a4) # 20003c90 <errno>
    4ab8:	557d                	li	a0,-1
    4aba:	8082                	ret

00004abc <_isatty>:
    4abc:	05800793          	li	a5,88
    4ac0:	1ffff717          	auipc	a4,0x1ffff
    4ac4:	1cf72823          	sw	a5,464(a4) # 20003c90 <errno>
    4ac8:	4501                	li	a0,0
    4aca:	8082                	ret

00004acc <_lseek>:
    4acc:	05800793          	li	a5,88
    4ad0:	1ffff717          	auipc	a4,0x1ffff
    4ad4:	1cf72023          	sw	a5,448(a4) # 20003c90 <errno>
    4ad8:	557d                	li	a0,-1
    4ada:	8082                	ret

00004adc <_read>:
    4adc:	05800793          	li	a5,88
    4ae0:	1ffff717          	auipc	a4,0x1ffff
    4ae4:	1af72823          	sw	a5,432(a4) # 20003c90 <errno>
    4ae8:	557d                	li	a0,-1
    4aea:	8082                	ret
    4aec:	2b0c                	lbu	a1,16(a4)
    4aee:	0000                	unimp
    4af0:	2c54                	lbu	a3,28(s0)
    4af2:	0000                	unimp
    4af4:	2c5e                	lhu	a5,28(s0)
    4af6:	0000                	unimp
    4af8:	2c68                	lbu	a0,30(s0)
    4afa:	0000                	unimp
    4afc:	2c72                	lhu	a2,30(s0)
    4afe:	0000                	unimp
    4b00:	0000                	unimp
    4b02:	3f00                	lbu	s0,25(a4)
    4b04:	1b7d                	addi	s6,s6,-1
    4b06:	3f44                	lbu	s1,29(a4)
    4b08:	d0d4                	sw	a3,36(s1)
    4b0a:	3e31                	jal	4626 <_printf_i+0x54>
    4b0c:	8fb2                	mv	t6,a2
    4b0e:	3f70                	lbu	a2,31(a4)
    4b10:	1c5c                	addi	a5,sp,564
    4b12:	3f7c                	lbu	a5,31(a4)
    4b14:	1d44                	addi	s1,sp,692
    4b16:	b3d73eaf          	0xb3d73eaf
    4b1a:	3f5d                	jal	4ad0 <_lseek+0x4>
    4b1c:	3f248dbb          	0x3f248dbb

00004b20 <g_aa.6643>:
    4b20:	3f5b84a8 3f61b9d8 3f731add 3f7bba81     ..[?..a?..s?..{?
    4b30:	3f7eda41 3f7fc8fd 3f7ff965 3f7fff8d     A.~?...?e..?...?
    4b40:	3f03b5fe 3ef186da 3ea07302 3e3a4774     ...?...>.s.>tG:>
    4b50:	3dc1b01d 3d27cb86 3c68a114 3b727b32     ...=..'=..h<2{r;

00004b60 <g_expfrac.6431>:
    4b60:	30800000 305744fd 303504f3 301837f0     ...0.DW0..50.7.0

00004b70 <g_hz.6379>:
    4b70:	0000ac44 0000bb80 00007d00              D........}..

00004b7c <g_linbits.6494>:
	...
    4b8c:	04030201 0d0a0806 07060504 0d0b0908     ................

00004b9c <g_mdct_window.6738>:
    4b9c:	3f7fc1a0 3f7dcf55 3f79ee89 3f7426cb     ...?U.}?..y?.&t?
    4bac:	3f6c835e 3f631324 3f57e881 3f4b1934     ^.l?$.c?..W?4.K?
    4bbc:	3f3cbe35 3d32aa3c 3e05a8a8 3e5da258     5.<?<.2=...>X.]>
    4bcc:	3e99f61c 3ec3ef15 3eec6a50 3f098c78     ...>...>Pj.>x..?
    4bdc:	3f1bd7ca 3f2cf37b 3f800000 3f800000     ...?{.,?...?...?
    4bec:	3f800000 3f800000 3f800000 3f800000     ...?...?...?...?
    4bfc:	3f7dcf55 3f6c835e 3f4b1934 00000000     U.}?^.l?4.K?....
	...
    4c20:	3e05a8a8 3ec3ef15 3f1bd7ca              ...>...>...?

00004c2c <g_mod.6454>:
    4c2c:	04040505 01040505 01010304 01060605     ................
    4c3c:	01040404 01010304                       ........

00004c44 <g_pan.6598>:
    4c44:	00000000 3f800000 3e58658c 3f49e69d     .......?.eX>..I?
    4c54:	3ebb67ae 3f224c29 3f000000 3f000000     .g.>)L"?...?...?
    4c64:	3f224c29 3ebb67ae 3f49e69d 3e58658c     )L"?.g.>..I?.eX>
    4c74:	3f800000 00000000                       ...?....

00004c7c <g_pow43>:
    4c7c:	00000000 bf800000 c0214517 c08a74ba     .........E!..t..
    4c8c:	c0cb2ff5 c108cc4f c12e718f c1563f90     ./..O....q...?V.
    4c9c:	c1800000 c195c41b c1ac5ad3 c1c3b5d3     .........Z......
    4cac:	c1dbc8ff c1f489ef c206f7cd c213f904     ................
    4cbc:	00000000 3f800000 40214517 408a74ba     .......?.E!@.t.@
    4ccc:	40cb2ff5 4108cc4f 412e718f 41563f90     ./.@O..A.q.A.?VA
    4cdc:	41800000 4195c41b 41ac5ad3 41c3b5d3     ...A...A.Z.A...A
    4cec:	41dbc8ff 41f489ef 4206f7cd 4213f904     ...A...A...B...B
    4cfc:	42214518 422ed8df 423cb181 424acc6c     .E!B...B..<Bl.JB
    4d0c:	42592746 4267bfe8 42769457 4282d161     F'YB..gBW.vBa..B
    4d1c:	428a74ba 4292336d 429a0cbf 42a20000     .t.Bm3.B...B...B
    4d2c:	42aa0c8a 42b231c3 42ba6f17 42c2c3fe     ...B.1.B.o.B...B
    4d3c:	42cb2ff5 42d3b280 42dc4b2a 42e4f982     ./.B...B*K.B...B
    4d4c:	42edbd20 42f6959c 42ff8298 430441db      ..B...B...B.A.C
    4d5c:	4308cc4f 430d607d 4311fe3d 4316a568     O..C}`.C=..Ch..C
    4d6c:	431b55d8 43200f69 4324d1f9 43299d65     .U.Ci. C..$Ce.)C
    4d7c:	432e718e 43334e55 4338339a 433d2142     .q.CUN3C.38CB!=C
    4d8c:	43421730 43471549 434c1b72 43512992     0.BCI.GCr.LC.)QC
    4d9c:	43563f90 435b5d54 436082c7 4365afd1     .?VCT][C..`C..eC
    4dac:	436ae45e 43702057 437563a8 437aae3c     ^.jCW pC.cuC<.zC
    4dbc:	43800000 4382ac70 43855c65 43880fd6     ...Cp..Ce\.C...C
    4dcc:	438ac6ba 438d8108 43903eb7 4392ffc0     ...C...C.>.C...C
    4ddc:	4395c41b 43988bbf 439b56a5 439e24c5     ...C...C.V.C.$.C
    4dec:	43a0f617 43a3ca96 43a6a239 43a97cfa     ...C...C9..C.|.C
    4dfc:	43ac5ad3 43af3bbb 43b21fad 43b506a4     .Z.C.;.C...C...C
    4e0c:	43b7f097 43badd82 43bdcd5e 43c0c025     ...C...C^..C%..C
    4e1c:	43c3b5d3 43c6ae60 43c9a9c8 43cca806     ...C`..C...C...C
    4e2c:	43cfa913 43d2acea 43d5b388 43d8bce5     ...C...C...C...C
    4e3c:	43dbc8ff 43ded7ce 43e1e950 43e4fd7f     ...C...CP..C...C
    4e4c:	43e81456 43eb2dd2 43ee49ed 43f168a2     V..C.-.C.I.C.h.C
    4e5c:	43f489ef 43f7adcf 43fad43c 43fdfd34     ...C...C<..C4..C
    4e6c:	44009459 44022b59 4403c399 44055d15     Y..DY+.D...D.].D
    4e7c:	4406f7cd 440893be 440a30e6 440bcf45     ...D...D.0.DE..D
    4e8c:	440d6ed7 440f0f9c 4410b190 441254b4     .n.D...D...D.T.D
    4e9c:	4413f904 44159e80 44174526 4418ecf3     ...D...D&E.D...D
    4eac:	441a95e7 441c4000 441deb3c 441f979a     ...D.@.D<..D...D
    4ebc:	44214518                                .E!D

00004ec0 <g_preamp.6469>:
    4ec0:	01010101 03030202 00000203              ............

00004ecc <g_scf_long.6396>:
    4ecc:	06060606 0a080606 14100e0c 26201c18     .............. &
    4edc:	443c342e 0c00363a 0c0c0c0c 1814100c     .4<D:6..........
    4eec:	3028201c 5a4c4038 02020202 06060002     . (08@LZ........
    4efc:	06060606 0e0c0a08 1c181410 342e2620     ............ &.4
    4f0c:	363a443c 06060600 08060606 100e0c0a     <D:6............
    4f1c:	201a1612 3e362e26 00244c46 06060606     ... &.6>FL$.....
    4f2c:	0a080606 14100e0c 26201c18 443c342e     .......... &.4<D
    4f3c:	0400363a 04040404 08060604 100c0a08     :6..............
    4f4c:	221c1814 4c36322a 0404009e 04040404     ..."*26L........
    4f5c:	08060606 12100c0a 28221c16 c036362e     .........."(.66.
    4f6c:	04040400 06040404 0c0a0806 1e181410     ................
    4f7c:	44382e26 001a6654                       &.8DTf..

00004f84 <g_scf_mixed.6398>:
    4f84:	06060606 06060606 08080806 0c0a0a0a     ................
    4f94:	0e0e0c0c 1212120e 1e181818 28281e1e     ..............((
    4fa4:	12121228 00000000 040c0c0c 08080404     (...............
    4fb4:	0c0c0c08 14101010 18181414 1c1c1c18     ................
    4fc4:	02242424 02020202 02020202 001a1a1a     $$$.............
    4fd4:	06060606 06060606 06060606 0a080808     ................
    4fe4:	0e0e0a0a 1212120e 201a1a1a 2a2a2020     ...........   **
    4ff4:	1212122a 00000000 06060606 06060606     *...............
    5004:	08080806 0c0a0a0a 0e0e0c0c 1212120e     ................
    5014:	20181818 2c2c2020 0c0c0c2c 00000000     ...   ,,,.......
    5024:	06060606 06060606 08080806 0c0a0a0a     ................
    5034:	0e0e0c0c 1212120e 1e181818 28281e1e     ..............((
    5044:	12121228 00000000 04040404 06060404     (...............
    5054:	06040404 08080606 0a0a0a08 0e0c0c0c     ................
    5064:	12120e0e 16161612 381e1e1e 00003838     ...........888..
    5074:	04040404 06060404 06040404 06060606     ................
    5084:	0a0a0a06 0e0c0c0c 10100e0e 14141410     ................
    5094:	421a1a1a 00004242 04040404 06060404     ...BBB..........
    50a4:	06040404 08080606 0c0c0c08 14101010     ................
    50b4:	1a1a1414 2222221a 0c2a2a2a 00000c0c     ....."""***.....

000050c4 <g_scf_partitions.6443>:
    50c4:	05050506 05050506 03070506 00000a0b     ................
    50d4:	00070707 03060606 00050808 0c060908     ................
    50e4:	09090906 060c0906 0000120f 000c0f06     ................
    50f4:	06090c06 00091206 0c060909 09090909     ................
    5104:	060c0909 00001212 000c0c0c 0609090c     ................
    5114:	00090c0f                                ....

00005118 <g_scf_short.6397>:
    5118:	04040404 04040404 06060604 0a080808     ................
    5128:	0c0c0a0a 0e0e0e0c 18121212 1e1e1818     ................
    5138:	2828281e 00121212 08080808 08080808     .(((............
    5148:	0c0c0c08 14101010 18181414 1c1c1c18     ................
    5158:	02242424 02020202 02020202 001a1a1a     $$$.............
    5168:	04040404 04040404 06060604 08060606     ................
    5178:	0a0a0808 0e0e0e0a 1a121212 20201a1a     ..............  
    5188:	2a2a2a20 00121212 04040404 04040404      ***............
    5198:	06060604 0a080808 0c0c0a0a 0e0e0e0c     ................
    51a8:	18121212 20201818 2c2c2c20 000c0c0c     ......   ,,,....
    51b8:	04040404 04040404 06060604 0a080808     ................
    51c8:	0c0c0a0a 0e0e0e0c 18121212 1e1e1818     ................
    51d8:	2828281e 00121212 04040404 04040404     .(((............
    51e8:	04040404 08060606 0a0a0808 0c0c0c0a     ................
    51f8:	120e0e0e 16161212 1e1e1e16 00383838     ............888.
    5208:	04040404 04040404 04040404 06060606     ................
    5218:	0a0a0606 0c0c0c0a 100e0e0e 14141010     ................
    5228:	1a1a1a14 00424242 04040404 04040404     ....BBB.........
    5238:	04040404 08060606 0c0c0808 1010100c     ................
    5248:	1a141414 22221a1a 2a2a2a22 000c0c0c     ......"""***....

00005258 <g_scfc_decode.6452>:
    5258:	03020100 0706050c 0d0b0a09 13120f0e     ................

00005268 <g_sec.6773>:
    5268:	41230a46 3f002785 3f009e8d 405a1642     F.#A.'.?...?B.Z@
    5278:	3f01668b 3f05c278 4003b2af 3f03f45b     .f.?x..?...@[..?
    5288:	3f11233f 3fbdf91b 3f07f268 3f25961d     ?#.?...?h..?..%?
    5298:	3f95b035 3f0d9838 3f49c480 3f78fa3b     5..?8..?..I?;.x?
    52a8:	3f153b3a 3f87c449 3f56df9e 3f1f5c6e     :;.?I..?..V?n\.?
    52b8:	3fdc7926 3f3e99ee 3f2cc03d 40a33c9c     &y.?..>?=.,?.<.@

000052c8 <g_twid3.6703>:
    52c8:	3f4b1934 3f6c835e 3f7dcf55 3f1bd7ca     4.K?^.l?U.}?...?
    52d8:	3ec3ef15 3e05a8a8                       ...>...>

000052e0 <g_twid9.6676>:
    52e0:	3f3cbe35 3f4b1934 3f57e881 3f631324     5.<?4.K?..W?$.c?
    52f0:	3f6c835e 3f7426cb 3f79ee89 3f7dcf55     ^.l?.&t?..y?U.}?
    5300:	3f7fc1a0 3f2cf37b 3f1bd7ca 3f098c78     ...?{.,?...?x..?
    5310:	3eec6a50 3ec3ef15 3e99f61c 3e5da258     Pj.>...>...>X.]>
    5320:	3e05a8a8 3d32aa3c                       ...><.2=

00005328 <g_win.6827>:
    5328:	bf800000 41d00000 c1f80000 43500000     .......A......PC
    5338:	435a0000 43c88000 c401c000 4500f000     ..ZC...C.......E
    5348:	44fa0000 4595a000 c5ac6800 45def000     ...D...E.h.....E
    5358:	45ba3800 470b3800 c719a800 47927800     .8.E.8.G.....x.G
    5368:	bf800000 41c00000 c20c0000 434a0000     .......A......JC
    5378:	435e0000 43ad8000 c4114000 45020000     ..^C...C.@.....E
    5388:	44f40000 458a4800 c5b7b800 45eec000     ...D.H.E.......E
    5398:	45a54000 4703ff00 c720d800 47923400     .@.E...G.. ..4.G
    53a8:	bf800000 41a80000 c2180000 43440000     .......A......DC
    53b8:	43610000 43930000 c4214000 45027000     ..aC...C.@!..p.E
    53c8:	44eca000 457df000 c5c2e800 45fce000     ...D..}E.......E
    53d8:	458e8800 46f99600 c727fe00 4791c300     ...E...F..'....G
    53e8:	bf800000 41980000 c2240000 433e0000     .......A..$...>C
    53f8:	43630000 43740000 c431c000 45025000     ..cC..tC..1..P.E
    5408:	44e3c000 45679000 c5cde800 4604b000     ...D..gE.......F
    5418:	456c0000 46eb4000 c72f1500 47912480     ..lE.@.F../..$.G
    5428:	bf800000 41880000 c2340000 43370000     .......A..4...7C
    5438:	43640000 43450000 c442c000 4501b000     ..dC..EC..B....E
    5448:	44d96000 45517000 c5d8b800 460a2000     .`.D.pQE..... .F
    5458:	45377000 46dd0200 c7361900 47905a00     .p7E...F..6..Z.G
    5468:	bf800000 41800000 c2440000 43300000     .......A..D...0C
    5478:	43640000 43190000 c4540000 45009000     ..dC...C..T....E
    5488:	44cd8000 453bc000 c5e33800 460ecc00     ...D..;E.8.....F
    5498:	44fea000 46cee400 c73d0600 478f6380     ...D...F..=..c.G
    54a8:	c0000000 41600000 c2540000 43290000     ......`A..T...)C
    54b8:	43630000 42de0000 c465c000 44fe0000     ..cC...B..e....D
    54c8:	44bfe000 45267000 c5ed6800 4612b400     ...D.p&E.h.....F
    54d8:	44874000 46c0ec00 c743d900 478e4180     .@.D...F..C..A.G
    54e8:	c0000000 41500000 c2680000 43210000     ......PA..h...!C
    54f8:	43600000 42900000 c477c000 44fa2000     ..`C...B..w.. .D
    5508:	44b0c000 4511a000 c5f73000 4615e000     ...D...E.0.....F
    5518:	428c0000 46b32200 c74a8d00 478cf480     ...B.".F..J....G
    5528:	c0000000 41300000 c27c0000 431a0000     ......0A..|....C
    5538:	435d0000 42100000 c4850000 44f54000     ..]C...B.....@.D
    5548:	44a00000 44fac000 c6004400 46185800     ...D...D.D...X.F
    5558:	c4798000 46a58a00 c7511e00 478b7e00     ..y....F..Q..~.G
    5568:	c0000000 41200000 c2880000 43130000     ...... A.......C
    5578:	43570000 40000000 c48e2000 44efe000     ..WC...@. .....D
    5588:	448d6000 44d38000 c604ac00 461a1c00     .`.D...D.......F
    5598:	c504a000 46982c00 c7578a00 4789df00     .....,.F..W....G
    55a8:	c0400000 41100000 c2920000 430b0000     ..@....A.......C
    55b8:	43500000 c1e80000 c4974000 44e9c000     ..PC.....@.....D
    55c8:	44728000 44ad8000 c608cc00 461b3c00     ..rD...D.....<.F
    55d8:	c54e4000 468b0e00 c75dca00 47881780     .@N....F..]....G
    55e8:	c0400000 41000000 c29e0000 43040000     ..@....A.......C
    55f8:	43480000 c2640000 c4a06000 44e32000     ..HC..d..`... .D
    5608:	44468000 4488e000 c60c9800 461bb800     ..FD...D.......F
    5618:	c58da800 467c6c00 c763dd00 47862a00     .....l|F..c..*.G
    5628:	c0800000 40e00000 c2aa0000 42fa0000     .......@.......B
    5638:	433d0000 c2a60000 c4a98000 44dbe000     ..=C...........D
    5648:	44174000 444b8000 c6100c00 461b9c00     .@.D..KD.......F
    5658:	c5b5d000 46635000 c769be00 47841680     .....PcF..i....G
    5668:	c0800000 40e00000 c2b60000 42ea0000     .......@.......B
    5678:	43310000 c2d40000 c4b28000 44d44000     ..1C.........@.D
    5688:	43c90000 44084000 c6132000 461af000     ...C.@.D. .....F
    5698:	c5df9000 464ad000 c76f6900 4781df00     ......JF.io....G
    56a8:	c0a00000 40c00000 c2c20000 42de0000     .......@.......B
    56b8:	43230000 c2fe0000 c4bb4000 44cc4000     ..#C.....@...@.D
    56c8:	43390000 43900000 c615c400 4619b800     ..9C...C.......F
    56d8:	c6057000 4632fc00 c774dc00 477f0a00     .p....2F..t....G

000056e8 <halfrate.6375>:
    56e8:	0c080400 1c181410 38302820 00504840     ........ (08@HP.
    56f8:	100c0804 201c1814 40383028 10005048     ....... (08@HP..
    5708:	28201c18 48403830 70605850 14100080     .. (08@HPX`p....
    5718:	28201c18 50403830 a0807060 1c181000     .. (08@P`p......
    5728:	38302820 70605040 00c0a080 40302010      (08@P`p..... 0@
    5738:	80706050 c0b0a090 0000e0d0 74737953     P`p.........Syst
    5748:	6c436d65 64253a6b 00000a0d 70696843     emClk:%d....Chip
    5758:	253a4449 0d783830 0000000a 766e6f43     ID:%08x.....Conv
    5768:	6f737265 61642072 61702063 67206172     ersor dac para g
    5778:	72617265 6e697320 000d6c61 51353257     erar sinal..W25Q
    5788:	4f203038 000d214b 51353257 4f203631     80 OK!..W25Q16 O
    5798:	000d214b 51353257 4f203233 000d214b     K!..W25Q32 OK!..
    57a8:	51353257 4f203436 000d214b 51353257     W25Q64 OK!..W25Q
    57b8:	20383231 0d214b4f 00000000 6c696146     128 OK!.....Fail
    57c8:	00000d21 72617453 65522074 57206461     !...Start Read W
    57d8:	78513532 2e2e2e78 00000d2e 63696e49     25Qxx.......Inic
    57e8:	646e6169 6564206f 69646f63 61636966     iando decodifica
    57f8:	2e6f6163 000d2e2e 73616c46 3a702068     cao.....Flash p:
    5808:	73206425 2064253a 253a6e20 000a0d64     %d s:%d  n:%d...
    5818:	6d617246 69732065 253d657a 53202c64     Frame size=%d, S
    5828:	65746152 2064253d 202c7a48 64253d43     Rate=%d Hz, C=%d
    5838:	7250202c 7365636f 6f646173 2064253d     , Processado=%d 
    5848:	65747962 62202c73 61727469 25206574     bytes, bitrate %
    5858:	626b2064 0a0d7370 00000000 63696e49     d kbps......Inic
    5868:	72206169 6f727065 00000d20 46fffd00     ia repro ......F
    5878:	c6ffff00 43550000 41e80000 43e58000     ......UC...A...C
    5888:	44fea000 45a10800 45cd7000 47127100     ...D...E.p.E.q.G
    5898:	47928f00 44c3e000 42d00000 4617fc00     ...G...D...B...F
    58a8:	477a1300 c61bdc00 c2340000 43120000     ..zG......4....C
    58b8:	c0a00000 bf800000 3f800000 3fb504f3     ...........?...?
    58c8:	45000000 3e638e39 3faaaaab 3f3504f3     ...E9.c>...?..5?
    58d8:	3e4bafaf 3ec3ef15 3f0281f7 3f0a8bd4     ..K>...>...?...?
    58e8:	3f19f1bd 3f6664d7 3fa73d75 402406cf     ...?.df?u=.?..$@

000058f8 <tab32.6491>:
    58f8:	d1c1a282 8c4c1c2c 09090909 09090909     ....,.L.........
    5908:	eedefebe 9d9d5e7e cdad3d6d              ....~^..m=..

00005914 <tab33.6492>:
    5914:	ccdcecfc 8c9cacbc 4c5c6c7c 0c1c2c3c     ........|l\L<,..

00005924 <tabindex.6493>:
    5924:	00200000 00620040 00840000 00da00b4     .. .@.b.........
    5934:	016c0124 021a01aa 02ea0288 04660000     $.l...........f.
    5944:	05b405b4 05b405b4 05b405b4 05b405b4     ................
    5954:	07320732 07320732 07320732 07320732     2.2.2.2.2.2.2.2.

00005964 <tabs.6490>:
	...
    59a4:	03110311 03110311 03100310 03100310     ................
    59b4:	02010201 02010201 02010201 02010201     ................
    59c4:	01000100 01000100 01000100 01000100     ................
    59d4:	01000100 01000100 01000100 01000100     ................
    59e4:	0521ff01 05020512 03110311 03110311     ..!.............
    59f4:	03100310 03100310 03010301 03010301     ................
    5a04:	01000100 01000100 01000100 01000100     ................
    5a14:	01000100 01000100 01000100 01000100     ................
    5a24:	01200122 0521ff01 05020512 03010301     ". ...!.........
    5a34:	03010301 02110211 02110211 02110211     ................
    5a44:	02110211 02100210 02100210 02100210     ................
    5a54:	02100210 02000200 02000200 02000200     ................
    5a64:	02000200 01200122 fec2ff03 fe91fea1     ....". .........
    5a74:	03110311 03110311 03100310 03100310     ................
    5a84:	03010301 03010301 01000100 01000100     ................
    5a94:	01000100 01000100 01000100 01000100     ................
    5aa4:	01000100 01000100 03320333 02230223     ........3.2.#.#.
    5ab4:	01130113 01130113 02300231 02220203     ........1.0...".
    5ac4:	01120121 01020120 fee1ff02 05130531     !... .......1...
    5ad4:	05200522 04210421 04120412 04020402     ". .!.!.........
    5ae4:	03100310 03100310 02110211 02110211     ................
    5af4:	02110211 02110211 03010301 03010301     ................
    5b04:	03000300 03000300 02300233 01320132     ........3.0.2.2.
    5b14:	01030123 fe63ff04 fde2fe23 fdc10512     #.....c.#.......
    5b24:	04110411 03100310 03100310 03010301     ................
    5b34:	03010301 01000100 01000100 01000100     ................
    5b44:	01000100 01000100 01000100 01000100     ................
    5b54:	01000100 fe71fe81 04440453 04250452     ......q.S.D.R.%.
    5b64:	03510351 03150315 04430450 03050305     Q.Q.....P.C.....
    5b74:	04330434 01540155 01350145 03240342     4.3.U.T.E.5.B.$.
    5b84:	02410241 02140214 02040204 03320340     A.A.........@.2.
    5b94:	03300323 02310231 02130213 02220203     #.0.1.1.......".
    5ba4:	01210121 01020120 fe53ff04 fdd1fe13     !.!. .....S.....
    5bb4:	04210421 04120412 02110211 02110211     !.!.............
    5bc4:	02110211 02110211 03100310 03100310     ................
    5bd4:	03010301 03010301 02000200 02000200     ................
    5be4:	02000200 02000200 0435fe82 0452fe61     ..........5.a.R.
    5bf4:	04500425 03510351 03150315 04340443     %.P.Q.Q.....C.4.
    5c04:	04330405 03420342 02450255 01540154     ..3.B.B.U.E.T.T.
    5c14:	01440153 03410324 02140214 03040340     S.D.$.A.....@...
    5c24:	03230332 03130331 03030330 01220122     2.#.1...0...".".
    5c34:	01220122 01020120 fea3ff03 fe41fe62     ".". .......b.A.
    5c44:	0531fe31 fe210513 05200522 04210421     1.1...!.". .!.!.
    5c54:	04120412 04020402 03110311 03110311     ................
    5c64:	03100310 03100310 03010301 03010301     ................
    5c74:	03000300 03000300 0353fec1 feb10335     ..........S.5...
    5c84:	03520344 03510325 01540155 01500145     D.R.%.Q.U.T.E.P.
    5c94:	02150215 02430243 02340234 03400305     ....C.C.4.4...@.
    5ca4:	02240242 02040233 01140141 01230132     B.$.3...A...2.#.
    5cb4:	01030130 fdc4ff05 fcc2fd23 fc91fca1     0.......#.......
    5cc4:	04110411 03100310 03100310 03010301     ................
    5cd4:	03010301 01000100 01000100 01000100     ................
    5ce4:	01000100 01000100 01000100 01000100     ................
    5cf4:	01000100 fdf1fe01 0574fde1 05650547     ..........t.G.e.
    5d04:	05730556 05640537 0536fdd1 04720472     V.s.7.d...6.r.r.
    5d14:	04270427 05700546 04070407 04260426     '.'.F.p.....&.&.
    5d24:	05530554 04600460 05440535 03710371     T.S.`.`.5.D.q.q.
    5d34:	03710371 01760177 01750167 01660157     q.q.w.v.g.u.W.f.
    5d44:	01450155 03170317 04620463 0451fd41     U.E.....c.b.A.Q.
    5d54:	fd310415 03610361 03160316 03060306     ..1.a.a.........
    5d64:	04050450 01250152 01340143 fcd1fce1     P...R.%.C.4.....
    5d74:	03140341 03320304 03300323 01240142     A.....2.#.0.B.$.
    5d84:	01400133 02130231 02220203 01120121     3.@.1.....".!...
    5d94:	01020120 fdf3ff05 fd53fda3 fcc1fd03      .........S.....
    5da4:	0512fcb2 04210421 05020520 03110311     ....!.!. .......
    5db4:	03110311 03100310 03100310 03010301     ................
    5dc4:	03010301 02000200 02000200 02000200     ................
    5dd4:	02000200 05760577 05570567 05740566     ....w.v.g.W.f.t.
    5de4:	fe010547 05560565 04730473 04370437     G...e.V.s.s.7.7.
    5df4:	04640464 05450554 05350553 03720372     d.d.T.E.S.5.r.r.
    5e04:	03720372 03270327 03270327 04460446     r.r.'.'.'.'.F.F.
    5e14:	04700470 01550175 02170217 03070371     p.p.u.U.....q...
    5e24:	03360363 fdb10306 01520144 0351fd61     c.6.....D.R.a.Q.
    5e34:	02260226 03600362 02610261 01500125     &.&.b.`.a.a.%.P.
    5e44:	02160216 03430315 fd110305 03240342     ......C.....B.$.
    5e54:	01330134 03140341 03040340 02320232     4.3.A...@...2.2.
    5e64:	02230223 01130131 02030230 01220122     #.#.1...0...".".
    5e74:	fe73ff04 fdd3fe23 fd73fd92 fd21fd31     ..s.#.....s.1.!.
    5e84:	0531fd12 05220513 04210421 04120412     ..1...".!.!.....
    5e94:	05020520 04000400 03110311 03110311      ...............
    5ea4:	03100310 03100310 03010301 03010301     ................
    5eb4:	0467fe81 04570475 04740466 04560447     ..g.u.W.f.t.G.V.
    5ec4:	03650365 03730373 04550437 03720372     e.e.s.s.7.U.r.r.
    5ed4:	01760177 03640327 03710346 fe310317     w.v.'.d.F.q...1.
    5ee4:	03360363 01070170 03450354 fde10344     c.6.p...T.E.D...
    5ef4:	02620262 02260226 01500160 02160216     b.b.&.&.`.P.....
    5f04:	03060361 03350353 03250352 02150251     a...S.5.R.%.Q...
    5f14:	02340243 03400305 02420242 02240224     C.4...@.B.B.$.$.
    5f24:	02410241 01140133 01230132 02300204     A.A.3...2.#...0.
    5f34:	01030103 f7c5ff06 f534f635 f462f4a3     ........5.4...b.
    5f44:	f431f441 04110411 04100410 03010301     A.1.............
    5f54:	03010301 01000100 01000100 01000100     ................
    5f64:	01000100 01000100 01000100 01000100     ................
    5f74:	01000100 fbe4fd01 fb03fb43 fa83fab2     ........C.......
    5f84:	fa01fa43 f9d2f9f2 f991f9b2 f962f982     C.............b.
    5f94:	f921f942 f8f1f912 f8c2f8e2 061df8a2     B.!.............
    5fa4:	f871f881 f851f861 06c206c3 06b5062c     ..q.a.Q.....,...
    5fb4:	06c1f841 f831061c f821060c 06b3f811     A.....1...!.....
    5fc4:	f801063b f7f106b2 f7e1064a f7d10649     ;.......J...I...
    5fd4:	052b052b 05b105b1 051b051b 060b06b0     +.+.............
    5fe4:	06a40669 063a06a3 06590695 05a205a2     i.....:...Y.....
    5ff4:	052a052a fc33fcf4 04fffc72 04fd04fe     *.*...3.r.......
    6004:	04fc04ee 04fb04ed 04ec04bf fc4104cd     ..............A.
    6014:	03ce03ce 03dd03dd 02dffc51 01de01de     ........Q.......
    6024:	01cf01ef 019e01fa 03ebfbf1 03f903be     ................
    6034:	03ae039f 03bd03db 01dc01af 048f04f8     ................
    6044:	fb6104cc fb5104e8 037f037f 03ad03ad     ..a...Q.........
    6054:	04cb04da 046f04bc 03f603f6 01e901ea     ......o.........
    6064:	01e701f7 03f5038e 039d03d9 037e035f     ............_.~.
    6074:	03bb03ca 034f03f4 033ffac1 02f302f3     ......O...?.....
    6084:	038d03d8 016e01ac 022f02f2 02f0fa91     ......n.../.....
    6094:	01c901e6 03e5039c 02ba02ba 037d03d7     ..............}.
    60a4:	02e402e4 036d038c 02e302e3 029b029b     ......m.........
    60b4:	03aa03b9 011f01f1 010f010f 025e02ab     ..............^.
    60c4:	02c8024e 023e02d6 012e012e 02e002e2     N.....>.........
    60d4:	011e01e1 02d5020e 02c7025d 02d4027c     ........]...|...
    60e4:	028b02b8 02a9024d 02c6029a 01d3016c     ....M.......l...
    60f4:	02b7023d 01d201d2 01d1012d 017b017b     =.......-...{.{.
    6104:	025c02c5 02a70299 013c013c 0279027a     ..\.....<.<.z.y.
    6114:	01b401b4 010d01d0 018a01a8 014c01c4     ..............L.
    6124:	016b01b6 0198015b 01c00189 01a6014b     ..k.[.......K...
    6134:	0197016a 01a50188 0196015a 01780187     j.......Z.....x.
    6144:	01670177 051a05a1 050af6c1 0539f6b1     w.g...........9.
    6154:	f691f6a1 05290592 0583f681 f6710538     ......).....8.q.
    6164:	f651f661 04910491 04190419 05090590     a.Q.............
    6174:	05480584 f6410527 04820482 04280428     ..H.'.A.....(.(.
    6184:	04810481 018601a0 01940168 01850193     ........h.......
    6194:	01760158 01570175 01740166 01650147     X.v.u.W.f.t.G.e.
    61a4:	01370156 01460164 05720573 04710471     V.7.d.F.s.r.q.q.
    61b4:	04170417 05700555 05630507 05540536     ....U.p...c.6.T.
    61c4:	05620545 05530526 03180318 03180318     E.b.&.S.........
    61d4:	04800480 04080408 04610461 04160416     ........a.a.....
    61e4:	04600460 04060406 0452f4b1 04500425     `.`.......R.%.P.
    61f4:	03510351 03150315 04340443 04420405     Q.Q.....C.4...B.
    6204:	04330424 03410341 01440135 02140214     $.3.A.A.5.D.....
    6214:	03040340 03230332 02310231 02300213     @...2.#.1.1...0.
    6224:	02220203 01120121 01020120 fb65ff06     ..".!... .....e.
    6234:	f8d4f9d5 f7b4f834 f6e3f733 f653f693     ....4...3.....S.
    6244:	f5f2f612 f5c2f5d1 0522f5a1 05120521     ..........".!...
    6254:	05020520 03110311 03110311 04100410      ...............
    6264:	04010401 03000300 03000300 fce2fd02     ................
    6274:	fca2fcc2 fc71fc81 fc51fc61 fc31fc41     ......q.a.Q.A.1.
    6284:	fc11fc21 fbf1fc01 fbd2fbe1 066f06bc     !.............o.
    6294:	fba1fbb1 06e7065f 06ca067e 06bb06ac     ...._...~.......
    62a4:	06f4fb91 06f3064f 068d063f 06f2066e     ....O...?...n...
    62b4:	fb81062f 061f06f1 069c06c9 06ba06e5     /...............
    62c4:	065e06ab 067d06d7 064e06e4 068c06c8     ..^...}...N.....
    62d4:	06d606e3 063e066d 069b06b9 06aa06e2     ....m.>.........
    62e4:	06e1062e fb71061e 065d06d5 02fe02ff     ......q...].....
    62f4:	02fd02ef 01ee01ee 02fc02df 02ed02cf     ................
    6304:	02fb02de 01bf01bf 02ce02ec 01fa01dd     ................
    6314:	01eb01af 01dc01be 01f901cd 01ae019f     ................
    6324:	01bd01db 018f01f8 01e901cc 01f7019e     ................
    6334:	01da017f 01cb01ad 01f601f6 02f002ea     ................
    6344:	018e01e8 01d901f5 01d8019d 010f01e6     ................
    6354:	010e01e0 fa51fa61 fa41054d fa21fa31     ....a.Q.M.A.1.!.
    6364:	052d053d 05d1fa11 057b05b7 fa01051d     =.-.......{.....
    6374:	05a8055c 05c4058a 05b6054c f9f1056b     \.......L...k...
    6384:	053c05c3 057a05a7 f9e1056a 042c042c     ..<...z.j...,.,.
    6394:	05b505c2 017c01c7 01b801d4 01a9018b     ......|.........
    63a4:	01c6019a 01d3016c 01d001d2 010d01c5     ....l...........
    63b4:	01c00199 01b0010c 05c1055b 05890598     ........[.......
    63c4:	05b4051c 05a6054b 059705b3 043b043b     ....K.......;.;.
    63d4:	05880579 05a505b2 042b042b 05b1055a     y.......+.+.Z...
    63e4:	041b041b 0596050b 05a40569 0587054a     ........i...J...
    63f4:	05a30578 043a043a 04590495 042a04a2     x...:.:...Y...*.
    6404:	041a04a1 0486f851 04940468 04930449     ....Q...h...I...
    6414:	f8410439 04580485 010a01a0 01900177     9.A...X.....w...
    6424:	04760492 04290467 03190319 04090491     ..v.g.).........
    6434:	04480484 04570475 04380483 04740466     ..H.u.W...8.f.t.
    6444:	03820382 03280328 03810381 03180318     ....(.(.........
    6454:	04800447 04650408 04730456 04640437     G.....e.V.s.7.d.
    6464:	03270372 03710346 03170355 0363f6f1     r.'.F.q.U.....c.
    6474:	01070170 03540336 03620345 03610326     p...6.T.E.b.&.a.
    6484:	0353f6a1 01060160 02160216 03440335     ..S.`.......5.D.
    6494:	02520252 02250225 02510251 02150215     R.R.%.%.Q.Q.....
    64a4:	03050350 02430243 02420234 02330224     P...C.C.4.B.$.3.
    64b4:	01140114 02400241 01230132 02300204     ....A.@.2.#...0.
    64c4:	01310131 01030113 fc84ff05 f5c4f7f6     1.1.............
    64d4:	f473f4f4 f421f431 04110411 04100410     ..s.1.!.........
    64e4:	03010301 03010301 01000100 01000100     ................
    64f4:	01000100 01000100 01000100 01000100     ................
    6504:	01000100 01000100 fdf1fe01 fdd1fde1     ................
    6514:	fdc105fa 05f8fdb1 057f05f7 056f05f6     ..............o.
    6524:	03ff03ff 03ff03ff 055f05f5 04f404f4     .........._.....
    6534:	044f044f 043f043f 040f040f fda405f3     O.O.?.?.........
    6544:	032f032f 032f032f 01ef01fe 01df01fd     /./././.........
    6554:	01cf01fc 01bf01fb 01f901af 018f019f     ................
    6564:	fcf2fd22 fcd104ee 04dc04eb 04eafcc1     "...............
    6574:	fcb104cc 04acfca1 04e5fc91 03db03db     ................
    6584:	fd0102ec 01ed01ed 01dd01ce 019e019e     ................
    6594:	029d02ae 01be01de 01bd01cd 01ad01da     ................
    65a4:	01ca01e7 01d7019c 04f004f2 03f103f1     ................
    65b4:	031f031f fb04fc05 f9d3fa54 f923f973     ........T...s.#.
    65c4:	f8a2f8e3 f833f873 04e904e9 05bc05cb     ....s.3.........
    65d4:	058e05e8 057e05d9 05d805bb 05e6058d     ......~.........
    65e4:	046e046e 04c904c9 05ab05ba 057d055e     n.n.........^.}.
    65f4:	04e404e4 05c8054e 048c048c 04e304e3     ....N...........
    6604:	04d604d6 05b9056d 041efa81 fa71044d     ....m.......M.q.
    6614:	fa6104b7 033e033e 040e04e0 045d04d5     ..a.>.>.......].
    6624:	047c04c7 04b804d4 01aa019b 019a018b     ..|.............
    6634:	010d017b 04c604a9 04d3046c 045c04c5     {.......l.....\.
    6644:	03d003d0 048a04a8 04c40499 04a7046b     ............k...
    6654:	03c303c3 03c1f991 f981030c 022e022e     ................
    6664:	03e103e2 019801b5 01970189 03d2033d     ............=...
    6674:	031d032d f93103b3 02d102d1 01880179     -.....1.....y...
    6684:	03b6034c 037a033c 02c202c2 035b032c     L...<.z.....,.[.
    6694:	03c0031c 034b03b4 036a03a6 023b023b     ......K...j.;.;.
    66a4:	02b2f881 02b1022b 015a01a5 021b021b     ....+.....Z.....
    66b4:	030b03b0 03690396 034a03a4 03780387     ......i...J...x.
    66c4:	023a023a 039503a3 02a202a2 061af5f1     :.:.............
    66d4:	0649f5e1 0676f5d1 052a052a 05a105a1     ..I...v.*.*.....
    66e4:	060a06a0 06390693 06580685 05920592     ......9...X.....
    66f4:	05290529 06900667 05910591 05190519     ).).g...........
    6704:	06840609 06570648 06380683 06820666     ....H.W...8.f...
    6714:	05280528 06470674 05810581 05180518     (.(.t.G.........
    6724:	05080508 06650680 05730573 05370537     ......e.s.s.7.7.
    6734:	06640656 05720572 05270527 06550646     V.d.r.r.'.'.F.U.
    6744:	05700570 04710471 04710471 01860159     p.p.q.q.q.q.Y...
    6754:	01770168 01750194 f5410417 f521f531     h.w...u...A.1.!.
    6764:	04610426 f5110416 f5010435 04250452     &.a.....5...R.%.
    6774:	03150315 04500451 01630107 01540136     ....Q.P...c.6.T.
    6784:	01620145 01060160 01440153 04340443     E.b.`...S.D.C.4.
    6794:	04420405 04330424 03410341 03140314     ..B.$.3.A.A.....
    67a4:	04040440 03320332 03230323 02310231     @...2.2.#.#.1.1.
    67b4:	02130213 03030330 02220222 01120121     ....0...".".!...
    67c4:	01020120 fec3ff03 fe42fe83 fe03fe22      .........B."...
    67d4:	04ff04ff fb65fcd5 f924fa55 f814f894     ......e.U.$.....
    67e4:	f733f773 f692f6e3 f631f673 0521f622     s.3.....s.1.".!.
    67f4:	f6010512 04110411 04100410 04010401     ................
    6804:	04000400 03ef03fe 03df03fd 03cf03fc     ................
    6814:	03bf03fb 02af02af 03f903fa 029f029f     ................
    6824:	028f028f 03f703f8 027f027f 02f602f6     ................
    6834:	026f026f 025f02f5 024f02f4 023f02f3     o.o..._...O...?.
    6844:	022f02f2 021f021f 030f03f1 fd93fdc1     ../.............
    6854:	fd13fd53 fdb201f0 02ed02ee 02ec02de     S...............
    6864:	03dd03ce 03be03eb 03cd03dc 03ae03ea     ................
    6874:	03bd03db 03e903cc 03da039e 03cb03ad     ................
    6884:	03e803bc 03d9038e 03e7039d 03ca037e     ............~...
    6894:	fbc1fbd1 056efbb2 059cfb91 05ab05e5     ......n.........
    68a4:	fb81055e 054e057d 058c05c8 05e3fb71     ^...}.N.....q...
    68b4:	056d05d6 05b9053e 05aa059b 05e1052e     ..m.>...........
    68c4:	05d5051e 05c7055d 05d4057c 058b05b8     ....]...|.......
    68d4:	01bb01ac 018d01d8 020e02e0 01d001d0     ................
    68e4:	01c901e6 01d701ba 01e201e4 05a9054d     ............M...
    68f4:	05c6059a 05d3056c 05d2053d 05d1052d     ....l...=...-...
    6904:	057b05b7 05c5051d 05a8055c 0599058a     ..{.....\.......
    6914:	054c05c4 056b05b6 05c3fa61 05a7053c     ..L...k.a...<...
    6924:	05c2057a 05b5052c 05c1055b 01c0010d     z...,...[.......
    6934:	05890598 05b4051c 05b3f951 05a1f941     ........Q...A...
    6944:	044b044b 056a05a6 05790597 0509f931     K.K...j...y.1...
    6954:	043b043b 04880488 05a505b2 042b042b     ;.;.........+.+.
    6964:	05b1055a 0596051b 04690469 044a044a     Z.......i.i.J.J.
    6974:	01b0010c 01a0010b 0190010a 0478f8a1     ..............x.
    6984:	043a04a3 04590495 042a04a2 0486041a     ..:...Y...*.....
    6994:	04770468 04490494 04390493 018701a4     h.w...I...9.....
    69a4:	04580485 04760492 04290467 04190491     ..X...v.g.).....
    69b4:	04480484 04570475 04380483 04820466     ..H.u.W...8.f...
    69c4:	04810428 04470474 f7910418 04560465     (...t.G.....e.V.
    69d4:	f7810471 03370337 04720473 03270327     q...7.7.s.r.'.'.
    69e4:	01080180 01070170 03460364 03170355     ....p...d.F.U...
    69f4:	03360363 03450354 03260362 03160361     c.6.T.E.b.&.a...
    6a04:	0353f6f1 03440335 01060160 03250352     ..S.5.D.`...R.%.
    6a14:	f6a10351 02150215 03340343 01050150     Q.......C.4.P...
    6a24:	02240242 02410233 02140214 03040340     B.$.3.A.....@...
    6a34:	02320232 02230223 01130131 02030230     2.2.#.#.1...0...
    6a44:	01220122 01020120                       ".". ...

00006a4c <__sf_fake_stderr>:
	...

00006a6c <__sf_fake_stdin>:
	...

00006a8c <__sf_fake_stdout>:
	...
    6aac:	2b302d23 00000020 004c6c68 45676665     #-0+ ...hlL.efgE
    6abc:	00004746 33323130 37363534 42413938     FG..0123456789AB
    6acc:	46454443 00000000 33323130 37363534     CDEF....01234567
    6adc:	62613938 66656463 00000000              89abcdef....
