
MP3_dac_CH32V305FBP6_r6.elf:     file format elf32-littleriscv
MP3_dac_CH32V305FBP6_r6.elf
architecture: riscv:rv32, flags 0x00000112:
EXEC_P, HAS_SYMS, D_PAGED
start address 0x00000000

Program Header:
    LOAD off    0x00001000 vaddr 0x00000000 paddr 0x00000000 align 2**12
         filesz 0x00007754 memsz 0x00007754 flags r-x
    LOAD off    0x00009000 vaddr 0x20000000 paddr 0x00007754 align 2**12
         filesz 0x000000a0 memsz 0x00003cf4 flags rw-
    LOAD off    0x0000a004 vaddr 0x20007004 paddr 0x20007004 align 2**12
         filesz 0x00000000 memsz 0x00000ffc flags rw-

Sections:
Idx Name          Size      VMA       LMA       File off  Algn
  0 .init         00000004  00000000  00000000  00001000  2**1
                  CONTENTS, ALLOC, LOAD, READONLY, CODE
  1 .vector       000001bc  00000004  00000004  00001004  2**1
                  CONTENTS, ALLOC, LOAD, READONLY, CODE
  2 .text         00007594  000001c0  000001c0  000011c0  2**2
                  CONTENTS, ALLOC, LOAD, READONLY, CODE
  3 .fini         00000000  00007754  00007754  000090a0  2**0
                  CONTENTS, ALLOC, LOAD, CODE
  4 .dalign       00000000  20000000  20000000  000090a0  2**0
                  CONTENTS
  5 .dlalign      00000000  00007754  00007754  000090a0  2**0
                  CONTENTS
  6 .data         000000a0  20000000  00007754  00009000  2**2
                  CONTENTS, ALLOC, LOAD, DATA
  7 .bss          00003c54  200000a0  000077f4  000090a0  2**2
                  ALLOC
  8 .stack        00000ffc  20007004  20007004  0000a004  2**0
                  ALLOC
  9 .debug_info   0001552e  00000000  00000000  000090a0  2**0
                  CONTENTS, READONLY, DEBUGGING
 10 .debug_abbrev 0000327c  00000000  00000000  0001e5ce  2**0
                  CONTENTS, READONLY, DEBUGGING
 11 .debug_loc    000091ec  00000000  00000000  0002184a  2**0
                  CONTENTS, READONLY, DEBUGGING
 12 .debug_aranges 00000ad8  00000000  00000000  0002aa38  2**3
                  CONTENTS, READONLY, DEBUGGING
 13 .debug_ranges 000013b0  00000000  00000000  0002b510  2**3
                  CONTENTS, READONLY, DEBUGGING
 14 .debug_line   0001386f  00000000  00000000  0002c8c0  2**0
                  CONTENTS, READONLY, DEBUGGING
 15 .debug_str    00003be6  00000000  00000000  0004012f  2**0
                  CONTENTS, READONLY, DEBUGGING
 16 .comment      00000033  00000000  00000000  00043d15  2**0
                  CONTENTS, READONLY
 17 .debug_frame  00002218  00000000  00000000  00043d48  2**2
                  CONTENTS, READONLY, DEBUGGING
 18 .stab         00000084  00000000  00000000  00045f60  2**2
                  CONTENTS, READONLY, DEBUGGING
 19 .stabstr      00000117  00000000  00000000  00045fe4  2**0
                  CONTENTS, READONLY, DEBUGGING
SYMBOL TABLE:
00000000 l    d  .init	00000000 .init
00000004 l    d  .vector	00000000 .vector
000001c0 l    d  .text	00000000 .text
00007754 l    d  .fini	00000000 .fini
20000000 l    d  .dalign	00000000 .dalign
00007754 l    d  .dlalign	00000000 .dlalign
20000000 l    d  .data	00000000 .data
200000a0 l    d  .bss	00000000 .bss
20007004 l    d  .stack	00000000 .stack
00000000 l    d  .debug_info	00000000 .debug_info
00000000 l    d  .debug_abbrev	00000000 .debug_abbrev
00000000 l    d  .debug_loc	00000000 .debug_loc
00000000 l    d  .debug_aranges	00000000 .debug_aranges
00000000 l    d  .debug_ranges	00000000 .debug_ranges
00000000 l    d  .debug_line	00000000 .debug_line
00000000 l    d  .debug_str	00000000 .debug_str
00000000 l    d  .comment	00000000 .comment
00000000 l    d  .debug_frame	00000000 .debug_frame
00000000 l    d  .stab	00000000 .stab
00000000 l    d  .stabstr	00000000 .stabstr
00000000 l    df *ABS*	00000000 ./Startup/startup_ch32v30x_D8C.o
00000004 l       .vector	00000000 _vector_base
00000000 l    df *ABS*	00000000 mmcbbp.c
000003e2 l     F .text	00000042 SPI1_ReadWriteByte
00000424 l     F .text	00000012 skip_mmc
00000436 l     F .text	0000000c rcvr_mmc
00000442 l     F .text	0000009c send_cmd
200000a0 l     O .bss	00000001 CardType
00000000 l    df *ABS*	00000000 pff.c
00000728 l     F .text	00000016 ld_dword
0000073e l     F .text	0000001e clust2sect
0000075c l     F .text	00000026 get_clust
00000782 l     F .text	00000044 dir_rewind
000007c6 l     F .text	0000006a get_fat
00000830 l     F .text	00000062 dir_next
00000892 l     F .text	00000080 check_fs
00000912 l     F .text	00000142 follow_path
000056dc l     O .text	00000080 cvt.1731
200000a4 l     O .bss	00000004 FatFs
00000000 l    df *ABS*	00000000 buffer_fifo.c
00000000 l    df *ABS*	00000000 ch32v30x_it.c
00000000 l    df *ABS*	00000000 main.c
00000f3c l     F .text	00000054 get_bits
00000f90 l     F .text	0000004e hdr_valid
00000fde l     F .text	00000048 hdr_compare
00001026 l     F .text	00000024 hdr_frame_samples
0000104a l     F .text	0000003e L3_ldexp_q2
00001088 l     F .text	00000028 L3_midside_stereo
000010b0 l     F .text	00000104 L3_dct3_9
000011b4 l     F .text	0000011a L3_imdct36
000012ce l     F .text	00000044 mp3d_scale_pcm
00001312 l     F .text	0000015a mp3d_synth_pair
0000146c l     F .text	0000001a hdr_padding
00001486 l     F .text	000000d8 L3_imdct12
0000155e l     F .text	00000090 hdr_frame_bytes
000065d0 l     O .text	000010e8 tabs.6514
0000577c l     O .text	00000040 g_aa.6667
000057bc l     O .text	00000010 g_expfrac.6455
000057cc l     O .text	0000000c g_hz.6403
000057d8 l     O .text	00000020 g_linbits.6518
000057f8 l     O .text	00000090 g_mdct_window.6762
00005888 l     O .text	00000018 g_mod.6478
000058a0 l     O .text	00000038 g_pan.6622
000058d8 l     O .text	00000244 g_pow43
00005b1c l     O .text	0000000a g_preamp.6493
00005b28 l     O .text	000000b8 g_scf_long.6420
00005be0 l     O .text	00000140 g_scf_mixed.6422
00005d20 l     O .text	00000054 g_scf_partitions.6467
00005d74 l     O .text	00000140 g_scf_short.6421
00005eb4 l     O .text	00000010 g_scfc_decode.6476
00005ec4 l     O .text	00000060 g_sec.6797
00005f24 l     O .text	00000018 g_twid3.6727
00005f3c l     O .text	00000048 g_twid9.6700
00005f84 l     O .text	000003c0 g_win.6851
00006344 l     O .text	0000005a halfrate.6399
00006564 l     O .text	0000001c tab32.6515
00006580 l     O .text	00000010 tab33.6516
00006590 l     O .text	00000040 tabindex.6517
200000b0 l     O .bss	00000001 i.7026
00000000 l    df *ABS*	00000000 system_ch32v30x.c
00000000 l    df *ABS*	00000000 ch32v30x_dac.c
00000000 l    df *ABS*	00000000 ch32v30x_dbgmcu.c
00000000 l    df *ABS*	00000000 ch32v30x_dma.c
00000000 l    df *ABS*	00000000 ch32v30x_gpio.c
00000000 l    df *ABS*	00000000 ch32v30x_misc.c
00000000 l    df *ABS*	00000000 ch32v30x_rcc.c
20000010 l     O .data	00000010 APBAHBPrescTable
2000008c l     O .data	00000004 ADCPrescTable
00000000 l    df *ABS*	00000000 ch32v30x_spi.c
00000000 l    df *ABS*	00000000 ch32v30x_tim.c
00000000 l    df *ABS*	00000000 ch32v30x_usart.c
00000000 l    df *ABS*	00000000 debug.c
200000c8 l     O .bss	00000002 p_ms
200000ca l     O .bss	00000001 p_us
20000090 l     O .data	00000004 curbrk.5275
00000000 l    df *ABS*	00000000 memcpy.c
00000000 l    df *ABS*	00000000 memmove.c
00000000 l    df *ABS*	00000000 printf.c
00000000 l    df *ABS*	00000000 puts.c
00000000 l    df *ABS*	00000000 strrchr.c
00000000 l    df *ABS*	00000000 wbuf.c
00000000 l    df *ABS*	00000000 wsetup.c
00000000 l    df *ABS*	00000000 fflush.c
00000000 l    df *ABS*	00000000 findfp.c
0000491a l     F .text	00000066 std
00000000 l    df *ABS*	00000000 fwalk.c
00000000 l    df *ABS*	00000000 makebuf.c
00000000 l    df *ABS*	00000000 nano-mallocr.c
00000000 l    df *ABS*	00000000 nano-mallocr.c
00000000 l    df *ABS*	00000000 nano-vfprintf.c
00004daa l     F .text	00000028 __sfputc_r
00000000 l    df *ABS*	00000000 nano-vfprintf_i.c
00000000 l    df *ABS*	00000000 sbrkr.c
00000000 l    df *ABS*	00000000 stdio.c
00000000 l    df *ABS*	00000000 strchr.c
00000000 l    df *ABS*	00000000 writer.c
00000000 l    df *ABS*	00000000 closer.c
00000000 l    df *ABS*	00000000 fstatr.c
00000000 l    df *ABS*	00000000 isattyr.c
00000000 l    df *ABS*	00000000 lseekr.c
00000000 l    df *ABS*	00000000 memchr.c
00000000 l    df *ABS*	00000000 mlock.c
00000000 l    df *ABS*	00000000 readr.c
00000000 l    df *ABS*	00000000 close.c
00000000 l    df *ABS*	00000000 fstat.c
00000000 l    df *ABS*	00000000 isatty.c
00000000 l    df *ABS*	00000000 lseek.c
00000000 l    df *ABS*	00000000 read.c
00000000 l    df *ABS*	00000000 impure.c
20000020 l     O .data	00000060 impure_data
00000000 l    df *ABS*	00000000 reent.c
200010cc g     O .bss	00000018 info
00004130 g     F .text	00000016 TIM_TimeBaseStructInit
00003b0e  w      .text	00000000 EXTI2_IRQHandler
00003b0e  w      .text	00000000 TIM8_TRG_COM_IRQHandler
00003b0e  w      .text	00000000 TIM8_CC_IRQHandler
000055d6 g     F .text	00000030 _isatty_r
000044bc g     F .text	000000d4 _puts_r
00005606 g     F .text	00000034 _lseek_r
00003c96 g     F .text	00000014 DMA_Cmd
00003b0e  w      .text	00000000 UART8_IRQHandler
20000098 g     O .data	00000001 dir_raiz
0000069c g     F .text	0000008c disk_readp
200000b8 g     O .bss	00000004 ks
0000447c g     F .text	00000040 printf
20000880 g       .data	00000000 __global_pointer$
20000080 g     O .data	00000004 flag_cb
000001c8 g     F .text	00000028 .hidden __riscv_save_8
00003d1a g     F .text	0000000a DMA_GetITStatus
00003b0e  w      .text	00000000 TIM1_CC_IRQHandler
000054f0 g     F .text	00000030 __sseek
000049d0 g     F .text	0000006c __sinit
00004030 g     F .text	00000004 SPI_I2S_SendData
000045cc g     F .text	000000bc __swbuf_r
00000f2c g     F .text	00000010 HardFault_Handler
0000498a g     F .text	00000046 __sfmoreglue
00005654 g     F .text	00000002 __malloc_unlock
00000214 g     F .text	0000000c .hidden __riscv_restore_3
00003b0e  w      .text	00000000 TIM6_IRQHandler
00003b0e  w      .text	00000000 SysTick_Handler
00003b0e  w      .text	00000000 PVD_IRQHandler
00003b0e  w      .text	00000000 SDIO_IRQHandler
00004436 g     F .text	00000046 memmove
00003b0e  w      .text	00000000 TIM9_BRK_IRQHandler
00000200 g     F .text	00000020 .hidden __riscv_restore_10
00004034 g     F .text	00000004 SPI_I2S_ReceiveData
00003b0e  w      .text	00000000 DMA2_Channel8_IRQHandler
00000f2a g     F .text	00000002 NMI_Handler
00003b0e  w      .text	00000000 CAN2_RX1_IRQHandler
00003b0e  w      .text	00000000 EXTI3_IRQHandler
000001c8 g     F .text	00000028 .hidden __riscv_save_11
00003c26 g     F .text	0000000a DBGMCU_GetCHIPID
00003b0e  w      .text	00000000 USBHS_IRQHandler
00004224 g     F .text	0000000a USART_GetFlagStatus
00003b0e  w      .text	00000000 DMA2_Channel9_IRQHandler
000055a4 g     F .text	00000032 _fstat_r
00000eaa g     F .text	00000042 put_sample_FIFO
00003b0e  w      .text	00000000 TIM10_CC_IRQHandler
20003cf0 g     O .bss	00000004 errno
200000a0 g       .bss	00000000 _sbss
00000ffc g       *ABS*	00000000 __stack_size
000042c0 g     F .text	00000060 USART_Printf_Init
00003c30 g     F .text	00000038 DMA_Init
00000e98 g     F .text	00000012 n_sample_out_FIFO
200010b4 g     O .bss	00000018 fno
00003b0e  w      .text	00000000 USBFS_IRQHandler
00000214 g     F .text	0000000c .hidden __riscv_restore_2
00000eec g     F .text	0000003e get_sample_FIFO
00004384 g     F .text	000000b2 memcpy
200000bc g     O .bss	00000004 nbuf
00004980 g     F .text	0000000a _cleanup_r
00003b0e  w      .text	00000000 EXTI0_IRQHandler
00003b0e  w      .text	00000000 I2C2_EV_IRQHandler
0000059a g     F .text	00000102 disk_initialize
00003b0e  w      .text	00000000 TIM10_TRG_COM_IRQHandler
00004146 g     F .text	00000018 TIM_Cmd
00004590 g     F .text	0000000a puts
20000088 g     O .data	00000004 SystemCoreClock
0000569a g     F .text	00000010 _fstat
00000004 g       .init	00000000 _einit
00003f9c g     F .text	0000001e RCC_APB2PeriphClockCmd
000001c0 g     F .text	00000030 .hidden __riscv_save_12
00003b0e  w      .text	00000000 CAN2_SCE_IRQHandler
00003b0e  w      .text	00000000 ADC1_2_IRQHandler
00003d2e g     F .text	000000c0 GPIO_Init
000015ee g     F .text	00001ba6 mp3dec_decode_frame
00003b0e  w      .text	00000000 Break_Point_Handler
00000200 g     F .text	00000020 .hidden __riscv_restore_11
200000c4 g     O .bss	00000004 NVIC_Priority_Group
00003b0e  w      .text	00000000 SPI1_IRQHandler
200000d4 g     O .bss	00000100 DAC_Value
00000d4c g     F .text	0000012e pf_readdir
00004206 g     F .text	00000016 USART_Cmd
0000544a g     F .text	00000032 _sbrk_r
00003b0e  w      .text	00000000 TAMPER_IRQHandler
000001f0 g     F .text	0000000c .hidden __riscv_save_1
00000214 g     F .text	0000000c .hidden __riscv_restore_0
00005656 g     F .text	00000034 _read_r
000001d6 g     F .text	0000001a .hidden __riscv_save_7
00003b0e  w      .text	00000000 CAN2_RX0_IRQHandler
00003d24 g     F .text	0000000a DMA_ClearITPendingBit
00003b0e  w      .text	00000000 TIM8_UP_IRQHandler
00003fba g     F .text	0000001e RCC_APB1PeriphClockCmd
00003b0e  w      .text	00000000 Ecall_M_Mode_Handler
20007004 g       .stack	00000000 _heap_end
000056aa g     F .text	00000010 _isatty
00004254 g     F .text	00000036 Delay_Us
2000009c g     O .data	00000004 _global_impure_ptr
0000020a g     F .text	00000016 .hidden __riscv_restore_5
00004038 g     F .text	0000000a SPI_I2S_GetFlagStatus
00003b0e  w      .text	00000000 DMA2_Channel2_IRQHandler
00003f7e g     F .text	0000001e RCC_AHBPeriphClockCmd
00003b0e  w      .text	00000000 DMA1_Channel4_IRQHandler
0000435a g     F .text	0000002a _sbrk
00003c68 g     F .text	0000002e DMA_StructInit
20002af0 g     O .bss	00001200 pcm
00003b0e  w      .text	00000000 TIM9_UP_IRQHandler
00003cbc g     F .text	00000032 DMA_GetFlagStatus
0000020a g     F .text	00000016 .hidden __riscv_restore_6
00003b0e  w      .text	00000000 USART3_IRQHandler
00003b0e  w      .text	00000000 RTC_IRQHandler
20003cf4 g       .bss	00000000 _ebss
000033f4 g     F .text	0000005a Timer4_Init
00003b0e  w      .text	00000000 DMA1_Channel7_IRQHandler
0000459a g     F .text	00000032 strrchr
00003b0e  w      .text	00000000 CAN1_RX1_IRQHandler
0000422e g     F .text	00000026 Delay_Init
00003b0e  w      .text	00000000 DVP_IRQHandler
00000c70 g     F .text	0000009a pf_lseek
00003b0e  w      .text	00000000 UART5_IRQHandler
00003b0e  w      .text	00000000 TIM4_IRQHandler
000001c8 g     F .text	00000028 .hidden __riscv_save_9
20000084 g     O .data	00000004 flag_hb
00003df8 g     F .text	0000000a GPIO_WriteBit
00003b0e  w      .text	00000000 DMA2_Channel1_IRQHandler
200000ac g     O .bss	00000004 frame_size
000076b8 g     O .text	00000020 __sf_fake_stderr
000001d6 g     F .text	0000001a .hidden __riscv_save_4
200010e4 g     O .bss	00001a0c mp3d
00003b0e  w      .text	00000000 I2C1_EV_IRQHandler
0000344e g     F .text	00000056 GPIO_Toggle_INIT
00003194 g     F .text	00000068 Dac_Init
00003e08 g     F .text	00000176 RCC_GetClocksFreq
00003b0e  w      .text	00000000 DMA1_Channel6_IRQHandler
00004dd2 g     F .text	00000042 __sfputs_r
00003b0e  w      .text	00000000 UART4_IRQHandler
00003296 g     F .text	0000015e DMA2_Channel4_IRQHandler
0000563a g     F .text	00000018 memchr
00004176 g     F .text	00000090 USART_Init
00004c2e g     F .text	000000a8 _free_r
00003b0e  w      .text	00000000 TIM3_IRQHandler
00003b0e  w      .text	00000000 RCC_IRQHandler
000001f0 g     F .text	0000000c .hidden __riscv_save_3
00003b0e  w      .text	00000000 TIM1_TRG_COM_IRQHandler
00003b0e  w      .text	00000000 DMA1_Channel1_IRQHandler
00000000 g       .init	00000000 _start
00003b0e  w      .text	00000000 DMA2_Channel7_IRQHandler
20000000 g     O .data	00000010 AHBPrescTable
000056ba g     F .text	00000010 _lseek
00003b0e  w      .text	00000000 EXTI15_10_IRQHandler
0000415e g     F .text	00000018 TIM_SelectOutputTrigger
00003b0e  w      .text	00000000 TIM7_IRQHandler
00005574 g     F .text	00000030 _close_r
00003b0e  w      .text	00000000 CAN2_TX_IRQHandler
20000000 g       .dalign	00000000 _data_vma
00003b0e  w      .text	00000000 TIM5_IRQHandler
00004688 g     F .text	000000fc __swsetup_r
00003b0e  w      .text	00000000 EXTI9_5_IRQHandler
00004a3c g     F .text	0000009e __sfp
000001c8 g     F .text	00000028 .hidden __riscv_save_10
0000547c g     F .text	0000002c __sread
00003b0e  w      .text	00000000 ETH_WKUP_IRQHandler
00005652 g     F .text	00000002 __malloc_lock
0000020a g     F .text	00000016 .hidden __riscv_restore_4
00000200 g     F .text	00000020 .hidden __riscv_restore_8
000048b4 g     F .text	00000066 _fflush_r
20000bd4 g     O .bss	00000020 audio_samples
000001d6 g     F .text	0000001a .hidden __riscv_save_6
00003b0e  w      .text	00000000 SPI2_IRQHandler
000076d8 g     O .text	00000020 __sf_fake_stdin
00000220 g     F .text	000000a8 memset
00000200 g     F .text	00000020 .hidden __riscv_restore_9
0000020a g     F .text	00000016 .hidden __riscv_restore_7
000034a4 g     F .text	0000048e main
00003b0e  w      .text	00000000 TIM10_BRK_IRQHandler
00003b0e  w      .text	00000000 TIM9_CC_IRQHandler
00005520 g     F .text	00000006 __sclose
00003b0e  w      .text	00000000 DMA2_Channel5_IRQHandler
00004cd6 g     F .text	000000d4 _malloc_r
00003b0e  w      .text	00000000 DMA1_Channel5_IRQHandler
00003b0e  w      .text	00000000 EXTI4_IRQHandler
0000428a g     F .text	00000036 Delay_Ms
00003b0e  w      .text	00000000 USB_LP_CAN1_RX0_IRQHandler
20001074 g     O .bss	00000014 dir
00004016 g     F .text	0000001a SPI_Cmd
000002c8 g     F .text	0000011a strcmp
00000bbe g     F .text	000000b2 pf_read
00003932 g     F .text	000000b2 SystemInit
00003b0e  w      .text	00000000 RNG_IRQHandler
0000447c g     F .text	00000040 iprintf
00003b0e  w      .text	00000000 USB_HP_CAN1_TX_IRQHandler
00000000 g       .init	00000000 _sinit
0000553e g     F .text	00000036 _write_r
00003b0e  w      .text	00000000 DMA1_Channel3_IRQHandler
00003b0e  w      .text	00000000 ETH_IRQHandler
0000509c g     F .text	0000010c _printf_common
20000094 g     O .data	00000004 _impure_ptr
00003b0e  w      .text	00000000 TIM1_UP_IRQHandler
00004784 g     F .text	00000130 __sflush_r
00000b70 g     F .text	0000004e pf_open
200000a8 g     O .bss	00000004 estado_mp3
00003b0e  w      .text	00000000 WWDG_IRQHandler
20000bf4 g     O .bss	00000480 buf
00003b0e  w      .text	00000000 USBHSWakeup_IRQHandler
00003b0e  w      .text	00000000 DMA2_Channel11_IRQHandler
00003b0e  w      .text	00000000 Ecall_U_Mode_Handler
200001d4 g     O .bss	00000a00 ar_audio_samples
00003caa g     F .text	00000012 DMA_ITConfig
00003b0e  w      .text	00000000 DMA2_Channel6_IRQHandler
00003b0e  w      .text	00000000 TIM2_IRQHandler
20008000 g       .stack	00000000 _eusrstack
000001f0 g     F .text	0000000c .hidden __riscv_save_2
00003b0e  w      .text	00000000 SW_Handler
200000c0 g     O .bss	00000004 pread
000031fc g     F .text	0000009a Dac_Dma_Init
00003b0e  w      .text	00000000 TIM1_BRK_IRQHandler
00004b44 g     F .text	00000058 __swhatbuf_r
0000421c g     F .text	00000008 USART_SendData
00003b0e  w      .text	00000000 DMA2_Channel10_IRQHandler
00003b0e  w      .text	00000000 EXTI1_IRQHandler
00003bfa g     F .text	0000002c DAC_DMACmd
000001d6 g     F .text	0000001a .hidden __riscv_save_5
00004320 g     F .text	0000003a _write
200000a0 g       .data	00000000 _edata
20003cf4 g       .bss	00000000 _end
00003bce g     F .text	0000002c DAC_Cmd
00004042 g     F .text	000000ee TIM_TimeBaseInit
00003b0e  w      .text	00000000 RTCAlarm_IRQHandler
00007754 g       .dlalign	00000000 _data_lma
00003b0e  w      .text	00000000 TIM10_UP_IRQHandler
00003b0e  w      .text	00000000 TIM9_TRG_COM_IRQHandler
00003b0e  w      .text	00000000 UART7_IRQHandler
00003b9e g     F .text	00000030 DAC_Init
00003b0e  w      .text	00000000 USART2_IRQHandler
00003b0e  w      .text	00000000 UART6_IRQHandler
000054a8 g     F .text	00000048 __swrite
00000d0a g     F .text	00000042 pf_opendir
00004e14 g     F .text	00000288 _vfiprintf_r
00004ada g     F .text	0000006a _fwalk_reent
000039e4 g     F .text	0000012a SystemCoreClockUpdate
00003b0e  w      .text	00000000 I2C2_ER_IRQHandler
00003b0e  w      .text	00000000 DMA1_Channel2_IRQHandler
000076f8 g     O .text	00000020 __sf_fake_stdout
00000e7a g     F .text	0000001e Init_FIFO
000001fc g     F .text	00000024 .hidden __riscv_restore_12
00003b0e  w      .text	00000000 TIM8_BRK_IRQHandler
00003cee g     F .text	0000002c DMA_ClearFlag
000056ca g     F .text	00000010 _read
00003b10  w      .text	00000000 handle_reset
00003b0e  w      .text	00000000 CAN1_SCE_IRQHandler
00003b0e  w      .text	00000000 FLASH_IRQHandler
000001f0 g     F .text	0000000c .hidden __riscv_save_0
00003b0e  w      .text	00000000 USART1_IRQHandler
00004b9c g     F .text	00000092 __smakebuf_r
000051a8 g     F .text	000002a2 _printf_i
00003b0e  w      .text	00000000 SPI3_IRQHandler
200000b4 g     O .bss	00000004 is
200000d0 g     O .bss	00000004 __malloc_sbrk_start
00003b0e  w      .text	00000000 I2C1_ER_IRQHandler
00005526 g     F .text	00000018 strchr
00003fd8 g     F .text	0000003e SPI_Init
00003e02 g     F .text	00000006 NVIC_PriorityGroupConfig
200000cc g     O .bss	00000004 __malloc_free_list
20001088 g     O .bss	0000002c fatfs
00000214 g     F .text	0000000c .hidden __riscv_restore_1
00004e14 g     F .text	00000288 _vfprintf_r
000004de g     F .text	000000bc init_port
00003dee g     F .text	0000000a GPIO_ReadInputDataBit
00000a54 g     F .text	0000011c pf_mount
00003b0e  w      .text	00000000 USBWakeUp_IRQHandler
0000568a g     F .text	00000010 _close
00003b0e  w      .text	00000000 DMA2_Channel3_IRQHandler



Disassembly of section .init:

00000000 <_sinit>:
   0:	3110306f          	j	3b10 <handle_reset>

Disassembly of section .vector:

00000004 <_vector_base>:
	...
   c:	0f2a                	slli	t5,t5,0xa
   e:	0000                	unimp
  10:	0f2c                	addi	a1,sp,920
  12:	0000                	unimp
  14:	0000                	unimp
  16:	0000                	unimp
  18:	3b0e                	lhu	a1,48(a4)
	...
  22:	0000                	unimp
  24:	3b0e                	lhu	a1,48(a4)
  26:	0000                	unimp
  28:	3b0e                	lhu	a1,48(a4)
	...
  32:	0000                	unimp
  34:	3b0e                	lhu	a1,48(a4)
  36:	0000                	unimp
  38:	0000                	unimp
  3a:	0000                	unimp
  3c:	3b0e                	lhu	a1,48(a4)
  3e:	0000                	unimp
  40:	0000                	unimp
  42:	0000                	unimp
  44:	3b0e                	lhu	a1,48(a4)
  46:	0000                	unimp
  48:	3b0e                	lhu	a1,48(a4)
  4a:	0000                	unimp
  4c:	3b0e                	lhu	a1,48(a4)
  4e:	0000                	unimp
  50:	3b0e                	lhu	a1,48(a4)
  52:	0000                	unimp
  54:	3b0e                	lhu	a1,48(a4)
  56:	0000                	unimp
  58:	3b0e                	lhu	a1,48(a4)
  5a:	0000                	unimp
  5c:	3b0e                	lhu	a1,48(a4)
  5e:	0000                	unimp
  60:	3b0e                	lhu	a1,48(a4)
  62:	0000                	unimp
  64:	3b0e                	lhu	a1,48(a4)
  66:	0000                	unimp
  68:	3b0e                	lhu	a1,48(a4)
  6a:	0000                	unimp
  6c:	3b0e                	lhu	a1,48(a4)
  6e:	0000                	unimp
  70:	3b0e                	lhu	a1,48(a4)
  72:	0000                	unimp
  74:	3b0e                	lhu	a1,48(a4)
  76:	0000                	unimp
  78:	3b0e                	lhu	a1,48(a4)
  7a:	0000                	unimp
  7c:	3b0e                	lhu	a1,48(a4)
  7e:	0000                	unimp
  80:	3b0e                	lhu	a1,48(a4)
  82:	0000                	unimp
  84:	3b0e                	lhu	a1,48(a4)
  86:	0000                	unimp
  88:	3b0e                	lhu	a1,48(a4)
  8a:	0000                	unimp
  8c:	3b0e                	lhu	a1,48(a4)
  8e:	0000                	unimp
  90:	3b0e                	lhu	a1,48(a4)
  92:	0000                	unimp
  94:	3b0e                	lhu	a1,48(a4)
  96:	0000                	unimp
  98:	3b0e                	lhu	a1,48(a4)
  9a:	0000                	unimp
  9c:	3b0e                	lhu	a1,48(a4)
  9e:	0000                	unimp
  a0:	3b0e                	lhu	a1,48(a4)
  a2:	0000                	unimp
  a4:	3b0e                	lhu	a1,48(a4)
  a6:	0000                	unimp
  a8:	3b0e                	lhu	a1,48(a4)
  aa:	0000                	unimp
  ac:	3b0e                	lhu	a1,48(a4)
  ae:	0000                	unimp
  b0:	3b0e                	lhu	a1,48(a4)
  b2:	0000                	unimp
  b4:	3b0e                	lhu	a1,48(a4)
  b6:	0000                	unimp
  b8:	3b0e                	lhu	a1,48(a4)
  ba:	0000                	unimp
  bc:	3b0e                	lhu	a1,48(a4)
  be:	0000                	unimp
  c0:	3b0e                	lhu	a1,48(a4)
  c2:	0000                	unimp
  c4:	3b0e                	lhu	a1,48(a4)
  c6:	0000                	unimp
  c8:	3b0e                	lhu	a1,48(a4)
  ca:	0000                	unimp
  cc:	3b0e                	lhu	a1,48(a4)
  ce:	0000                	unimp
  d0:	3b0e                	lhu	a1,48(a4)
  d2:	0000                	unimp
  d4:	3b0e                	lhu	a1,48(a4)
  d6:	0000                	unimp
  d8:	3b0e                	lhu	a1,48(a4)
  da:	0000                	unimp
  dc:	3b0e                	lhu	a1,48(a4)
  de:	0000                	unimp
  e0:	3b0e                	lhu	a1,48(a4)
  e2:	0000                	unimp
  e4:	3b0e                	lhu	a1,48(a4)
  e6:	0000                	unimp
  e8:	3b0e                	lhu	a1,48(a4)
  ea:	0000                	unimp
  ec:	3b0e                	lhu	a1,48(a4)
  ee:	0000                	unimp
  f0:	3b0e                	lhu	a1,48(a4)
  f2:	0000                	unimp
  f4:	3b0e                	lhu	a1,48(a4)
  f6:	0000                	unimp
  f8:	3b0e                	lhu	a1,48(a4)
  fa:	0000                	unimp
  fc:	3b0e                	lhu	a1,48(a4)
  fe:	0000                	unimp
 100:	3b0e                	lhu	a1,48(a4)
 102:	0000                	unimp
 104:	0000                	unimp
 106:	0000                	unimp
 108:	3b0e                	lhu	a1,48(a4)
 10a:	0000                	unimp
 10c:	3b0e                	lhu	a1,48(a4)
 10e:	0000                	unimp
 110:	3b0e                	lhu	a1,48(a4)
 112:	0000                	unimp
 114:	3b0e                	lhu	a1,48(a4)
 116:	0000                	unimp
 118:	3b0e                	lhu	a1,48(a4)
 11a:	0000                	unimp
 11c:	3b0e                	lhu	a1,48(a4)
 11e:	0000                	unimp
 120:	3b0e                	lhu	a1,48(a4)
 122:	0000                	unimp
 124:	3b0e                	lhu	a1,48(a4)
 126:	0000                	unimp
 128:	3b0e                	lhu	a1,48(a4)
 12a:	0000                	unimp
 12c:	3b0e                	lhu	a1,48(a4)
 12e:	0000                	unimp
 130:	3296                	lhu	a3,32(a3)
 132:	0000                	unimp
 134:	3b0e                	lhu	a1,48(a4)
 136:	0000                	unimp
 138:	3b0e                	lhu	a1,48(a4)
 13a:	0000                	unimp
 13c:	3b0e                	lhu	a1,48(a4)
 13e:	0000                	unimp
 140:	3b0e                	lhu	a1,48(a4)
 142:	0000                	unimp
 144:	3b0e                	lhu	a1,48(a4)
 146:	0000                	unimp
 148:	3b0e                	lhu	a1,48(a4)
 14a:	0000                	unimp
 14c:	3b0e                	lhu	a1,48(a4)
 14e:	0000                	unimp
 150:	3b0e                	lhu	a1,48(a4)
 152:	0000                	unimp
 154:	3b0e                	lhu	a1,48(a4)
 156:	0000                	unimp
 158:	3b0e                	lhu	a1,48(a4)
 15a:	0000                	unimp
 15c:	3b0e                	lhu	a1,48(a4)
 15e:	0000                	unimp
 160:	3b0e                	lhu	a1,48(a4)
 162:	0000                	unimp
 164:	3b0e                	lhu	a1,48(a4)
 166:	0000                	unimp
 168:	3b0e                	lhu	a1,48(a4)
 16a:	0000                	unimp
 16c:	3b0e                	lhu	a1,48(a4)
 16e:	0000                	unimp
 170:	3b0e                	lhu	a1,48(a4)
 172:	0000                	unimp
 174:	3b0e                	lhu	a1,48(a4)
 176:	0000                	unimp
 178:	3b0e                	lhu	a1,48(a4)
 17a:	0000                	unimp
 17c:	3b0e                	lhu	a1,48(a4)
 17e:	0000                	unimp
 180:	3b0e                	lhu	a1,48(a4)
 182:	0000                	unimp
 184:	3b0e                	lhu	a1,48(a4)
 186:	0000                	unimp
 188:	3b0e                	lhu	a1,48(a4)
 18a:	0000                	unimp
 18c:	3b0e                	lhu	a1,48(a4)
 18e:	0000                	unimp
 190:	3b0e                	lhu	a1,48(a4)
 192:	0000                	unimp
 194:	3b0e                	lhu	a1,48(a4)
 196:	0000                	unimp
 198:	3b0e                	lhu	a1,48(a4)
 19a:	0000                	unimp
 19c:	3b0e                	lhu	a1,48(a4)
 19e:	0000                	unimp
 1a0:	3b0e                	lhu	a1,48(a4)
	...

Disassembly of section .text:

000001c0 <__riscv_save_12>:
     1c0:	7139                	addi	sp,sp,-64
     1c2:	4301                	li	t1,0
     1c4:	c66e                	sw	s11,12(sp)
     1c6:	a019                	j	1cc <__riscv_save_10+0x4>

000001c8 <__riscv_save_10>:
     1c8:	7139                	addi	sp,sp,-64
     1ca:	5341                	li	t1,-16
     1cc:	c86a                	sw	s10,16(sp)
     1ce:	ca66                	sw	s9,20(sp)
     1d0:	cc62                	sw	s8,24(sp)
     1d2:	ce5e                	sw	s7,28(sp)
     1d4:	a019                	j	1da <__riscv_save_4+0x4>

000001d6 <__riscv_save_4>:
     1d6:	7139                	addi	sp,sp,-64
     1d8:	5301                	li	t1,-32
     1da:	d05a                	sw	s6,32(sp)
     1dc:	d256                	sw	s5,36(sp)
     1de:	d452                	sw	s4,40(sp)
     1e0:	d64e                	sw	s3,44(sp)
     1e2:	d84a                	sw	s2,48(sp)
     1e4:	da26                	sw	s1,52(sp)
     1e6:	dc22                	sw	s0,56(sp)
     1e8:	de06                	sw	ra,60(sp)
     1ea:	40610133          	sub	sp,sp,t1
     1ee:	8282                	jr	t0

000001f0 <__riscv_save_0>:
     1f0:	1141                	addi	sp,sp,-16
     1f2:	c04a                	sw	s2,0(sp)
     1f4:	c226                	sw	s1,4(sp)
     1f6:	c422                	sw	s0,8(sp)
     1f8:	c606                	sw	ra,12(sp)
     1fa:	8282                	jr	t0

000001fc <__riscv_restore_12>:
     1fc:	4db2                	lw	s11,12(sp)
     1fe:	0141                	addi	sp,sp,16

00000200 <__riscv_restore_10>:
     200:	4d02                	lw	s10,0(sp)
     202:	4c92                	lw	s9,4(sp)
     204:	4c22                	lw	s8,8(sp)
     206:	4bb2                	lw	s7,12(sp)
     208:	0141                	addi	sp,sp,16

0000020a <__riscv_restore_4>:
     20a:	4b02                	lw	s6,0(sp)
     20c:	4a92                	lw	s5,4(sp)
     20e:	4a22                	lw	s4,8(sp)
     210:	49b2                	lw	s3,12(sp)
     212:	0141                	addi	sp,sp,16

00000214 <__riscv_restore_0>:
     214:	4902                	lw	s2,0(sp)
     216:	4492                	lw	s1,4(sp)
     218:	4422                	lw	s0,8(sp)
     21a:	40b2                	lw	ra,12(sp)
     21c:	0141                	addi	sp,sp,16
     21e:	8082                	ret

00000220 <memset>:
     220:	433d                	li	t1,15
     222:	872a                	mv	a4,a0
     224:	02c37363          	bgeu	t1,a2,24a <memset+0x2a>
     228:	00f77793          	andi	a5,a4,15
     22c:	efbd                	bnez	a5,2aa <memset+0x8a>
     22e:	e5ad                	bnez	a1,298 <memset+0x78>
     230:	ff067693          	andi	a3,a2,-16
     234:	8a3d                	andi	a2,a2,15
     236:	96ba                	add	a3,a3,a4
     238:	c30c                	sw	a1,0(a4)
     23a:	c34c                	sw	a1,4(a4)
     23c:	c70c                	sw	a1,8(a4)
     23e:	c74c                	sw	a1,12(a4)
     240:	0741                	addi	a4,a4,16
     242:	fed76be3          	bltu	a4,a3,238 <memset+0x18>
     246:	e211                	bnez	a2,24a <memset+0x2a>
     248:	8082                	ret
     24a:	40c306b3          	sub	a3,t1,a2
     24e:	068a                	slli	a3,a3,0x2
     250:	00000297          	auipc	t0,0x0
     254:	9696                	add	a3,a3,t0
     256:	00a68067          	jr	10(a3)
     25a:	00b70723          	sb	a1,14(a4)
     25e:	00b706a3          	sb	a1,13(a4)
     262:	00b70623          	sb	a1,12(a4)
     266:	00b705a3          	sb	a1,11(a4)
     26a:	00b70523          	sb	a1,10(a4)
     26e:	00b704a3          	sb	a1,9(a4)
     272:	00b70423          	sb	a1,8(a4)
     276:	00b703a3          	sb	a1,7(a4)
     27a:	00b70323          	sb	a1,6(a4)
     27e:	00b702a3          	sb	a1,5(a4)
     282:	00b70223          	sb	a1,4(a4)
     286:	00b701a3          	sb	a1,3(a4)
     28a:	00b70123          	sb	a1,2(a4)
     28e:	00b700a3          	sb	a1,1(a4)
     292:	00b70023          	sb	a1,0(a4)
     296:	8082                	ret
     298:	0ff5f593          	andi	a1,a1,255
     29c:	00859693          	slli	a3,a1,0x8
     2a0:	8dd5                	or	a1,a1,a3
     2a2:	01059693          	slli	a3,a1,0x10
     2a6:	8dd5                	or	a1,a1,a3
     2a8:	b761                	j	230 <memset+0x10>
     2aa:	00279693          	slli	a3,a5,0x2
     2ae:	00000297          	auipc	t0,0x0
     2b2:	9696                	add	a3,a3,t0
     2b4:	8286                	mv	t0,ra
     2b6:	fa8680e7          	jalr	-88(a3)
     2ba:	8096                	mv	ra,t0
     2bc:	17c1                	addi	a5,a5,-16
     2be:	8f1d                	sub	a4,a4,a5
     2c0:	963e                	add	a2,a2,a5
     2c2:	f8c374e3          	bgeu	t1,a2,24a <memset+0x2a>
     2c6:	b7a5                	j	22e <memset+0xe>

000002c8 <strcmp>:
     2c8:	00b56733          	or	a4,a0,a1
     2cc:	53fd                	li	t2,-1
     2ce:	8b0d                	andi	a4,a4,3
     2d0:	e779                	bnez	a4,39e <strcmp+0xd6>
     2d2:	7f7f87b7          	lui	a5,0x7f7f8
     2d6:	f7f78793          	addi	a5,a5,-129 # 7f7f7f7f <_eusrstack+0x5f7eff7f>
     2da:	4110                	lw	a2,0(a0)
     2dc:	4194                	lw	a3,0(a1)
     2de:	00f672b3          	and	t0,a2,a5
     2e2:	00f66333          	or	t1,a2,a5
     2e6:	92be                	add	t0,t0,a5
     2e8:	0062e2b3          	or	t0,t0,t1
     2ec:	0c729563          	bne	t0,t2,3b6 <strcmp+0xee>
     2f0:	06d61863          	bne	a2,a3,360 <strcmp+0x98>
     2f4:	4150                	lw	a2,4(a0)
     2f6:	41d4                	lw	a3,4(a1)
     2f8:	00f672b3          	and	t0,a2,a5
     2fc:	00f66333          	or	t1,a2,a5
     300:	92be                	add	t0,t0,a5
     302:	0062e2b3          	or	t0,t0,t1
     306:	0a729663          	bne	t0,t2,3b2 <strcmp+0xea>
     30a:	04d61b63          	bne	a2,a3,360 <strcmp+0x98>
     30e:	4510                	lw	a2,8(a0)
     310:	4594                	lw	a3,8(a1)
     312:	00f672b3          	and	t0,a2,a5
     316:	00f66333          	or	t1,a2,a5
     31a:	92be                	add	t0,t0,a5
     31c:	0062e2b3          	or	t0,t0,t1
     320:	08729f63          	bne	t0,t2,3be <strcmp+0xf6>
     324:	02d61e63          	bne	a2,a3,360 <strcmp+0x98>
     328:	4550                	lw	a2,12(a0)
     32a:	45d4                	lw	a3,12(a1)
     32c:	00f672b3          	and	t0,a2,a5
     330:	00f66333          	or	t1,a2,a5
     334:	92be                	add	t0,t0,a5
     336:	0062e2b3          	or	t0,t0,t1
     33a:	08729863          	bne	t0,t2,3ca <strcmp+0x102>
     33e:	02d61163          	bne	a2,a3,360 <strcmp+0x98>
     342:	4910                	lw	a2,16(a0)
     344:	4994                	lw	a3,16(a1)
     346:	00f672b3          	and	t0,a2,a5
     34a:	00f66333          	or	t1,a2,a5
     34e:	92be                	add	t0,t0,a5
     350:	0062e2b3          	or	t0,t0,t1
     354:	08729163          	bne	t0,t2,3d6 <strcmp+0x10e>
     358:	0551                	addi	a0,a0,20
     35a:	05d1                	addi	a1,a1,20
     35c:	f6d60fe3          	beq	a2,a3,2da <strcmp+0x12>
     360:	01061713          	slli	a4,a2,0x10
     364:	01069793          	slli	a5,a3,0x10
     368:	00f71c63          	bne	a4,a5,380 <strcmp+0xb8>
     36c:	01065713          	srli	a4,a2,0x10
     370:	0106d793          	srli	a5,a3,0x10
     374:	40f70533          	sub	a0,a4,a5
     378:	0ff57593          	andi	a1,a0,255
     37c:	e991                	bnez	a1,390 <strcmp+0xc8>
     37e:	8082                	ret
     380:	8341                	srli	a4,a4,0x10
     382:	83c1                	srli	a5,a5,0x10
     384:	40f70533          	sub	a0,a4,a5
     388:	0ff57593          	andi	a1,a0,255
     38c:	e191                	bnez	a1,390 <strcmp+0xc8>
     38e:	8082                	ret
     390:	0ff77713          	andi	a4,a4,255
     394:	0ff7f793          	andi	a5,a5,255
     398:	40f70533          	sub	a0,a4,a5
     39c:	8082                	ret
     39e:	2110                	lbu	a2,0(a0)
     3a0:	2194                	lbu	a3,0(a1)
     3a2:	0505                	addi	a0,a0,1
     3a4:	0585                	addi	a1,a1,1
     3a6:	00d61363          	bne	a2,a3,3ac <strcmp+0xe4>
     3aa:	fa75                	bnez	a2,39e <strcmp+0xd6>
     3ac:	40d60533          	sub	a0,a2,a3
     3b0:	8082                	ret
     3b2:	0511                	addi	a0,a0,4
     3b4:	0591                	addi	a1,a1,4
     3b6:	fed614e3          	bne	a2,a3,39e <strcmp+0xd6>
     3ba:	4501                	li	a0,0
     3bc:	8082                	ret
     3be:	0521                	addi	a0,a0,8
     3c0:	05a1                	addi	a1,a1,8
     3c2:	fcd61ee3          	bne	a2,a3,39e <strcmp+0xd6>
     3c6:	4501                	li	a0,0
     3c8:	8082                	ret
     3ca:	0531                	addi	a0,a0,12
     3cc:	05b1                	addi	a1,a1,12
     3ce:	fcd618e3          	bne	a2,a3,39e <strcmp+0xd6>
     3d2:	4501                	li	a0,0
     3d4:	8082                	ret
     3d6:	0541                	addi	a0,a0,16
     3d8:	05c1                	addi	a1,a1,16
     3da:	fcd612e3          	bne	a2,a3,39e <strcmp+0xd6>
     3de:	4501                	li	a0,0
     3e0:	8082                	ret

000003e2 <SPI1_ReadWriteByte>:
     3e2:	e0fff2ef          	jal	t0,1f0 <__riscv_save_0>
     3e6:	40004437          	lui	s0,0x40004
     3ea:	84aa                	mv	s1,a0
     3ec:	80040913          	addi	s2,s0,-2048 # 40003800 <_eusrstack+0x1fffb800>
     3f0:	4589                	li	a1,2
     3f2:	854a                	mv	a0,s2
     3f4:	445030ef          	jal	ra,4038 <SPI_I2S_GetFlagStatus>
     3f8:	dd65                	beqz	a0,3f0 <SPI1_ReadWriteByte+0xe>
     3fa:	85a6                	mv	a1,s1
     3fc:	80040513          	addi	a0,s0,-2048
     400:	40004437          	lui	s0,0x40004
     404:	42d030ef          	jal	ra,4030 <SPI_I2S_SendData>
     408:	80040493          	addi	s1,s0,-2048 # 40003800 <_eusrstack+0x1fffb800>
     40c:	4585                	li	a1,1
     40e:	8526                	mv	a0,s1
     410:	429030ef          	jal	ra,4038 <SPI_I2S_GetFlagStatus>
     414:	dd65                	beqz	a0,40c <SPI1_ReadWriteByte+0x2a>
     416:	80040513          	addi	a0,s0,-2048
     41a:	41b030ef          	jal	ra,4034 <SPI_I2S_ReceiveData>
     41e:	0ff57513          	andi	a0,a0,255
     422:	bbcd                	j	214 <__riscv_restore_0>

00000424 <skip_mmc>:
     424:	dcdff2ef          	jal	t0,1f0 <__riscv_save_0>
     428:	842a                	mv	s0,a0
     42a:	0ff00513          	li	a0,255
     42e:	147d                	addi	s0,s0,-1
     430:	3f4d                	jal	3e2 <SPI1_ReadWriteByte>
     432:	fc65                	bnez	s0,42a <skip_mmc+0x6>
     434:	b3c5                	j	214 <__riscv_restore_0>

00000436 <rcvr_mmc>:
     436:	dbbff2ef          	jal	t0,1f0 <__riscv_save_0>
     43a:	0ff00513          	li	a0,255
     43e:	3755                	jal	3e2 <SPI1_ReadWriteByte>
     440:	bbd1                	j	214 <__riscv_restore_0>

00000442 <send_cmd>:
     442:	dafff2ef          	jal	t0,1f0 <__riscv_save_0>
     446:	01851793          	slli	a5,a0,0x18
     44a:	87e1                	srai	a5,a5,0x18
     44c:	842a                	mv	s0,a0
     44e:	84ae                	mv	s1,a1
     450:	0007db63          	bgez	a5,466 <send_cmd+0x24>
     454:	4581                	li	a1,0
     456:	07700513          	li	a0,119
     45a:	37e5                	jal	442 <send_cmd>
     45c:	4785                	li	a5,1
     45e:	06a7ef63          	bltu	a5,a0,4dc <send_cmd+0x9a>
     462:	07f47413          	andi	s0,s0,127
     466:	40011937          	lui	s2,0x40011
     46a:	4605                	li	a2,1
     46c:	6585                	lui	a1,0x1
     46e:	c0090513          	addi	a0,s2,-1024 # 40010c00 <_eusrstack+0x20008c00>
     472:	187030ef          	jal	ra,3df8 <GPIO_WriteBit>
     476:	37c1                	jal	436 <rcvr_mmc>
     478:	4601                	li	a2,0
     47a:	6585                	lui	a1,0x1
     47c:	c0090513          	addi	a0,s2,-1024
     480:	179030ef          	jal	ra,3df8 <GPIO_WriteBit>
     484:	3f4d                	jal	436 <rcvr_mmc>
     486:	8522                	mv	a0,s0
     488:	3fa9                	jal	3e2 <SPI1_ReadWriteByte>
     48a:	0184d513          	srli	a0,s1,0x18
     48e:	3f91                	jal	3e2 <SPI1_ReadWriteByte>
     490:	0104d513          	srli	a0,s1,0x10
     494:	0ff57513          	andi	a0,a0,255
     498:	37a9                	jal	3e2 <SPI1_ReadWriteByte>
     49a:	0084d513          	srli	a0,s1,0x8
     49e:	0ff57513          	andi	a0,a0,255
     4a2:	3781                	jal	3e2 <SPI1_ReadWriteByte>
     4a4:	0ff4f513          	andi	a0,s1,255
     4a8:	3f2d                	jal	3e2 <SPI1_ReadWriteByte>
     4aa:	04000793          	li	a5,64
     4ae:	09500513          	li	a0,149
     4b2:	00f40963          	beq	s0,a5,4c4 <send_cmd+0x82>
     4b6:	04800793          	li	a5,72
     4ba:	4505                	li	a0,1
     4bc:	00f41463          	bne	s0,a5,4c4 <send_cmd+0x82>
     4c0:	08700513          	li	a0,135
     4c4:	3f39                	jal	3e2 <SPI1_ReadWriteByte>
     4c6:	4429                	li	s0,10
     4c8:	37bd                	jal	436 <rcvr_mmc>
     4ca:	01851793          	slli	a5,a0,0x18
     4ce:	87e1                	srai	a5,a5,0x18
     4d0:	0007d663          	bgez	a5,4dc <send_cmd+0x9a>
     4d4:	147d                	addi	s0,s0,-1
     4d6:	0ff47413          	andi	s0,s0,255
     4da:	f47d                	bnez	s0,4c8 <send_cmd+0x86>
     4dc:	bb25                	j	214 <__riscv_restore_0>

000004de <init_port>:
     4de:	d13ff2ef          	jal	t0,1f0 <__riscv_save_0>
     4e2:	1101                	addi	sp,sp,-32
     4e4:	4585                	li	a1,1
     4e6:	4521                	li	a0,8
     4e8:	c002                	sw	zero,0(sp)
     4ea:	c202                	sw	zero,4(sp)
     4ec:	c402                	sw	zero,8(sp)
     4ee:	c602                	sw	zero,12(sp)
     4f0:	c802                	sw	zero,16(sp)
     4f2:	ca02                	sw	zero,20(sp)
     4f4:	cc02                	sw	zero,24(sp)
     4f6:	00011e23          	sh	zero,28(sp)
     4fa:	2a3030ef          	jal	ra,3f9c <RCC_APB2PeriphClockCmd>
     4fe:	4585                	li	a1,1
     500:	6511                	lui	a0,0x4
     502:	2b9030ef          	jal	ra,3fba <RCC_APB1PeriphClockCmd>
     506:	40011437          	lui	s0,0x40011
     50a:	6785                	lui	a5,0x1
     50c:	490d                	li	s2,3
     50e:	807c                	sh	a5,0(sp)
     510:	858a                	mv	a1,sp
     512:	47c1                	li	a5,16
     514:	c0040513          	addi	a0,s0,-1024 # 40010c00 <_eusrstack+0x20008c00>
     518:	c43e                	sw	a5,8(sp)
     51a:	c24a                	sw	s2,4(sp)
     51c:	013030ef          	jal	ra,3d2e <GPIO_Init>
     520:	4605                	li	a2,1
     522:	c0040513          	addi	a0,s0,-1024
     526:	6585                	lui	a1,0x1
     528:	0d1030ef          	jal	ra,3df8 <GPIO_WriteBit>
     52c:	44e1                	li	s1,24
     52e:	6789                	lui	a5,0x2
     530:	858a                	mv	a1,sp
     532:	c0040513          	addi	a0,s0,-1024
     536:	807c                	sh	a5,0(sp)
     538:	c426                	sw	s1,8(sp)
     53a:	c24a                	sw	s2,4(sp)
     53c:	7f2030ef          	jal	ra,3d2e <GPIO_Init>
     540:	6791                	lui	a5,0x4
     542:	807c                	sh	a5,0(sp)
     544:	858a                	mv	a1,sp
     546:	4791                	li	a5,4
     548:	c0040513          	addi	a0,s0,-1024
     54c:	c43e                	sw	a5,8(sp)
     54e:	7e0030ef          	jal	ra,3d2e <GPIO_Init>
     552:	77e1                	lui	a5,0xffff8
     554:	858a                	mv	a1,sp
     556:	c0040513          	addi	a0,s0,-1024
     55a:	807c                	sh	a5,0(sp)
     55c:	c426                	sw	s1,8(sp)
     55e:	c24a                	sw	s2,4(sp)
     560:	7ce030ef          	jal	ra,3d2e <GPIO_Init>
     564:	010407b7          	lui	a5,0x1040
     568:	c63e                	sw	a5,12(sp)
     56a:	000207b7          	lui	a5,0x20
     56e:	c83e                	sw	a5,16(sp)
     570:	020007b7          	lui	a5,0x2000
     574:	40004437          	lui	s0,0x40004
     578:	0785                	addi	a5,a5,1
     57a:	ca3e                	sw	a5,20(sp)
     57c:	006c                	addi	a1,sp,12
     57e:	479d                	li	a5,7
     580:	80040513          	addi	a0,s0,-2048 # 40003800 <_eusrstack+0x1fffb800>
     584:	86fc                	sh	a5,28(sp)
     586:	cc26                	sw	s1,24(sp)
     588:	251030ef          	jal	ra,3fd8 <SPI_Init>
     58c:	4585                	li	a1,1
     58e:	80040513          	addi	a0,s0,-2048
     592:	285030ef          	jal	ra,4016 <SPI_Cmd>
     596:	6105                	addi	sp,sp,32
     598:	b9b5                	j	214 <__riscv_restore_0>

0000059a <disk_initialize>:
     59a:	c57ff2ef          	jal	t0,1f0 <__riscv_save_0>
     59e:	1141                	addi	sp,sp,-16
     5a0:	3f3d                	jal	4de <init_port>
     5a2:	40011537          	lui	a0,0x40011
     5a6:	4605                	li	a2,1
     5a8:	6585                	lui	a1,0x1
     5aa:	c0050513          	addi	a0,a0,-1024 # 40010c00 <_eusrstack+0x20008c00>
     5ae:	04b030ef          	jal	ra,3df8 <GPIO_WriteBit>
     5b2:	4529                	li	a0,10
     5b4:	3d85                	jal	424 <skip_mmc>
     5b6:	4581                	li	a1,0
     5b8:	04000513          	li	a0,64
     5bc:	3559                	jal	442 <send_cmd>
     5be:	4785                	li	a5,1
     5c0:	04f51a63          	bne	a0,a5,614 <disk_initialize+0x7a>
     5c4:	842a                	mv	s0,a0
     5c6:	1aa00593          	li	a1,426
     5ca:	04800513          	li	a0,72
     5ce:	3d95                	jal	442 <send_cmd>
     5d0:	04851463          	bne	a0,s0,618 <disk_initialize+0x7e>
     5d4:	4401                	li	s0,0
     5d6:	4491                	li	s1,4
     5d8:	3db9                	jal	436 <rcvr_mmc>
     5da:	007c                	addi	a5,sp,12
     5dc:	97a2                	add	a5,a5,s0
     5de:	a388                	sb	a0,0(a5)
     5e0:	0405                	addi	s0,s0,1
     5e2:	fe941be3          	bne	s0,s1,5d8 <disk_initialize+0x3e>
     5e6:	8718                	lbu	a4,14(sp)
     5e8:	4785                	li	a5,1
     5ea:	02f71563          	bne	a4,a5,614 <disk_initialize+0x7a>
     5ee:	8798                	lbu	a4,15(sp)
     5f0:	0aa00793          	li	a5,170
     5f4:	02f71063          	bne	a4,a5,614 <disk_initialize+0x7a>
     5f8:	3e800413          	li	s0,1000
     5fc:	400005b7          	lui	a1,0x40000
     600:	0e900513          	li	a0,233
     604:	3d3d                	jal	442 <send_cmd>
     606:	c129                	beqz	a0,648 <disk_initialize+0xae>
     608:	3e800513          	li	a0,1000
     60c:	147d                	addi	s0,s0,-1
     60e:	447030ef          	jal	ra,4254 <Delay_Us>
     612:	f46d                	bnez	s0,5fc <disk_initialize+0x62>
     614:	4401                	li	s0,0
     616:	a8a9                	j	670 <disk_initialize+0xd6>
     618:	4581                	li	a1,0
     61a:	0e900513          	li	a0,233
     61e:	3515                	jal	442 <send_cmd>
     620:	04100913          	li	s2,65
     624:	00a46563          	bltu	s0,a0,62e <disk_initialize+0x94>
     628:	4409                	li	s0,2
     62a:	0e900913          	li	s2,233
     62e:	3e800493          	li	s1,1000
     632:	4581                	li	a1,0
     634:	854a                	mv	a0,s2
     636:	3531                	jal	442 <send_cmd>
     638:	c939                	beqz	a0,68e <disk_initialize+0xf4>
     63a:	3e800513          	li	a0,1000
     63e:	14fd                	addi	s1,s1,-1
     640:	415030ef          	jal	ra,4254 <Delay_Us>
     644:	f4fd                	bnez	s1,632 <disk_initialize+0x98>
     646:	b7f9                	j	614 <disk_initialize+0x7a>
     648:	4581                	li	a1,0
     64a:	07a00513          	li	a0,122
     64e:	3bd5                	jal	442 <send_cmd>
     650:	f171                	bnez	a0,614 <disk_initialize+0x7a>
     652:	4401                	li	s0,0
     654:	4491                	li	s1,4
     656:	33c5                	jal	436 <rcvr_mmc>
     658:	007c                	addi	a5,sp,12
     65a:	97a2                	add	a5,a5,s0
     65c:	a388                	sb	a0,0(a5)
     65e:	0405                	addi	s0,s0,1
     660:	fe941be3          	bne	s0,s1,656 <disk_initialize+0xbc>
     664:	861c                	lbu	a5,12(sp)
     666:	4431                	li	s0,12
     668:	0407f793          	andi	a5,a5,64
     66c:	e391                	bnez	a5,670 <disk_initialize+0xd6>
     66e:	4411                	li	s0,4
     670:	40011537          	lui	a0,0x40011
     674:	4605                	li	a2,1
     676:	6585                	lui	a1,0x1
     678:	c0050513          	addi	a0,a0,-1024 # 40010c00 <_eusrstack+0x20008c00>
     67c:	82818023          	sb	s0,-2016(gp) # 200000a0 <_edata>
     680:	778030ef          	jal	ra,3df8 <GPIO_WriteBit>
     684:	3b4d                	jal	436 <rcvr_mmc>
     686:	00143513          	seqz	a0,s0
     68a:	0141                	addi	sp,sp,16
     68c:	b661                	j	214 <__riscv_restore_0>
     68e:	20000593          	li	a1,512
     692:	05000513          	li	a0,80
     696:	3375                	jal	442 <send_cmd>
     698:	fd35                	bnez	a0,614 <disk_initialize+0x7a>
     69a:	bfd9                	j	670 <disk_initialize+0xd6>

0000069c <disk_readp>:
     69c:	b3bff2ef          	jal	t0,1d6 <__riscv_save_4>
     6a0:	8201c783          	lbu	a5,-2016(gp) # 200000a0 <_edata>
     6a4:	89aa                	mv	s3,a0
     6a6:	8932                	mv	s2,a2
     6a8:	8ba1                	andi	a5,a5,8
     6aa:	8436                	mv	s0,a3
     6ac:	e391                	bnez	a5,6b0 <disk_readp+0x14>
     6ae:	05a6                	slli	a1,a1,0x9
     6b0:	05100513          	li	a0,81
     6b4:	3379                	jal	442 <send_cmd>
     6b6:	cd09                	beqz	a0,6d0 <disk_readp+0x34>
     6b8:	4405                	li	s0,1
     6ba:	40011537          	lui	a0,0x40011
     6be:	4605                	li	a2,1
     6c0:	6585                	lui	a1,0x1
     6c2:	c0050513          	addi	a0,a0,-1024 # 40010c00 <_eusrstack+0x20008c00>
     6c6:	732030ef          	jal	ra,3df8 <GPIO_WriteBit>
     6ca:	33b5                	jal	436 <rcvr_mmc>
     6cc:	8522                	mv	a0,s0
     6ce:	be35                	j	20a <__riscv_restore_4>
     6d0:	3e800493          	li	s1,1000
     6d4:	0ff00a13          	li	s4,255
     6d8:	06400513          	li	a0,100
     6dc:	379030ef          	jal	ra,4254 <Delay_Us>
     6e0:	3b99                	jal	436 <rcvr_mmc>
     6e2:	01451563          	bne	a0,s4,6ec <disk_readp+0x50>
     6e6:	14fd                	addi	s1,s1,-1
     6e8:	f8e5                	bnez	s1,6d8 <disk_readp+0x3c>
     6ea:	b7f9                	j	6b8 <disk_readp+0x1c>
     6ec:	0fe00793          	li	a5,254
     6f0:	fcf514e3          	bne	a0,a5,6b8 <disk_readp+0x1c>
     6f4:	20200493          	li	s1,514
     6f8:	8c81                	sub	s1,s1,s0
     6fa:	412484b3          	sub	s1,s1,s2
     6fe:	00090463          	beqz	s2,706 <disk_readp+0x6a>
     702:	854a                	mv	a0,s2
     704:	3305                	jal	424 <skip_mmc>
     706:	00098d63          	beqz	s3,720 <disk_readp+0x84>
     70a:	944e                	add	s0,s0,s3
     70c:	0985                	addi	s3,s3,1
     70e:	3325                	jal	436 <rcvr_mmc>
     710:	fea98fa3          	sb	a0,-1(s3)
     714:	fe899ce3          	bne	s3,s0,70c <disk_readp+0x70>
     718:	8526                	mv	a0,s1
     71a:	3329                	jal	424 <skip_mmc>
     71c:	4401                	li	s0,0
     71e:	bf71                	j	6ba <disk_readp+0x1e>
     720:	147d                	addi	s0,s0,-1
     722:	3b11                	jal	436 <rcvr_mmc>
     724:	fc75                	bnez	s0,720 <disk_readp+0x84>
     726:	bfcd                	j	718 <disk_readp+0x7c>

00000728 <ld_dword>:
     728:	313c                	lbu	a5,3(a0)
     72a:	2138                	lbu	a4,2(a0)
     72c:	07a2                	slli	a5,a5,0x8
     72e:	8fd9                	or	a5,a5,a4
     730:	3118                	lbu	a4,1(a0)
     732:	07a2                	slli	a5,a5,0x8
     734:	2108                	lbu	a0,0(a0)
     736:	8fd9                	or	a5,a5,a4
     738:	07a2                	slli	a5,a5,0x8
     73a:	8d5d                	or	a0,a0,a5
     73c:	8082                	ret

0000073e <clust2sect>:
     73e:	8241a703          	lw	a4,-2012(gp) # 200000a4 <FatFs>
     742:	1579                	addi	a0,a0,-2
     744:	4714                	lw	a3,8(a4)
     746:	16f9                	addi	a3,a3,-2
     748:	00d57863          	bgeu	a0,a3,758 <clust2sect+0x1a>
     74c:	233c                	lbu	a5,2(a4)
     74e:	02a78533          	mul	a0,a5,a0
     752:	4b5c                	lw	a5,20(a4)
     754:	953e                	add	a0,a0,a5
     756:	8082                	ret
     758:	4501                	li	a0,0
     75a:	8082                	ret

0000075c <get_clust>:
     75c:	8241a783          	lw	a5,-2012(gp) # 200000a4 <FatFs>
     760:	2398                	lbu	a4,0(a5)
     762:	478d                	li	a5,3
     764:	00f71d63          	bne	a4,a5,77e <get_clust+0x22>
     768:	395c                	lbu	a5,21(a0)
     76a:	2958                	lbu	a4,20(a0)
     76c:	07a2                	slli	a5,a5,0x8
     76e:	8fd9                	or	a5,a5,a4
     770:	07c2                	slli	a5,a5,0x10
     772:	3d38                	lbu	a4,27(a0)
     774:	2d28                	lbu	a0,26(a0)
     776:	0722                	slli	a4,a4,0x8
     778:	8d59                	or	a0,a0,a4
     77a:	8d5d                	or	a0,a0,a5
     77c:	8082                	ret
     77e:	4781                	li	a5,0
     780:	bfcd                	j	772 <get_clust+0x16>

00000782 <dir_rewind>:
     782:	8241a703          	lw	a4,-2012(gp) # 200000a4 <FatFs>
     786:	451c                	lw	a5,8(a0)
     788:	00051023          	sh	zero,0(a0)
     78c:	4685                	li	a3,1
     78e:	02d78a63          	beq	a5,a3,7c2 <dir_rewind+0x40>
     792:	a5fff2ef          	jal	t0,1f0 <__riscv_save_0>
     796:	4714                	lw	a3,8(a4)
     798:	842a                	mv	s0,a0
     79a:	4505                	li	a0,1
     79c:	02d7f263          	bgeu	a5,a3,7c0 <dir_rewind+0x3e>
     7a0:	eb91                	bnez	a5,7b4 <dir_rewind+0x32>
     7a2:	2310                	lbu	a2,0(a4)
     7a4:	468d                	li	a3,3
     7a6:	4b1c                	lw	a5,16(a4)
     7a8:	00d60663          	beq	a2,a3,7b4 <dir_rewind+0x32>
     7ac:	00042623          	sw	zero,12(s0)
     7b0:	4b08                	lw	a0,16(a4)
     7b2:	a029                	j	7bc <dir_rewind+0x3a>
     7b4:	c45c                	sw	a5,12(s0)
     7b6:	dfed                	beqz	a5,7b0 <dir_rewind+0x2e>
     7b8:	853e                	mv	a0,a5
     7ba:	3751                	jal	73e <clust2sect>
     7bc:	c808                	sw	a0,16(s0)
     7be:	4501                	li	a0,0
     7c0:	bc91                	j	214 <__riscv_restore_0>
     7c2:	4505                	li	a0,1
     7c4:	8082                	ret

000007c6 <get_fat>:
     7c6:	4785                	li	a5,1
     7c8:	00a7e463          	bltu	a5,a0,7d0 <get_fat+0xa>
     7cc:	4505                	li	a0,1
     7ce:	8082                	ret
     7d0:	8241a783          	lw	a5,-2012(gp) # 200000a4 <FatFs>
     7d4:	4798                	lw	a4,8(a5)
     7d6:	fee57be3          	bgeu	a0,a4,7cc <get_fat+0x6>
     7da:	a17ff2ef          	jal	t0,1f0 <__riscv_save_0>
     7de:	2398                	lbu	a4,0(a5)
     7e0:	4689                	li	a3,2
     7e2:	1141                	addi	sp,sp,-16
     7e4:	00d70863          	beq	a4,a3,7f4 <get_fat+0x2e>
     7e8:	468d                	li	a3,3
     7ea:	02d70463          	beq	a4,a3,812 <get_fat+0x4c>
     7ee:	4505                	li	a0,1
     7f0:	0141                	addi	sp,sp,16
     7f2:	b40d                	j	214 <__riscv_restore_0>
     7f4:	47cc                	lw	a1,12(a5)
     7f6:	0ff57613          	andi	a2,a0,255
     7fa:	8121                	srli	a0,a0,0x8
     7fc:	95aa                	add	a1,a1,a0
     7fe:	4689                	li	a3,2
     800:	0606                	slli	a2,a2,0x1
     802:	0068                	addi	a0,sp,12
     804:	3d61                	jal	69c <disk_readp>
     806:	f565                	bnez	a0,7ee <get_fat+0x28>
     808:	8688                	lbu	a0,13(sp)
     80a:	861c                	lbu	a5,12(sp)
     80c:	0522                	slli	a0,a0,0x8
     80e:	8d5d                	or	a0,a0,a5
     810:	b7c5                	j	7f0 <get_fat+0x2a>
     812:	47cc                	lw	a1,12(a5)
     814:	07f57613          	andi	a2,a0,127
     818:	811d                	srli	a0,a0,0x7
     81a:	95aa                	add	a1,a1,a0
     81c:	4691                	li	a3,4
     81e:	060a                	slli	a2,a2,0x2
     820:	0068                	addi	a0,sp,12
     822:	3dad                	jal	69c <disk_readp>
     824:	f569                	bnez	a0,7ee <get_fat+0x28>
     826:	0068                	addi	a0,sp,12
     828:	3701                	jal	728 <ld_dword>
     82a:	0512                	slli	a0,a0,0x4
     82c:	8111                	srli	a0,a0,0x4
     82e:	b7c9                	j	7f0 <get_fat+0x2a>

00000830 <dir_next>:
     830:	9c1ff2ef          	jal	t0,1f0 <__riscv_save_0>
     834:	2106                	lhu	s1,0(a0)
     836:	0485                	addi	s1,s1,1
     838:	04c2                	slli	s1,s1,0x10
     83a:	80c1                	srli	s1,s1,0x10
     83c:	e481                	bnez	s1,844 <dir_next+0x14>
     83e:	478d                	li	a5,3
     840:	853e                	mv	a0,a5
     842:	bac9                	j	214 <__riscv_restore_0>
     844:	491c                	lw	a5,16(a0)
     846:	dfe5                	beqz	a5,83e <dir_next+0xe>
     848:	00f4f713          	andi	a4,s1,15
     84c:	842a                	mv	s0,a0
     84e:	eb19                	bnez	a4,864 <dir_next+0x34>
     850:	0785                	addi	a5,a5,1
     852:	c91c                	sw	a5,16(a0)
     854:	4548                	lw	a0,12(a0)
     856:	8241a903          	lw	s2,-2012(gp) # 200000a4 <FatFs>
     85a:	e901                	bnez	a0,86a <dir_next+0x3a>
     85c:	00495783          	lhu	a5,4(s2)
     860:	fcf4ffe3          	bgeu	s1,a5,83e <dir_next+0xe>
     864:	a006                	sh	s1,0(s0)
     866:	4781                	li	a5,0
     868:	bfe1                	j	840 <dir_next+0x10>
     86a:	00294783          	lbu	a5,2(s2)
     86e:	0044d713          	srli	a4,s1,0x4
     872:	17fd                	addi	a5,a5,-1
     874:	8ff9                	and	a5,a5,a4
     876:	f7fd                	bnez	a5,864 <dir_next+0x34>
     878:	37b9                	jal	7c6 <get_fat>
     87a:	4685                	li	a3,1
     87c:	4785                	li	a5,1
     87e:	fca6f1e3          	bgeu	a3,a0,840 <dir_next+0x10>
     882:	00892783          	lw	a5,8(s2)
     886:	faf57ce3          	bgeu	a0,a5,83e <dir_next+0xe>
     88a:	c448                	sw	a0,12(s0)
     88c:	3d4d                	jal	73e <clust2sect>
     88e:	c808                	sw	a0,16(s0)
     890:	bfd1                	j	864 <dir_next+0x34>

00000892 <check_fs>:
     892:	95fff2ef          	jal	t0,1f0 <__riscv_save_0>
     896:	4689                	li	a3,2
     898:	1fe00613          	li	a2,510
     89c:	842a                	mv	s0,a0
     89e:	84ae                	mv	s1,a1
     8a0:	3bf5                	jal	69c <disk_readp>
     8a2:	478d                	li	a5,3
     8a4:	e525                	bnez	a0,90c <check_fs+0x7a>
     8a6:	3018                	lbu	a4,1(s0)
     8a8:	201c                	lbu	a5,0(s0)
     8aa:	76ed                	lui	a3,0xffffb
     8ac:	0722                	slli	a4,a4,0x8
     8ae:	8f5d                	or	a4,a4,a5
     8b0:	0742                	slli	a4,a4,0x10
     8b2:	8741                	srai	a4,a4,0x10
     8b4:	a5568693          	addi	a3,a3,-1451 # ffffaa55 <_eusrstack+0xdfff2a55>
     8b8:	4789                	li	a5,2
     8ba:	04d71963          	bne	a4,a3,90c <check_fs+0x7a>
     8be:	4689                	li	a3,2
     8c0:	03600613          	li	a2,54
     8c4:	85a6                	mv	a1,s1
     8c6:	8522                	mv	a0,s0
     8c8:	3bd1                	jal	69c <disk_readp>
     8ca:	ed09                	bnez	a0,8e4 <check_fs+0x52>
     8cc:	3018                	lbu	a4,1(s0)
     8ce:	201c                	lbu	a5,0(s0)
     8d0:	6691                	lui	a3,0x4
     8d2:	0722                	slli	a4,a4,0x8
     8d4:	8f5d                	or	a4,a4,a5
     8d6:	0742                	slli	a4,a4,0x10
     8d8:	8741                	srai	a4,a4,0x10
     8da:	14668693          	addi	a3,a3,326 # 4146 <TIM_Cmd>
     8de:	4781                	li	a5,0
     8e0:	02d70663          	beq	a4,a3,90c <check_fs+0x7a>
     8e4:	4689                	li	a3,2
     8e6:	05200613          	li	a2,82
     8ea:	85a6                	mv	a1,s1
     8ec:	8522                	mv	a0,s0
     8ee:	337d                	jal	69c <disk_readp>
     8f0:	4785                	li	a5,1
     8f2:	ed09                	bnez	a0,90c <check_fs+0x7a>
     8f4:	301c                	lbu	a5,1(s0)
     8f6:	2018                	lbu	a4,0(s0)
     8f8:	07a2                	slli	a5,a5,0x8
     8fa:	8fd9                	or	a5,a5,a4
     8fc:	07c2                	slli	a5,a5,0x10
     8fe:	7771                	lui	a4,0xffffc
     900:	87c1                	srai	a5,a5,0x10
     902:	eba70713          	addi	a4,a4,-326 # ffffbeba <_eusrstack+0xdfff3eba>
     906:	97ba                	add	a5,a5,a4
     908:	00f037b3          	snez	a5,a5
     90c:	853e                	mv	a0,a5
     90e:	907ff06f          	j	214 <__riscv_restore_0>

00000912 <follow_path>:
     912:	8c5ff2ef          	jal	t0,1d6 <__riscv_save_4>
     916:	842a                	mv	s0,a0
     918:	89ae                	mv	s3,a1
     91a:	84b2                	mv	s1,a2
     91c:	02000713          	li	a4,32
     920:	00048783          	lb	a5,0(s1)
     924:	08e78e63          	beq	a5,a4,9c0 <follow_path+0xae>
     928:	02f00713          	li	a4,47
     92c:	00e79363          	bne	a5,a4,932 <follow_path+0x20>
     930:	0485                	addi	s1,s1,1
     932:	00042423          	sw	zero,8(s0)
     936:	2098                	lbu	a4,0(s1)
     938:	47fd                	li	a5,31
     93a:	08e7f563          	bgeu	a5,a4,9c4 <follow_path+0xb2>
     93e:	6a15                	lui	s4,0x5
     940:	4b21                	li	s6,8
     942:	4aad                	li	s5,11
     944:	6dca0a13          	addi	s4,s4,1756 # 56dc <cvt.1731>
     948:	4050                	lw	a2,4(s0)
     94a:	02000693          	li	a3,32
     94e:	00b60713          	addi	a4,a2,11
     952:	87b2                	mv	a5,a2
     954:	08f71063          	bne	a4,a5,9d4 <follow_path+0xc2>
     958:	4681                	li	a3,0
     95a:	4781                	li	a5,0
     95c:	4721                	li	a4,8
     95e:	02000813          	li	a6,32
     962:	02f00893          	li	a7,47
     966:	02e00313          	li	t1,46
     96a:	4e65                	li	t3,25
     96c:	00178593          	addi	a1,a5,1 # 2000001 <_data_lma+0x1ff88ad>
     970:	97a6                	add	a5,a5,s1
     972:	00078503          	lb	a0,0(a5)
     976:	0ff5f593          	andi	a1,a1,255
     97a:	0ff57793          	andi	a5,a0,255
     97e:	04f87f63          	bgeu	a6,a5,9dc <follow_path+0xca>
     982:	05178d63          	beq	a5,a7,9dc <follow_path+0xca>
     986:	0c678363          	beq	a5,t1,a4c <follow_path+0x13a>
     98a:	04e6f963          	bgeu	a3,a4,9dc <follow_path+0xca>
     98e:	00055563          	bgez	a0,998 <follow_path+0x86>
     992:	97d2                	add	a5,a5,s4
     994:	f807c783          	lbu	a5,-128(a5)
     998:	f9f78513          	addi	a0,a5,-97
     99c:	0ff57513          	andi	a0,a0,255
     9a0:	00ae6563          	bltu	t3,a0,9aa <follow_path+0x98>
     9a4:	1781                	addi	a5,a5,-32
     9a6:	0ff7f793          	andi	a5,a5,255
     9aa:	00168e93          	addi	t4,a3,1
     9ae:	96b2                	add	a3,a3,a2
     9b0:	853a                	mv	a0,a4
     9b2:	a29c                	sb	a5,0(a3)
     9b4:	0ffef713          	andi	a4,t4,255
     9b8:	86ba                	mv	a3,a4
     9ba:	87ae                	mv	a5,a1
     9bc:	872a                	mv	a4,a0
     9be:	b77d                	j	96c <follow_path+0x5a>
     9c0:	0485                	addi	s1,s1,1
     9c2:	bfb9                	j	920 <follow_path+0xe>
     9c4:	8522                	mv	a0,s0
     9c6:	3b75                	jal	782 <dir_rewind>
     9c8:	892a                	mv	s2,a0
     9ca:	00098023          	sb	zero,0(s3)
     9ce:	854a                	mv	a0,s2
     9d0:	83bff06f          	j	20a <__riscv_restore_4>
     9d4:	0785                	addi	a5,a5,1
     9d6:	fed78fa3          	sb	a3,-1(a5)
     9da:	bfad                	j	954 <follow_path+0x42>
     9dc:	0217b793          	sltiu	a5,a5,33
     9e0:	b63c                	sb	a5,11(a2)
     9e2:	8522                	mv	a0,s0
     9e4:	94ae                	add	s1,s1,a1
     9e6:	3b71                	jal	782 <dir_rewind>
     9e8:	892a                	mv	s2,a0
     9ea:	f175                	bnez	a0,9ce <follow_path+0xbc>
     9ec:	2012                	lhu	a2,0(s0)
     9ee:	480c                	lw	a1,16(s0)
     9f0:	02000693          	li	a3,32
     9f4:	8a3d                	andi	a2,a2,15
     9f6:	0616                	slli	a2,a2,0x5
     9f8:	854e                	mv	a0,s3
     9fa:	314d                	jal	69c <disk_readp>
     9fc:	e521                	bnez	a0,a44 <follow_path+0x132>
     9fe:	0009c783          	lbu	a5,0(s3)
     a02:	c3b9                	beqz	a5,a48 <follow_path+0x136>
     a04:	00b9c703          	lbu	a4,11(s3)
     a08:	00877793          	andi	a5,a4,8
     a0c:	ef89                	bnez	a5,a26 <follow_path+0x114>
     a0e:	4054                	lw	a3,4(s0)
     a10:	00f98633          	add	a2,s3,a5
     a14:	0785                	addi	a5,a5,1
     a16:	00f685b3          	add	a1,a3,a5
     a1a:	00060603          	lb	a2,0(a2)
     a1e:	fff58583          	lb	a1,-1(a1) # fff <__stack_size+0x3>
     a22:	00c58763          	beq	a1,a2,a30 <follow_path+0x11e>
     a26:	8522                	mv	a0,s0
     a28:	3521                	jal	830 <dir_next>
     a2a:	d169                	beqz	a0,9ec <follow_path+0xda>
     a2c:	892a                	mv	s2,a0
     a2e:	b745                	j	9ce <follow_path+0xbc>
     a30:	ff5790e3          	bne	a5,s5,a10 <follow_path+0xfe>
     a34:	36bc                	lbu	a5,11(a3)
     a36:	ffc1                	bnez	a5,9ce <follow_path+0xbc>
     a38:	8b41                	andi	a4,a4,16
     a3a:	c719                	beqz	a4,a48 <follow_path+0x136>
     a3c:	854e                	mv	a0,s3
     a3e:	3b39                	jal	75c <get_clust>
     a40:	c408                	sw	a0,8(s0)
     a42:	b719                	j	948 <follow_path+0x36>
     a44:	4905                	li	s2,1
     a46:	b761                	j	9ce <follow_path+0xbc>
     a48:	490d                	li	s2,3
     a4a:	b751                	j	9ce <follow_path+0xbc>
     a4c:	f96718e3          	bne	a4,s6,9dc <follow_path+0xca>
     a50:	452d                	li	a0,11
     a52:	b79d                	j	9b8 <follow_path+0xa6>

00000a54 <pf_mount>:
     a54:	f82ff2ef          	jal	t0,1d6 <__riscv_save_4>
     a58:	7179                	addi	sp,sp,-48
     a5a:	84aa                	mv	s1,a0
     a5c:	8201a223          	sw	zero,-2012(gp) # 200000a4 <FatFs>
     a60:	3e2d                	jal	59a <disk_initialize>
     a62:	8905                	andi	a0,a0,1
     a64:	0e051363          	bnez	a0,b4a <pf_mount+0xf6>
     a68:	4581                	li	a1,0
     a6a:	0068                	addi	a0,sp,12
     a6c:	351d                	jal	892 <check_fs>
     a6e:	4785                	li	a5,1
     a70:	82418913          	addi	s2,gp,-2012 # 200000a4 <FatFs>
     a74:	4a01                	li	s4,0
     a76:	02f51863          	bne	a0,a5,aa6 <pf_mount+0x52>
     a7a:	46c1                	li	a3,16
     a7c:	1be00613          	li	a2,446
     a80:	4581                	li	a1,0
     a82:	0068                	addi	a0,sp,12
     a84:	3921                	jal	69c <disk_readp>
     a86:	c509                	beqz	a0,a90 <pf_mount+0x3c>
     a88:	4505                	li	a0,1
     a8a:	6145                	addi	sp,sp,48
     a8c:	f7eff06f          	j	20a <__riscv_restore_4>
     a90:	01014783          	lbu	a5,16(sp)
     a94:	e399                	bnez	a5,a9a <pf_mount+0x46>
     a96:	4519                	li	a0,6
     a98:	bfcd                	j	a8a <pf_mount+0x36>
     a9a:	0848                	addi	a0,sp,20
     a9c:	3171                	jal	728 <ld_dword>
     a9e:	8a2a                	mv	s4,a0
     aa0:	85aa                	mv	a1,a0
     aa2:	0068                	addi	a0,sp,12
     aa4:	33fd                	jal	892 <check_fs>
     aa6:	478d                	li	a5,3
     aa8:	fef500e3          	beq	a0,a5,a88 <pf_mount+0x34>
     aac:	f56d                	bnez	a0,a96 <pf_mount+0x42>
     aae:	02400693          	li	a3,36
     ab2:	4635                	li	a2,13
     ab4:	85d2                	mv	a1,s4
     ab6:	0068                	addi	a0,sp,12
     ab8:	36d5                	jal	69c <disk_readp>
     aba:	f579                	bnez	a0,a88 <pf_mount+0x34>
     abc:	01614503          	lbu	a0,22(sp)
     ac0:	01514403          	lbu	s0,21(sp)
     ac4:	0522                	slli	a0,a0,0x8
     ac6:	8d41                	or	a0,a0,s0
     ac8:	e501                	bnez	a0,ad0 <pf_mount+0x7c>
     aca:	02310513          	addi	a0,sp,35
     ace:	39a9                	jal	728 <ld_dword>
     ad0:	8780                	lbu	s0,15(sp)
     ad2:	00e14983          	lbu	s3,14(sp)
     ad6:	01014783          	lbu	a5,16(sp)
     ada:	02a40ab3          	mul	s5,s0,a0
     ade:	8688                	lbu	a0,13(sp)
     ae0:	01114403          	lbu	s0,17(sp)
     ae4:	09a2                	slli	s3,s3,0x8
     ae6:	00a9e9b3          	or	s3,s3,a0
     aea:	0422                	slli	s0,s0,0x8
     aec:	01314503          	lbu	a0,19(sp)
     af0:	8c5d                	or	s0,s0,a5
     af2:	00c14b03          	lbu	s6,12(sp)
     af6:	01214783          	lbu	a5,18(sp)
     afa:	9a4e                	add	s4,s4,s3
     afc:	0522                	slli	a0,a0,0x8
     afe:	0144a623          	sw	s4,12(s1)
     b02:	01648123          	sb	s6,2(s1)
     b06:	a0c2                	sh	s0,4(s1)
     b08:	8d5d                	or	a0,a0,a5
     b0a:	e501                	bnez	a0,b12 <pf_mount+0xbe>
     b0c:	01f10513          	addi	a0,sp,31
     b10:	3921                	jal	728 <ld_dword>
     b12:	8011                	srli	s0,s0,0x4
     b14:	99a2                	add	s3,s3,s0
     b16:	015987b3          	add	a5,s3,s5
     b1a:	8d1d                	sub	a0,a0,a5
     b1c:	036557b3          	divu	a5,a0,s6
     b20:	757d                	lui	a0,0xfffff
     b22:	0529                	addi	a0,a0,10
     b24:	663d                	lui	a2,0xf
     b26:	6741                	lui	a4,0x10
     b28:	1679                	addi	a2,a2,-2
     b2a:	1759                	addi	a4,a4,-10
     b2c:	00278693          	addi	a3,a5,2
     b30:	c494                	sw	a3,8(s1)
     b32:	97aa                	add	a5,a5,a0
     b34:	00f67d63          	bgeu	a2,a5,b4e <pf_mount+0xfa>
     b38:	00d76d63          	bltu	a4,a3,b52 <pf_mount+0xfe>
     b3c:	bfa9                	j	a96 <pf_mount+0x42>
     b3e:	4789                	li	a5,2
     b40:	a09c                	sb	a5,0(s1)
     b42:	015a07b3          	add	a5,s4,s5
     b46:	c89c                	sw	a5,16(s1)
     b48:	a819                	j	b5e <pf_mount+0x10a>
     b4a:	4509                	li	a0,2
     b4c:	bf3d                	j	a8a <pf_mount+0x36>
     b4e:	fed778e3          	bgeu	a4,a3,b3e <pf_mount+0xea>
     b52:	478d                	li	a5,3
     b54:	a09c                	sb	a5,0(s1)
     b56:	02b10513          	addi	a0,sp,43
     b5a:	36f9                	jal	728 <ld_dword>
     b5c:	c888                	sw	a0,16(s1)
     b5e:	9452                	add	s0,s0,s4
     b60:	9456                	add	s0,s0,s5
     b62:	c8c0                	sw	s0,20(s1)
     b64:	000480a3          	sb	zero,1(s1)
     b68:	00992023          	sw	s1,0(s2)
     b6c:	4501                	li	a0,0
     b6e:	bf31                	j	a8a <pf_mount+0x36>

00000b70 <pf_open>:
     b70:	e80ff2ef          	jal	t0,1f0 <__riscv_save_0>
     b74:	8241a403          	lw	s0,-2012(gp) # 200000a4 <FatFs>
     b78:	7139                	addi	sp,sp,-64
     b7a:	4495                	li	s1,5
     b7c:	c81d                	beqz	s0,bb2 <pf_open+0x42>
     b7e:	862a                	mv	a2,a0
     b80:	000400a3          	sb	zero,1(s0)
     b84:	100c                	addi	a1,sp,32
     b86:	0068                	addi	a0,sp,12
     b88:	c80a                	sw	sp,16(sp)
     b8a:	3361                	jal	912 <follow_path>
     b8c:	84aa                	mv	s1,a0
     b8e:	e115                	bnez	a0,bb2 <pf_open+0x42>
     b90:	02014783          	lbu	a5,32(sp)
     b94:	c39d                	beqz	a5,bba <pf_open+0x4a>
     b96:	02b14783          	lbu	a5,43(sp)
     b9a:	8bc1                	andi	a5,a5,16
     b9c:	ef99                	bnez	a5,bba <pf_open+0x4a>
     b9e:	1008                	addi	a0,sp,32
     ba0:	3e75                	jal	75c <get_clust>
     ba2:	d008                	sw	a0,32(s0)
     ba4:	1868                	addi	a0,sp,60
     ba6:	3649                	jal	728 <ld_dword>
     ba8:	4785                	li	a5,1
     baa:	cc48                	sw	a0,28(s0)
     bac:	00042c23          	sw	zero,24(s0)
     bb0:	b01c                	sb	a5,1(s0)
     bb2:	8526                	mv	a0,s1
     bb4:	6121                	addi	sp,sp,64
     bb6:	e5eff06f          	j	214 <__riscv_restore_0>
     bba:	448d                	li	s1,3
     bbc:	bfdd                	j	bb2 <pf_open+0x42>

00000bbe <pf_read>:
     bbe:	e18ff2ef          	jal	t0,1d6 <__riscv_save_4>
     bc2:	8241a403          	lw	s0,-2012(gp) # 200000a4 <FatFs>
     bc6:	00062023          	sw	zero,0(a2) # f000 <_data_lma+0x78ac>
     bca:	c04d                	beqz	s0,c6c <pf_read+0xae>
     bcc:	301c                	lbu	a5,1(s0)
     bce:	89aa                	mv	s3,a0
     bd0:	4511                	li	a0,4
     bd2:	8b85                	andi	a5,a5,1
     bd4:	c7a1                	beqz	a5,c1c <pf_read+0x5e>
     bd6:	01c42903          	lw	s2,28(s0)
     bda:	4c1c                	lw	a5,24(s0)
     bdc:	8a32                	mv	s4,a2
     bde:	40f90933          	sub	s2,s2,a5
     be2:	0125f363          	bgeu	a1,s2,be8 <pf_read+0x2a>
     be6:	892e                	mv	s2,a1
     be8:	4a85                	li	s5,1
     bea:	20000b13          	li	s6,512
     bee:	00091463          	bnez	s2,bf6 <pf_read+0x38>
     bf2:	4501                	li	a0,0
     bf4:	a025                	j	c1c <pf_read+0x5e>
     bf6:	4c1c                	lw	a5,24(s0)
     bf8:	1ff7f713          	andi	a4,a5,511
     bfc:	eb1d                	bnez	a4,c32 <pf_read+0x74>
     bfe:	2024                	lbu	s1,2(s0)
     c00:	0097d513          	srli	a0,a5,0x9
     c04:	14fd                	addi	s1,s1,-1
     c06:	8ce9                	and	s1,s1,a0
     c08:	0ff4f493          	andi	s1,s1,255
     c0c:	ec91                	bnez	s1,c28 <pf_read+0x6a>
     c0e:	eb89                	bnez	a5,c20 <pf_read+0x62>
     c10:	5008                	lw	a0,32(s0)
     c12:	00aaea63          	bltu	s5,a0,c26 <pf_read+0x68>
     c16:	000400a3          	sb	zero,1(s0)
     c1a:	4505                	li	a0,1
     c1c:	deeff06f          	j	20a <__riscv_restore_4>
     c20:	5048                	lw	a0,36(s0)
     c22:	3655                	jal	7c6 <get_fat>
     c24:	b7fd                	j	c12 <pf_read+0x54>
     c26:	d048                	sw	a0,36(s0)
     c28:	5048                	lw	a0,36(s0)
     c2a:	3e11                	jal	73e <clust2sect>
     c2c:	d56d                	beqz	a0,c16 <pf_read+0x58>
     c2e:	94aa                	add	s1,s1,a0
     c30:	d404                	sw	s1,40(s0)
     c32:	4c10                	lw	a2,24(s0)
     c34:	84ca                	mv	s1,s2
     c36:	1ff67613          	andi	a2,a2,511
     c3a:	40cb07b3          	sub	a5,s6,a2
     c3e:	0127f363          	bgeu	a5,s2,c44 <pf_read+0x86>
     c42:	84be                	mv	s1,a5
     c44:	540c                	lw	a1,40(s0)
     c46:	86a6                	mv	a3,s1
     c48:	854e                	mv	a0,s3
     c4a:	a53ff0ef          	jal	ra,69c <disk_readp>
     c4e:	f561                	bnez	a0,c16 <pf_read+0x58>
     c50:	4c1c                	lw	a5,24(s0)
     c52:	40990933          	sub	s2,s2,s1
     c56:	97a6                	add	a5,a5,s1
     c58:	cc1c                	sw	a5,24(s0)
     c5a:	000a2783          	lw	a5,0(s4)
     c5e:	97a6                	add	a5,a5,s1
     c60:	00fa2023          	sw	a5,0(s4)
     c64:	f80985e3          	beqz	s3,bee <pf_read+0x30>
     c68:	99a6                	add	s3,s3,s1
     c6a:	b751                	j	bee <pf_read+0x30>
     c6c:	4515                	li	a0,5
     c6e:	b77d                	j	c1c <pf_read+0x5e>

00000c70 <pf_lseek>:
     c70:	d66ff2ef          	jal	t0,1d6 <__riscv_save_4>
     c74:	8241a403          	lw	s0,-2012(gp) # 200000a4 <FatFs>
     c78:	4795                	li	a5,5
     c7a:	cc39                	beqz	s0,cd8 <pf_lseek+0x68>
     c7c:	3018                	lbu	a4,1(s0)
     c7e:	4791                	li	a5,4
     c80:	8b05                	andi	a4,a4,1
     c82:	cb39                	beqz	a4,cd8 <pf_lseek+0x68>
     c84:	4c44                	lw	s1,28(s0)
     c86:	00957363          	bgeu	a0,s1,c8c <pf_lseek+0x1c>
     c8a:	84aa                	mv	s1,a0
     c8c:	4c18                	lw	a4,24(s0)
     c8e:	00042c23          	sw	zero,24(s0)
     c92:	4781                	li	a5,0
     c94:	c0b1                	beqz	s1,cd8 <pf_lseek+0x68>
     c96:	00244903          	lbu	s2,2(s0)
     c9a:	0926                	slli	s2,s2,0x9
     c9c:	c315                	beqz	a4,cc0 <pf_lseek+0x50>
     c9e:	177d                	addi	a4,a4,-1
     ca0:	fff48793          	addi	a5,s1,-1
     ca4:	0327d7b3          	divu	a5,a5,s2
     ca8:	032756b3          	divu	a3,a4,s2
     cac:	00d7ea63          	bltu	a5,a3,cc0 <pf_lseek+0x50>
     cb0:	412007b3          	neg	a5,s2
     cb4:	5048                	lw	a0,36(s0)
     cb6:	8f7d                	and	a4,a4,a5
     cb8:	cc18                	sw	a4,24(s0)
     cba:	8c99                	sub	s1,s1,a4
     cbc:	4985                	li	s3,1
     cbe:	a035                	j	cea <pf_lseek+0x7a>
     cc0:	5008                	lw	a0,32(s0)
     cc2:	d048                	sw	a0,36(s0)
     cc4:	bfe5                	j	cbc <pf_lseek+0x4c>
     cc6:	3601                	jal	7c6 <get_fat>
     cc8:	00a9f563          	bgeu	s3,a0,cd2 <pf_lseek+0x62>
     ccc:	441c                	lw	a5,8(s0)
     cce:	00f56863          	bltu	a0,a5,cde <pf_lseek+0x6e>
     cd2:	000400a3          	sb	zero,1(s0)
     cd6:	4785                	li	a5,1
     cd8:	853e                	mv	a0,a5
     cda:	d30ff06f          	j	20a <__riscv_restore_4>
     cde:	4c1c                	lw	a5,24(s0)
     ce0:	d048                	sw	a0,36(s0)
     ce2:	412484b3          	sub	s1,s1,s2
     ce6:	97ca                	add	a5,a5,s2
     ce8:	cc1c                	sw	a5,24(s0)
     cea:	fc996ee3          	bltu	s2,s1,cc6 <pf_lseek+0x56>
     cee:	4c1c                	lw	a5,24(s0)
     cf0:	94be                	add	s1,s1,a5
     cf2:	cc04                	sw	s1,24(s0)
     cf4:	a4bff0ef          	jal	ra,73e <clust2sect>
     cf8:	dd69                	beqz	a0,cd2 <pf_lseek+0x62>
     cfa:	203c                	lbu	a5,2(s0)
     cfc:	80a5                	srli	s1,s1,0x9
     cfe:	17fd                	addi	a5,a5,-1
     d00:	8cfd                	and	s1,s1,a5
     d02:	94aa                	add	s1,s1,a0
     d04:	d404                	sw	s1,40(s0)
     d06:	4781                	li	a5,0
     d08:	bfc1                	j	cd8 <pf_lseek+0x68>

00000d0a <pf_opendir>:
     d0a:	8241a783          	lw	a5,-2012(gp) # 200000a4 <FatFs>
     d0e:	cf8d                	beqz	a5,d48 <pf_opendir+0x3e>
     d10:	ce0ff2ef          	jal	t0,1f0 <__riscv_save_0>
     d14:	7179                	addi	sp,sp,-48
     d16:	005c                	addi	a5,sp,4
     d18:	862e                	mv	a2,a1
     d1a:	c15c                	sw	a5,4(a0)
     d1c:	080c                	addi	a1,sp,16
     d1e:	842a                	mv	s0,a0
     d20:	3ecd                	jal	912 <follow_path>
     d22:	e105                	bnez	a0,d42 <pf_opendir+0x38>
     d24:	01014783          	lbu	a5,16(sp)
     d28:	cb91                	beqz	a5,d3c <pf_opendir+0x32>
     d2a:	01b14783          	lbu	a5,27(sp)
     d2e:	450d                	li	a0,3
     d30:	8bc1                	andi	a5,a5,16
     d32:	cb81                	beqz	a5,d42 <pf_opendir+0x38>
     d34:	0808                	addi	a0,sp,16
     d36:	a27ff0ef          	jal	ra,75c <get_clust>
     d3a:	c408                	sw	a0,8(s0)
     d3c:	8522                	mv	a0,s0
     d3e:	a45ff0ef          	jal	ra,782 <dir_rewind>
     d42:	6145                	addi	sp,sp,48
     d44:	cd0ff06f          	j	214 <__riscv_restore_0>
     d48:	4515                	li	a0,5
     d4a:	8082                	ret

00000d4c <pf_readdir>:
     d4c:	8241a783          	lw	a5,-2012(gp) # 200000a4 <FatFs>
     d50:	12078263          	beqz	a5,e74 <pf_readdir+0x128>
     d54:	c82ff2ef          	jal	t0,1d6 <__riscv_save_4>
     d58:	7179                	addi	sp,sp,-48
     d5a:	005c                	addi	a5,sp,4
     d5c:	c15c                	sw	a5,4(a0)
     d5e:	84aa                	mv	s1,a0
     d60:	892e                	mv	s2,a1
     d62:	478d                	li	a5,3
     d64:	c595                	beqz	a1,d90 <pf_readdir+0x44>
     d66:	0e500413          	li	s0,229
     d6a:	02e00993          	li	s3,46
     d6e:	488c                	lw	a1,16(s1)
     d70:	e59d                	bnez	a1,d9e <pf_readdir+0x52>
     d72:	e3bd                	bnez	a5,dd8 <pf_readdir+0x8c>
     d74:	489c                	lw	a5,16(s1)
     d76:	00990413          	addi	s0,s2,9
     d7a:	e7bd                	bnez	a5,de8 <pf_readdir+0x9c>
     d7c:	00040023          	sb	zero,0(s0)
     d80:	8526                	mv	a0,s1
     d82:	347d                	jal	830 <dir_next>
     d84:	470d                	li	a4,3
     d86:	87aa                	mv	a5,a0
     d88:	00e51763          	bne	a0,a4,d96 <pf_readdir+0x4a>
     d8c:	4781                	li	a5,0
     d8e:	a021                	j	d96 <pf_readdir+0x4a>
     d90:	9f3ff0ef          	jal	ra,782 <dir_rewind>
     d94:	87aa                	mv	a5,a0
     d96:	853e                	mv	a0,a5
     d98:	6145                	addi	sp,sp,48
     d9a:	c70ff06f          	j	20a <__riscv_restore_4>
     d9e:	2092                	lhu	a2,0(s1)
     da0:	02000693          	li	a3,32
     da4:	0808                	addi	a0,sp,16
     da6:	8a3d                	andi	a2,a2,15
     da8:	0616                	slli	a2,a2,0x5
     daa:	8f3ff0ef          	jal	ra,69c <disk_readp>
     dae:	c509                	beqz	a0,db8 <pf_readdir+0x6c>
     db0:	0004a823          	sw	zero,16(s1)
     db4:	4785                	li	a5,1
     db6:	b7c5                	j	d96 <pf_readdir+0x4a>
     db8:	01014783          	lbu	a5,16(sp)
     dbc:	c785                	beqz	a5,de4 <pf_readdir+0x98>
     dbe:	00878863          	beq	a5,s0,dce <pf_readdir+0x82>
     dc2:	01378663          	beq	a5,s3,dce <pf_readdir+0x82>
     dc6:	01b14783          	lbu	a5,27(sp)
     dca:	8ba1                	andi	a5,a5,8
     dcc:	d7c5                	beqz	a5,d74 <pf_readdir+0x28>
     dce:	8526                	mv	a0,s1
     dd0:	a61ff0ef          	jal	ra,830 <dir_next>
     dd4:	87aa                	mv	a5,a0
     dd6:	dd41                	beqz	a0,d6e <pf_readdir+0x22>
     dd8:	0004a823          	sw	zero,16(s1)
     ddc:	470d                	li	a4,3
     dde:	fae79ce3          	bne	a5,a4,d96 <pf_readdir+0x4a>
     de2:	bf49                	j	d74 <pf_readdir+0x28>
     de4:	478d                	li	a5,3
     de6:	bfcd                	j	dd8 <pf_readdir+0x8c>
     de8:	0818                	addi	a4,sp,16
     dea:	01190693          	addi	a3,s2,17
     dee:	02000613          	li	a2,32
     df2:	4595                	li	a1,5
     df4:	231c                	lbu	a5,0(a4)
     df6:	00c78c63          	beq	a5,a2,e0e <pf_readdir+0xc2>
     dfa:	00b79463          	bne	a5,a1,e02 <pf_readdir+0xb6>
     dfe:	0e500793          	li	a5,229
     e02:	0405                	addi	s0,s0,1
     e04:	fef40fa3          	sb	a5,-1(s0)
     e08:	0705                	addi	a4,a4,1
     e0a:	fed415e3          	bne	s0,a3,df4 <pf_readdir+0xa8>
     e0e:	01814703          	lbu	a4,24(sp)
     e12:	02000793          	li	a5,32
     e16:	00f70b63          	beq	a4,a5,e2c <pf_readdir+0xe0>
     e1a:	b018                	sb	a4,1(s0)
     e1c:	01914703          	lbu	a4,25(sp)
     e20:	02e00693          	li	a3,46
     e24:	a014                	sb	a3,0(s0)
     e26:	02f71d63          	bne	a4,a5,e60 <pf_readdir+0x114>
     e2a:	0409                	addi	s0,s0,2
     e2c:	01b14783          	lbu	a5,27(sp)
     e30:	1068                	addi	a0,sp,44
     e32:	00f90423          	sb	a5,8(s2)
     e36:	8f3ff0ef          	jal	ra,728 <ld_dword>
     e3a:	02914783          	lbu	a5,41(sp)
     e3e:	02814703          	lbu	a4,40(sp)
     e42:	00a92023          	sw	a0,0(s2)
     e46:	07a2                	slli	a5,a5,0x8
     e48:	8fd9                	or	a5,a5,a4
     e4a:	00f91223          	sh	a5,4(s2)
     e4e:	02714783          	lbu	a5,39(sp)
     e52:	02614703          	lbu	a4,38(sp)
     e56:	07a2                	slli	a5,a5,0x8
     e58:	8fd9                	or	a5,a5,a4
     e5a:	00f91323          	sh	a5,6(s2)
     e5e:	bf39                	j	d7c <pf_readdir+0x30>
     e60:	a038                	sb	a4,2(s0)
     e62:	01a14703          	lbu	a4,26(sp)
     e66:	00f71463          	bne	a4,a5,e6e <pf_readdir+0x122>
     e6a:	040d                	addi	s0,s0,3
     e6c:	b7c1                	j	e2c <pf_readdir+0xe0>
     e6e:	b038                	sb	a4,3(s0)
     e70:	0411                	addi	s0,s0,4
     e72:	bf6d                	j	e2c <pf_readdir+0xe0>
     e74:	4795                	li	a5,5
     e76:	853e                	mv	a0,a5
     e78:	8082                	ret

00000e7a <Init_FIFO>:
     e7a:	c514                	sw	a3,8(a0)
     e7c:	02c686b3          	mul	a3,a3,a2
     e80:	cd4c                	sw	a1,28(a0)
     e82:	c950                	sw	a2,20(a0)
     e84:	00052023          	sw	zero,0(a0) # fffff000 <_eusrstack+0xdfff7000>
     e88:	00052223          	sw	zero,4(a0)
     e8c:	00052823          	sw	zero,16(a0)
     e90:	00052c23          	sw	zero,24(a0)
     e94:	c554                	sw	a3,12(a0)
     e96:	8082                	ret

00000e98 <n_sample_out_FIFO>:
     e98:	491c                	lw	a5,16(a0)
     e9a:	e791                	bnez	a5,ea6 <n_sample_out_FIFO+0xe>
     e9c:	451c                	lw	a5,8(a0)
     e9e:	4d08                	lw	a0,24(a0)
     ea0:	40a78533          	sub	a0,a5,a0
     ea4:	8082                	ret
     ea6:	4501                	li	a0,0
     ea8:	8082                	ret

00000eaa <put_sample_FIFO>:
     eaa:	491c                	lw	a5,16(a0)
     eac:	cb8d                	beqz	a5,ede <put_sample_FIFO+0x34>
     eae:	4d18                	lw	a4,24(a0)
     eb0:	451c                	lw	a5,8(a0)
     eb2:	00f71463          	bne	a4,a5,eba <put_sample_FIFO+0x10>
     eb6:	4785                	li	a5,1
     eb8:	c91c                	sw	a5,16(a0)
     eba:	8082                	ret
     ebc:	4114                	lw	a3,0(a0)
     ebe:	4d58                	lw	a4,28(a0)
     ec0:	00168613          	addi	a2,a3,1
     ec4:	c110                	sw	a2,0(a0)
     ec6:	00f58633          	add	a2,a1,a5
     eca:	2210                	lbu	a2,0(a2)
     ecc:	9736                	add	a4,a4,a3
     ece:	a310                	sb	a2,0(a4)
     ed0:	4114                	lw	a3,0(a0)
     ed2:	4558                	lw	a4,12(a0)
     ed4:	00e69463          	bne	a3,a4,edc <put_sample_FIFO+0x32>
     ed8:	00052023          	sw	zero,0(a0)
     edc:	0785                	addi	a5,a5,1
     ede:	4958                	lw	a4,20(a0)
     ee0:	fce7cee3          	blt	a5,a4,ebc <put_sample_FIFO+0x12>
     ee4:	4d1c                	lw	a5,24(a0)
     ee6:	0785                	addi	a5,a5,1
     ee8:	cd1c                	sw	a5,24(a0)
     eea:	b7d1                	j	eae <put_sample_FIFO+0x4>

00000eec <get_sample_FIFO>:
     eec:	4d18                	lw	a4,24(a0)
     eee:	4781                	li	a5,0
     ef0:	02e04463          	bgtz	a4,f18 <get_sample_FIFO+0x2c>
     ef4:	8082                	ret
     ef6:	4154                	lw	a3,4(a0)
     ef8:	4d58                	lw	a4,28(a0)
     efa:	00168613          	addi	a2,a3,1
     efe:	c150                	sw	a2,4(a0)
     f00:	9736                	add	a4,a4,a3
     f02:	2314                	lbu	a3,0(a4)
     f04:	00f58733          	add	a4,a1,a5
     f08:	a314                	sb	a3,0(a4)
     f0a:	4154                	lw	a3,4(a0)
     f0c:	4558                	lw	a4,12(a0)
     f0e:	00e69463          	bne	a3,a4,f16 <get_sample_FIFO+0x2a>
     f12:	00052223          	sw	zero,4(a0)
     f16:	0785                	addi	a5,a5,1
     f18:	4958                	lw	a4,20(a0)
     f1a:	fce7cee3          	blt	a5,a4,ef6 <get_sample_FIFO+0xa>
     f1e:	4d1c                	lw	a5,24(a0)
     f20:	00052823          	sw	zero,16(a0)
     f24:	17fd                	addi	a5,a5,-1
     f26:	cd1c                	sw	a5,24(a0)
     f28:	8082                	ret

00000f2a <NMI_Handler>:
     f2a:	a001                	j	f2a <NMI_Handler>

00000f2c <HardFault_Handler>:
     f2c:	beef07b7          	lui	a5,0xbeef0
     f30:	e000e737          	lui	a4,0xe000e
     f34:	08078793          	addi	a5,a5,128 # beef0080 <_eusrstack+0x9eee8080>
     f38:	c73c                	sw	a5,72(a4)
     f3a:	a001                	j	f3a <HardFault_Handler+0xe>

00000f3c <get_bits>:
     f3c:	4154                	lw	a3,4(a0)
     f3e:	4510                	lw	a2,8(a0)
     f40:	4118                	lw	a4,0(a0)
     f42:	00b687b3          	add	a5,a3,a1
     f46:	c15c                	sw	a5,4(a0)
     f48:	04f64263          	blt	a2,a5,f8c <get_bits+0x50>
     f4c:	0076f613          	andi	a2,a3,7
     f50:	868d                	srai	a3,a3,0x3
     f52:	9736                	add	a4,a4,a3
     f54:	231c                	lbu	a5,0(a4)
     f56:	0ff00513          	li	a0,255
     f5a:	40c55533          	sra	a0,a0,a2
     f5e:	8fe9                	and	a5,a5,a0
     f60:	95b2                	add	a1,a1,a2
     f62:	0705                	addi	a4,a4,1
     f64:	4501                	li	a0,0
     f66:	ff858693          	addi	a3,a1,-8
     f6a:	00d04963          	bgtz	a3,f7c <get_bits+0x40>
     f6e:	4721                	li	a4,8
     f70:	40b705b3          	sub	a1,a4,a1
     f74:	00b7d7b3          	srl	a5,a5,a1
     f78:	8d5d                	or	a0,a0,a5
     f7a:	8082                	ret
     f7c:	00d797b3          	sll	a5,a5,a3
     f80:	8d5d                	or	a0,a0,a5
     f82:	0705                	addi	a4,a4,1
     f84:	fff74783          	lbu	a5,-1(a4) # e000dfff <_eusrstack+0xc0005fff>
     f88:	85b6                	mv	a1,a3
     f8a:	bff1                	j	f66 <get_bits+0x2a>
     f8c:	4501                	li	a0,0
     f8e:	8082                	ret

00000f90 <hdr_valid>:
     f90:	2114                	lbu	a3,0(a0)
     f92:	0ff00713          	li	a4,255
     f96:	87aa                	mv	a5,a0
     f98:	4501                	li	a0,0
     f9a:	04e69163          	bne	a3,a4,fdc <hdr_valid+0x4c>
     f9e:	3398                	lbu	a4,1(a5)
     fa0:	0f000693          	li	a3,240
     fa4:	0f077613          	andi	a2,a4,240
     fa8:	00d60963          	beq	a2,a3,fba <hdr_valid+0x2a>
     fac:	0fe77693          	andi	a3,a4,254
     fb0:	0e200613          	li	a2,226
     fb4:	4501                	li	a0,0
     fb6:	02c69363          	bne	a3,a2,fdc <hdr_valid+0x4c>
     fba:	8305                	srli	a4,a4,0x1
     fbc:	8b0d                	andi	a4,a4,3
     fbe:	4501                	li	a0,0
     fc0:	cf11                	beqz	a4,fdc <hdr_valid+0x4c>
     fc2:	23bc                	lbu	a5,2(a5)
     fc4:	473d                	li	a4,15
     fc6:	0047d693          	srli	a3,a5,0x4
     fca:	00e68963          	beq	a3,a4,fdc <hdr_valid+0x4c>
     fce:	0027d513          	srli	a0,a5,0x2
     fd2:	890d                	andi	a0,a0,3
     fd4:	1575                	addi	a0,a0,-3
     fd6:	00a03533          	snez	a0,a0
     fda:	8082                	ret
     fdc:	8082                	ret

00000fde <hdr_compare>:
     fde:	a12ff2ef          	jal	t0,1f0 <__riscv_save_0>
     fe2:	1141                	addi	sp,sp,-16
     fe4:	842a                	mv	s0,a0
     fe6:	852e                	mv	a0,a1
     fe8:	c62e                	sw	a1,12(sp)
     fea:	375d                	jal	f90 <hdr_valid>
     fec:	c915                	beqz	a0,1020 <__stack_size+0x24>
     fee:	45b2                	lw	a1,12(sp)
     ff0:	3018                	lbu	a4,1(s0)
     ff2:	4501                	li	a0,0
     ff4:	319c                	lbu	a5,1(a1)
     ff6:	8f3d                	xor	a4,a4,a5
     ff8:	0fe77713          	andi	a4,a4,254
     ffc:	e315                	bnez	a4,1020 <__stack_size+0x24>
     ffe:	203c                	lbu	a5,2(s0)
    1000:	21b8                	lbu	a4,2(a1)
    1002:	00e7c6b3          	xor	a3,a5,a4
    1006:	8ab1                	andi	a3,a3,12
    1008:	ee81                	bnez	a3,1020 <__stack_size+0x24>
    100a:	0f07f513          	andi	a0,a5,240
    100e:	0f077713          	andi	a4,a4,240
    1012:	00a03533          	snez	a0,a0
    1016:	00173713          	seqz	a4,a4
    101a:	8d19                	sub	a0,a0,a4
    101c:	00a03533          	snez	a0,a0
    1020:	0141                	addi	sp,sp,16
    1022:	9f2ff06f          	j	214 <__riscv_restore_0>

00001026 <hdr_frame_samples>:
    1026:	311c                	lbu	a5,1(a0)
    1028:	4719                	li	a4,6
    102a:	0067f693          	andi	a3,a5,6
    102e:	00e68b63          	beq	a3,a4,1044 <hdr_frame_samples+0x1e>
    1032:	8bb9                	andi	a5,a5,14
    1034:	4709                	li	a4,2
    1036:	24000513          	li	a0,576
    103a:	00e78763          	beq	a5,a4,1048 <hdr_frame_samples+0x22>
    103e:	48000513          	li	a0,1152
    1042:	8082                	ret
    1044:	18000513          	li	a0,384
    1048:	8082                	ret

0000104a <L3_ldexp_q2>:
    104a:	6695                	lui	a3,0x5
    104c:	07800593          	li	a1,120
    1050:	40000637          	lui	a2,0x40000
    1054:	7bc68693          	addi	a3,a3,1980 # 57bc <g_expfrac.6455>
    1058:	872a                	mv	a4,a0
    105a:	00a5d463          	bge	a1,a0,1062 <L3_ldexp_q2+0x18>
    105e:	07800713          	li	a4,120
    1062:	40275793          	srai	a5,a4,0x2
    1066:	40f657b3          	sra	a5,a2,a5
    106a:	d007f7d3          	fcvt.s.w	fa5,a5
    106e:	00377793          	andi	a5,a4,3
    1072:	078a                	slli	a5,a5,0x2
    1074:	97b6                	add	a5,a5,a3
    1076:	6398                	flw	fa4,0(a5)
    1078:	8d19                	sub	a0,a0,a4
    107a:	10e7f7d3          	fmul.s	fa5,fa5,fa4
    107e:	10f57553          	fmul.s	fa0,fa0,fa5
    1082:	fca04be3          	bgtz	a0,1058 <L3_ldexp_q2+0xe>
    1086:	8082                	ret

00001088 <L3_midside_stereo>:
    1088:	058a                	slli	a1,a1,0x2
    108a:	6785                	lui	a5,0x1
    108c:	95aa                	add	a1,a1,a0
    108e:	90078793          	addi	a5,a5,-1792 # 900 <check_fs+0x6e>
    1092:	00f50733          	add	a4,a0,a5
    1096:	611c                	flw	fa5,0(a0)
    1098:	6318                	flw	fa4,0(a4)
    109a:	0511                	addi	a0,a0,4
    109c:	00e7f6d3          	fadd.s	fa3,fa5,fa4
    10a0:	08e7f7d3          	fsub.s	fa5,fa5,fa4
    10a4:	fed52e27          	fsw	fa3,-4(a0)
    10a8:	e31c                	fsw	fa5,0(a4)
    10aa:	fea594e3          	bne	a1,a0,1092 <L3_midside_stereo+0xa>
    10ae:	8082                	ret

000010b0 <L3_dct3_9>:
    10b0:	000057b7          	lui	a5,0x5
    10b4:	00852107          	flw	ft2,8(a0)
    10b8:	6908                	flw	fa0,16(a0)
    10ba:	6114                	flw	fa3,0(a0)
    10bc:	7118                	flw	fa4,32(a0)
    10be:	75c7a787          	flw	fa5,1884(a5) # 575c <cvt.1731+0x80>
    10c2:	6d0c                	flw	fa1,24(a0)
    10c4:	00e17653          	fadd.s	fa2,ft2,fa4
    10c8:	00a17053          	fadd.s	ft0,ft2,fa0
    10cc:	68f5f0c3          	fmadd.s	ft1,fa1,fa5,fa3
    10d0:	08b6f5d3          	fsub.s	fa1,fa3,fa1
    10d4:	08e576d3          	fsub.s	fa3,fa0,fa4
    10d8:	08277753          	fsub.s	fa4,fa4,ft2
    10dc:	000057b7          	lui	a5,0x5
    10e0:	7607a107          	flw	ft2,1888(a5) # 5760 <cvt.1731+0x84>
    10e4:	000057b7          	lui	a5,0x5
    10e8:	00a77753          	fadd.s	fa4,fa4,fa0
    10ec:	58f7754b          	fnmsub.s	fa0,fa4,fa5,fa1
    10f0:	00e5f753          	fadd.s	fa4,fa1,fa4
    10f4:	7647a787          	flw	fa5,1892(a5) # 5764 <cvt.1731+0x88>
    10f8:	000057b7          	lui	a5,0x5
    10fc:	082675cb          	fnmsub.s	fa1,fa2,ft2,ft1
    1100:	e918                	fsw	fa4,16(a0)
    1102:	7687a707          	flw	fa4,1896(a5) # 5768 <cvt.1731+0x8c>
    1106:	000057b7          	lui	a5,0x5
    110a:	58f6f5c3          	fmadd.s	fa1,fa3,fa5,fa1
    110e:	08e071cb          	fnmsub.s	ft3,ft0,fa4,ft1
    1112:	08e07743          	fmadd.s	fa4,ft0,fa4,ft1
    1116:	76c7a287          	flw	ft5,1900(a5) # 576c <cvt.1731+0x90>
    111a:	000057b7          	lui	a5,0x5
    111e:	7707a007          	flw	ft0,1904(a5) # 5770 <cvt.1731+0x94>
    1122:	18267643          	fmadd.s	fa2,fa2,ft2,ft3
    1126:	70f6f74b          	fnmsub.s	fa4,fa3,fa5,fa4
    112a:	01452187          	flw	ft3,20(a0)
    112e:	6d54                	flw	fa3,28(a0)
    1130:	615c                	flw	fa5,4(a0)
    1132:	000057b7          	lui	a5,0x5
    1136:	08d1f253          	fsub.s	ft4,ft3,fa3
    113a:	0037f153          	fadd.s	ft2,fa5,ft3
    113e:	00c52087          	flw	ft1,12(a0)
    1142:	10027253          	fmul.s	ft4,ft4,ft0
    1146:	00d7f053          	fadd.s	ft0,fa5,fa3
    114a:	0837f7d3          	fsub.s	fa5,fa5,ft3
    114e:	105172d3          	fmul.s	ft5,ft2,ft5
    1152:	08d7f7d3          	fsub.s	fa5,fa5,fa3
    1156:	7747a687          	flw	fa3,1908(a5) # 5774 <cvt.1731+0x98>
    115a:	000057b7          	lui	a5,0x5
    115e:	7787a307          	flw	ft6,1912(a5) # 5778 <cvt.1731+0x9c>
    1162:	20d0f14b          	fnmsub.s	ft2,ft1,fa3,ft4
    1166:	28d0f1cb          	fnmsub.s	ft3,ft1,fa3,ft5
    116a:	20d0f0c3          	fmadd.s	ft1,ft1,fa3,ft4
    116e:	08517153          	fsub.s	ft2,ft2,ft5
    1172:	186071cb          	fnmsub.s	ft3,ft0,ft6,ft3
    1176:	0860704b          	fnmsub.s	ft0,ft0,ft6,ft1
    117a:	082770d3          	fsub.s	ft1,fa4,ft2
    117e:	00277753          	fadd.s	fa4,fa4,ft2
    1182:	00152027          	fsw	ft1,0(a0)
    1186:	50d7f0c3          	fmadd.s	ft1,fa5,fa3,fa0
    118a:	50d7f7cb          	fnmsub.s	fa5,fa5,fa3,fa0
    118e:	f118                	fsw	fa4,32(a0)
    1190:	00152227          	fsw	ft1,4(a0)
    1194:	080670d3          	fsub.s	ft1,fa2,ft0
    1198:	00067653          	fadd.s	fa2,fa2,ft0
    119c:	ed5c                	fsw	fa5,28(a0)
    119e:	00152427          	fsw	ft1,8(a0)
    11a2:	0035f0d3          	fadd.s	ft1,fa1,ft3
    11a6:	0835f5d3          	fsub.s	fa1,fa1,ft3
    11aa:	ed10                	fsw	fa2,24(a0)
    11ac:	00152627          	fsw	ft1,12(a0)
    11b0:	e94c                	fsw	fa1,20(a0)
    11b2:	8082                	ret

000011b4 <L3_imdct36>:
    11b4:	814ff2ef          	jal	t0,1c8 <__riscv_save_10>
    11b8:	711d                	addi	sp,sp,-96
    11ba:	04450493          	addi	s1,a0,68
    11be:	4981                	li	s3,0
    11c0:	02400a93          	li	s5,36
    11c4:	6c19                	lui	s8,0x6
    11c6:	03598a33          	mul	s4,s3,s5
    11ca:	fbc48b93          	addi	s7,s1,-68
    11ce:	9a2e                	add	s4,s4,a1
    11d0:	00d9c563          	blt	s3,a3,11da <L3_imdct36+0x26>
    11d4:	6125                	addi	sp,sp,96
    11d6:	82aff06f          	j	200 <__riscv_restore_10>
    11da:	fbc4a787          	flw	fa5,-68(s1)
    11de:	1878                	addi	a4,sp,60
    11e0:	083c                	addi	a5,sp,24
    11e2:	20f797d3          	fneg.s	fa5,fa5
    11e6:	fc048413          	addi	s0,s1,-64
    11ea:	893a                	mv	s2,a4
    11ec:	ec3e                	fsw	fa5,24(sp)
    11ee:	609c                	flw	fa5,0(s1)
    11f0:	8b3e                	mv	s6,a5
    11f2:	fe3e                	fsw	fa5,60(sp)
    11f4:	6058                	flw	fa4,4(s0)
    11f6:	601c                	flw	fa5,0(s0)
    11f8:	0441                	addi	s0,s0,16
    11fa:	1761                	addi	a4,a4,-8
    11fc:	08e7f6d3          	fsub.s	fa3,fa5,fa4
    1200:	00e7f7d3          	fadd.s	fa5,fa5,fa4
    1204:	ff842707          	flw	fa4,-8(s0)
    1208:	07a1                	addi	a5,a5,8
    120a:	f714                	fsw	fa3,40(a4)
    120c:	fef7ae27          	fsw	fa5,-4(a5)
    1210:	ffc42787          	flw	fa5,-4(s0)
    1214:	08e7f6d3          	fsub.s	fa3,fa5,fa4
    1218:	00e7f7d3          	fadd.s	fa5,fa5,fa4
    121c:	f354                	fsw	fa3,36(a4)
    121e:	20f797d3          	fneg.s	fa5,fa5
    1222:	e39c                	fsw	fa5,0(a5)
    1224:	fc8498e3          	bne	s1,s0,11f4 <L3_imdct36+0x40>
    1228:	855a                	mv	a0,s6
    122a:	c636                	sw	a3,12(sp)
    122c:	c432                	sw	a2,8(sp)
    122e:	c22e                	sw	a1,4(sp)
    1230:	3541                	jal	10b0 <L3_dct3_9>
    1232:	854a                	mv	a0,s2
    1234:	3db5                	jal	10b0 <L3_dct3_9>
    1236:	6786                	flw	fa5,64(sp)
    1238:	4622                	lw	a2,8(sp)
    123a:	46b2                	lw	a3,12(sp)
    123c:	20f797d3          	fneg.s	fa5,fa5
    1240:	4592                	lw	a1,4(sp)
    1242:	f3cc0513          	addi	a0,s8,-196 # 5f3c <g_twid9.6700>
    1246:	e0be                	fsw	fa5,64(sp)
    1248:	67a6                	flw	fa5,72(sp)
    124a:	8732                	mv	a4,a2
    124c:	4781                	li	a5,0
    124e:	20f797d3          	fneg.s	fa5,fa5
    1252:	e4be                	fsw	fa5,72(sp)
    1254:	67c6                	flw	fa5,80(sp)
    1256:	20f797d3          	fneg.s	fa5,fa5
    125a:	e8be                	fsw	fa5,80(sp)
    125c:	67e6                	flw	fa5,88(sp)
    125e:	20f797d3          	fneg.s	fa5,fa5
    1262:	ecbe                	fsw	fa5,88(sp)
    1264:	00fb08b3          	add	a7,s6,a5
    1268:	0008a707          	flw	fa4,0(a7)
    126c:	00f908b3          	add	a7,s2,a5
    1270:	6110                	flw	fa2,0(a0)
    1272:	0008a507          	flw	fa0,0(a7)
    1276:	7154                	flw	fa3,36(a0)
    1278:	00fa0833          	add	a6,s4,a5
    127c:	10c577d3          	fmul.s	fa5,fa0,fa2
    1280:	00082587          	flw	fa1,0(a6)
    1284:	0511                	addi	a0,a0,4
    1286:	0711                	addi	a4,a4,4
    1288:	1471                	addi	s0,s0,-4
    128a:	78d777c3          	fmadd.s	fa5,fa4,fa3,fa5
    128e:	10a6f6d3          	fmul.s	fa3,fa3,fa0
    1292:	68c77747          	fmsub.s	fa4,fa4,fa2,fa3
    1296:	00e82027          	fsw	fa4,0(a6)
    129a:	7314                	flw	fa3,32(a4)
    129c:	ffc72707          	flw	fa4,-4(a4)
    12a0:	00fb8833          	add	a6,s7,a5
    12a4:	10d7f6d3          	fmul.s	fa3,fa5,fa3
    12a8:	0791                	addi	a5,a5,4
    12aa:	68b776c7          	fmsub.s	fa3,fa4,fa1,fa3
    12ae:	00d82027          	fsw	fa3,0(a6)
    12b2:	ffc72707          	flw	fa4,-4(a4)
    12b6:	10e7f7d3          	fmul.s	fa5,fa5,fa4
    12ba:	7318                	flw	fa4,32(a4)
    12bc:	78b777c3          	fmadd.s	fa5,fa4,fa1,fa5
    12c0:	e05c                	fsw	fa5,4(s0)
    12c2:	fb5791e3          	bne	a5,s5,1264 <L3_imdct36+0xb0>
    12c6:	0985                	addi	s3,s3,1
    12c8:	04848493          	addi	s1,s1,72
    12cc:	bded                	j	11c6 <L3_imdct36+0x12>

000012ce <mp3d_scale_pcm>:
    12ce:	000067b7          	lui	a5,0x6
    12d2:	4e07a787          	flw	fa5,1248(a5) # 64e0 <halfrate.6399+0x19c>
    12d6:	a0a787d3          	fle.s	a5,fa5,fa0
    12da:	eb8d                	bnez	a5,130c <mp3d_scale_pcm+0x3e>
    12dc:	000067b7          	lui	a5,0x6
    12e0:	4e47a787          	flw	fa5,1252(a5) # 64e4 <halfrate.6399+0x1a0>
    12e4:	7561                	lui	a0,0xffff8
    12e6:	a0f507d3          	fle.s	a5,fa0,fa5
    12ea:	e39d                	bnez	a5,1310 <mp3d_scale_pcm+0x42>
    12ec:	000057b7          	lui	a5,0x5
    12f0:	75c7a787          	flw	fa5,1884(a5) # 575c <cvt.1731+0x80>
    12f4:	00f57553          	fadd.s	fa0,fa0,fa5
    12f8:	c0051553          	fcvt.w.s	a0,fa0,rtz
    12fc:	0542                	slli	a0,a0,0x10
    12fe:	8541                	srai	a0,a0,0x10
    1300:	01f55793          	srli	a5,a0,0x1f
    1304:	8d1d                	sub	a0,a0,a5
    1306:	0542                	slli	a0,a0,0x10
    1308:	8541                	srai	a0,a0,0x10
    130a:	8082                	ret
    130c:	6521                	lui	a0,0x8
    130e:	157d                	addi	a0,a0,-1
    1310:	8082                	ret

00001312 <mp3d_synth_pair>:
    1312:	edffe2ef          	jal	t0,1f0 <__riscv_save_0>
    1316:	6405                	lui	s0,0x1
    1318:	9432                	add	s0,s0,a2
    131a:	6218                	flw	fa4,0(a2)
    131c:	e0042787          	flw	fa5,-512(s0) # e00 <pf_readdir+0xb4>
    1320:	d0042687          	flw	fa3,-768(s0)
    1324:	000067b7          	lui	a5,0x6
    1328:	08e7f7d3          	fsub.s	fa5,fa5,fa4
    132c:	10062707          	flw	fa4,256(a2) # 40000100 <_eusrstack+0x1fff8100>
    1330:	90042507          	flw	fa0,-1792(s0)
    1334:	1141                	addi	sp,sp,-16
    1336:	00d77753          	fadd.s	fa4,fa4,fa3
    133a:	4e87a687          	flw	fa3,1256(a5) # 64e8 <halfrate.6399+0x1a4>
    133e:	000067b7          	lui	a5,0x6
    1342:	84aa                	mv	s1,a0
    1344:	c62e                	sw	a1,12(sp)
    1346:	10d77753          	fmul.s	fa4,fa4,fa3
    134a:	4ec7a687          	flw	fa3,1260(a5) # 64ec <halfrate.6399+0x1a8>
    134e:	000067b7          	lui	a5,0x6
    1352:	c432                	sw	a2,8(sp)
    1354:	70d7f7c3          	fmadd.s	fa5,fa5,fa3,fa4
    1358:	20062707          	flw	fa4,512(a2)
    135c:	c0042687          	flw	fa3,-1024(s0)
    1360:	08e6f6d3          	fsub.s	fa3,fa3,fa4
    1364:	4f07a707          	flw	fa4,1264(a5) # 64f0 <halfrate.6399+0x1ac>
    1368:	000067b7          	lui	a5,0x6
    136c:	78e6f7c3          	fmadd.s	fa5,fa3,fa4,fa5
    1370:	30062687          	flw	fa3,768(a2)
    1374:	b0042707          	flw	fa4,-1280(s0)
    1378:	00e6f6d3          	fadd.s	fa3,fa3,fa4
    137c:	4f47a707          	flw	fa4,1268(a5) # 64f4 <halfrate.6399+0x1b0>
    1380:	000067b7          	lui	a5,0x6
    1384:	78e6f743          	fmadd.s	fa4,fa3,fa4,fa5
    1388:	40062787          	flw	fa5,1024(a2)
    138c:	a0042687          	flw	fa3,-1536(s0)
    1390:	08f6f6d3          	fsub.s	fa3,fa3,fa5
    1394:	4f87a787          	flw	fa5,1272(a5) # 64f8 <halfrate.6399+0x1b4>
    1398:	000067b7          	lui	a5,0x6
    139c:	70f6f7c3          	fmadd.s	fa5,fa3,fa5,fa4
    13a0:	50062707          	flw	fa4,1280(a2)
    13a4:	00a77753          	fadd.s	fa4,fa4,fa0
    13a8:	4fc7a507          	flw	fa0,1276(a5) # 64fc <halfrate.6399+0x1b8>
    13ac:	000067b7          	lui	a5,0x6
    13b0:	78a77743          	fmadd.s	fa4,fa4,fa0,fa5
    13b4:	60062507          	flw	fa0,1536(a2)
    13b8:	80042787          	flw	fa5,-2048(s0)
    13bc:	08a7f7d3          	fsub.s	fa5,fa5,fa0
    13c0:	5007a507          	flw	fa0,1280(a5) # 6500 <halfrate.6399+0x1bc>
    13c4:	000067b7          	lui	a5,0x6
    13c8:	70a7f7c3          	fmadd.s	fa5,fa5,fa0,fa4
    13cc:	70062507          	flw	fa0,1792(a2)
    13d0:	5047a707          	flw	fa4,1284(a5) # 6504 <halfrate.6399+0x1c0>
    13d4:	78e57543          	fmadd.s	fa0,fa0,fa4,fa5
    13d8:	3ddd                	jal	12ce <mp3d_scale_pcm>
    13da:	000067b7          	lui	a5,0x6
    13de:	c0842787          	flw	fa5,-1016(s0)
    13e2:	5087a507          	flw	fa0,1288(a5) # 6508 <halfrate.6399+0x1c4>
    13e6:	000067b7          	lui	a5,0x6
    13ea:	50c7a707          	flw	fa4,1292(a5) # 650c <halfrate.6399+0x1c8>
    13ee:	10a7f553          	fmul.s	fa0,fa5,fa0
    13f2:	e0842787          	flw	fa5,-504(s0)
    13f6:	000067b7          	lui	a5,0x6
    13fa:	a08a                	sh	a0,0(s1)
    13fc:	50e7f543          	fmadd.s	fa0,fa5,fa4,fa0
    1400:	a0842787          	flw	fa5,-1528(s0)
    1404:	5107a707          	flw	fa4,1296(a5) # 6510 <halfrate.6399+0x1cc>
    1408:	000067b7          	lui	a5,0x6
    140c:	50e7f543          	fmadd.s	fa0,fa5,fa4,fa0
    1410:	80842787          	flw	fa5,-2040(s0)
    1414:	5147a707          	flw	fa4,1300(a5) # 6514 <halfrate.6399+0x1d0>
    1418:	4622                	lw	a2,8(sp)
    141a:	000067b7          	lui	a5,0x6
    141e:	50e7f7c3          	fmadd.s	fa5,fa5,fa4,fa0
    1422:	60862507          	flw	fa0,1544(a2)
    1426:	5187a707          	flw	fa4,1304(a5) # 6518 <halfrate.6399+0x1d4>
    142a:	000067b7          	lui	a5,0x6
    142e:	45b2                	lw	a1,12(sp)
    1430:	78e577c3          	fmadd.s	fa5,fa0,fa4,fa5
    1434:	40862507          	flw	fa0,1032(a2)
    1438:	51c7a707          	flw	fa4,1308(a5) # 651c <halfrate.6399+0x1d8>
    143c:	000067b7          	lui	a5,0x6
    1440:	0596                	slli	a1,a1,0x5
    1442:	78e577c3          	fmadd.s	fa5,fa0,fa4,fa5
    1446:	20862507          	flw	fa0,520(a2)
    144a:	5207a707          	flw	fa4,1312(a5) # 6520 <halfrate.6399+0x1dc>
    144e:	000067b7          	lui	a5,0x6
    1452:	94ae                	add	s1,s1,a1
    1454:	78e57543          	fmadd.s	fa0,fa0,fa4,fa5
    1458:	6618                	flw	fa4,8(a2)
    145a:	5247a787          	flw	fa5,1316(a5) # 6524 <halfrate.6399+0x1e0>
    145e:	50f77543          	fmadd.s	fa0,fa4,fa5,fa0
    1462:	35b5                	jal	12ce <mp3d_scale_pcm>
    1464:	a08a                	sh	a0,0(s1)
    1466:	0141                	addi	sp,sp,16
    1468:	dadfe06f          	j	214 <__riscv_restore_0>

0000146c <hdr_padding>:
    146c:	213c                	lbu	a5,2(a0)
    146e:	8b89                	andi	a5,a5,2
    1470:	cb89                	beqz	a5,1482 <hdr_padding+0x16>
    1472:	311c                	lbu	a5,1(a0)
    1474:	4719                	li	a4,6
    1476:	4511                	li	a0,4
    1478:	8b99                	andi	a5,a5,6
    147a:	00e78563          	beq	a5,a4,1484 <hdr_padding+0x18>
    147e:	4505                	li	a0,1
    1480:	8082                	ret
    1482:	4501                	li	a0,0
    1484:	8082                	ret

00001486 <L3_imdct12>:
    1486:	791c                	flw	fa5,48(a0)
    1488:	02452087          	flw	ft1,36(a0) # 8024 <_data_lma+0x8d0>
    148c:	000057b7          	lui	a5,0x5
    1490:	00052107          	flw	ft2,0(a0)
    1494:	0017f5d3          	fadd.s	fa1,fa5,ft1
    1498:	75c7a607          	flw	fa2,1884(a5) # 575c <cvt.1731+0x80>
    149c:	6d14                	flw	fa3,24(a0)
    149e:	00c52007          	flw	ft0,12(a0)
    14a2:	1101                	addi	sp,sp,-32
    14a4:	10c5f74f          	fnmadd.s	fa4,fa1,fa2,ft2
    14a8:	0825f5d3          	fsub.s	fa1,fa1,ft2
    14ac:	0006f553          	fadd.s	fa0,fa3,ft0
    14b0:	000057b7          	lui	a5,0x5
    14b4:	0806f6d3          	fsub.s	fa3,fa3,ft0
    14b8:	0817f7d3          	fsub.s	fa5,fa5,ft1
    14bc:	e62e                	fsw	fa1,12(sp)
    14be:	7747a587          	flw	fa1,1908(a5) # 5774 <cvt.1731+0x98>
    14c2:	6719                	lui	a4,0x6
    14c4:	f2470693          	addi	a3,a4,-220 # 5f24 <g_twid3.6727>
    14c8:	70b57143          	fmadd.s	ft2,fa0,fa1,fa4
    14cc:	70b5754b          	fnmsub.s	fa0,fa0,fa1,fa4
    14d0:	7d58                	flw	fa4,60(a0)
    14d2:	f2470713          	addi	a4,a4,-220
    14d6:	01458513          	addi	a0,a1,20
    14da:	70c6f64b          	fnmsub.s	fa2,fa3,fa2,fa4
    14de:	00d77753          	fadd.s	fa4,fa4,fa3
    14e2:	e82a                	fsw	fa0,16(sp)
    14e4:	e40a                	fsw	ft2,8(sp)
    14e6:	4781                	li	a5,0
    14e8:	60b7f543          	fmadd.s	fa0,fa5,fa1,fa2
    14ec:	60b7f7cb          	fnmsub.s	fa5,fa5,fa1,fa2
    14f0:	20e71753          	fneg.s	fa4,fa4
    14f4:	48b1                	li	a7,12
    14f6:	ea2a                	fsw	fa0,20(sp)
    14f8:	ee3e                	fsw	fa5,28(sp)
    14fa:	ec3a                	fsw	fa4,24(sp)
    14fc:	00810313          	addi	t1,sp,8
    1500:	933e                	add	t1,t1,a5
    1502:	00032607          	flw	fa2,0(t1)
    1506:	01410313          	addi	t1,sp,20
    150a:	933e                	add	t1,t1,a5
    150c:	629c                	flw	fa5,0(a3)
    150e:	00032007          	flw	ft0,0(t1)
    1512:	66cc                	flw	fa1,12(a3)
    1514:	00f60833          	add	a6,a2,a5
    1518:	10f076d3          	fmul.s	fa3,ft0,fa5
    151c:	00082507          	flw	fa0,0(a6)
    1520:	0691                	addi	a3,a3,4
    1522:	1771                	addi	a4,a4,-4
    1524:	1571                	addi	a0,a0,-4
    1526:	68b676c3          	fmadd.s	fa3,fa2,fa1,fa3
    152a:	1005f5d3          	fmul.s	fa1,fa1,ft0
    152e:	58f67647          	fmsub.s	fa2,fa2,fa5,fa1
    1532:	00c82027          	fsw	fa2,0(a6)
    1536:	6f1c                	flw	fa5,24(a4)
    1538:	6758                	flw	fa4,12(a4)
    153a:	00f58833          	add	a6,a1,a5
    153e:	10d7f653          	fmul.s	fa2,fa5,fa3
    1542:	0791                	addi	a5,a5,4
    1544:	60a77647          	fmsub.s	fa2,fa4,fa0,fa2
    1548:	10d77753          	fmul.s	fa4,fa4,fa3
    154c:	00c82027          	fsw	fa2,0(a6)
    1550:	70a7f7c3          	fmadd.s	fa5,fa5,fa0,fa4
    1554:	e15c                	fsw	fa5,4(a0)
    1556:	fb1793e3          	bne	a5,a7,14fc <L3_imdct12+0x76>
    155a:	6105                	addi	sp,sp,32
    155c:	8082                	ret

0000155e <hdr_frame_bytes>:
    155e:	c93fe2ef          	jal	t0,1f0 <__riscv_save_0>
    1562:	1141                	addi	sp,sp,-16
    1564:	842a                	mv	s0,a0
    1566:	c62e                	sw	a1,12(sp)
    1568:	abfff0ef          	jal	ra,1026 <hdr_frame_samples>
    156c:	3014                	lbu	a3,1(s0)
    156e:	433d                	li	t1,15
    1570:	00244803          	lbu	a6,2(s0)
    1574:	0016d793          	srli	a5,a3,0x1
    1578:	8b8d                	andi	a5,a5,3
    157a:	0086f613          	andi	a2,a3,8
    157e:	17fd                	addi	a5,a5,-1
    1580:	00c03733          	snez	a4,a2
    1584:	026787b3          	mul	a5,a5,t1
    1588:	02d00313          	li	t1,45
    158c:	00485893          	srli	a7,a6,0x4
    1590:	00c87813          	andi	a6,a6,12
    1594:	00163613          	seqz	a2,a2
    1598:	45b2                	lw	a1,12(sp)
    159a:	02670733          	mul	a4,a4,t1
    159e:	97ba                	add	a5,a5,a4
    15a0:	6719                	lui	a4,0x6
    15a2:	34470713          	addi	a4,a4,836 # 6344 <halfrate.6399>
    15a6:	97ba                	add	a5,a5,a4
    15a8:	97c6                	add	a5,a5,a7
    15aa:	239c                	lbu	a5,0(a5)
    15ac:	6715                	lui	a4,0x5
    15ae:	7cc70713          	addi	a4,a4,1996 # 57cc <g_hz.6403>
    15b2:	0786                	slli	a5,a5,0x1
    15b4:	02a78533          	mul	a0,a5,a0
    15b8:	07d00793          	li	a5,125
    15bc:	9742                	add	a4,a4,a6
    15be:	02f50533          	mul	a0,a0,a5
    15c2:	431c                	lw	a5,0(a4)
    15c4:	0046d713          	srli	a4,a3,0x4
    15c8:	00174713          	xori	a4,a4,1
    15cc:	00c7d7b3          	srl	a5,a5,a2
    15d0:	8b05                	andi	a4,a4,1
    15d2:	00e7d7b3          	srl	a5,a5,a4
    15d6:	8a99                	andi	a3,a3,6
    15d8:	02f55533          	divu	a0,a0,a5
    15dc:	4799                	li	a5,6
    15de:	00f69363          	bne	a3,a5,15e4 <hdr_frame_bytes+0x86>
    15e2:	9971                	andi	a0,a0,-4
    15e4:	e111                	bnez	a0,15e8 <hdr_frame_bytes+0x8a>
    15e6:	852e                	mv	a0,a1
    15e8:	0141                	addi	sp,sp,16
    15ea:	c2bfe06f          	j	214 <__riscv_restore_0>

000015ee <mp3dec_decode_frame>:
    15ee:	bd3fe2ef          	jal	t0,1c0 <__riscv_save_12>
    15f2:	7371                	lui	t1,0xffffc
    15f4:	7115                	addi	sp,sp,-224
    15f6:	04030313          	addi	t1,t1,64 # ffffc040 <_eusrstack+0xdfff4040>
    15fa:	efa2                	fsw	fs0,220(sp)
    15fc:	eda6                	fsw	fs1,216(sp)
    15fe:	ebca                	fsw	fs2,212(sp)
    1600:	e9ce                	fsw	fs3,208(sp)
    1602:	e7d2                	fsw	fs4,204(sp)
    1604:	911a                	add	sp,sp,t1
    1606:	c22a                	sw	a0,4(sp)
    1608:	d236                	sw	a3,36(sp)
    160a:	c63a                	sw	a4,12(sp)
    160c:	4791                	li	a5,4
    160e:	89ae                	mv	s3,a1
    1610:	8932                	mv	s2,a2
    1612:	04c7da63          	bge	a5,a2,1666 <mp3dec_decode_frame+0x78>
    1616:	4792                	lw	a5,4(sp)
    1618:	6509                	lui	a0,0x2
    161a:	00a78433          	add	s0,a5,a0
    161e:	80844703          	lbu	a4,-2040(s0)
    1622:	0ff00793          	li	a5,255
    1626:	04f71063          	bne	a4,a5,1666 <mp3dec_decode_frame+0x78>
    162a:	4792                	lw	a5,4(sp)
    162c:	80850513          	addi	a0,a0,-2040 # 1808 <mp3dec_decode_frame+0x21a>
    1630:	953e                	add	a0,a0,a5
    1632:	9adff0ef          	jal	ra,fde <hdr_compare>
    1636:	c905                	beqz	a0,1666 <mp3dec_decode_frame+0x78>
    1638:	80442583          	lw	a1,-2044(s0)
    163c:	854e                	mv	a0,s3
    163e:	3705                	jal	155e <hdr_frame_bytes>
    1640:	8caa                	mv	s9,a0
    1642:	854e                	mv	a0,s3
    1644:	3525                	jal	146c <hdr_padding>
    1646:	9caa                	add	s9,s9,a0
    1648:	1d2c8a63          	beq	s9,s2,181c <mp3dec_decode_frame+0x22e>
    164c:	003c8793          	addi	a5,s9,3
    1650:	0127db63          	bge	a5,s2,1666 <mp3dec_decode_frame+0x78>
    1654:	019985b3          	add	a1,s3,s9
    1658:	854e                	mv	a0,s3
    165a:	985ff0ef          	jal	ra,fde <hdr_compare>
    165e:	c501                	beqz	a0,1666 <mp3dec_decode_frame+0x78>
    1660:	4d01                	li	s10,0
    1662:	0c0c9e63          	bnez	s9,173e <mp3dec_decode_frame+0x150>
    1666:	4512                	lw	a0,4(sp)
    1668:	6a09                	lui	s4,0x2
    166a:	a0ca0613          	addi	a2,s4,-1524 # 1a0c <mp3dec_decode_frame+0x41e>
    166e:	4581                	li	a1,0
    1670:	bb1fe0ef          	jal	ra,220 <memset>
    1674:	4792                	lw	a5,4(sp)
    1676:	6a85                	lui	s5,0x1
    1678:	4d01                	li	s10,0
    167a:	ffc90b13          	addi	s6,s2,-4
    167e:	9a3e                	add	s4,s4,a5
    1680:	900a8a93          	addi	s5,s5,-1792 # 900 <check_fs+0x6e>
    1684:	01a984b3          	add	s1,s3,s10
    1688:	016d4863          	blt	s10,s6,1698 <mp3dec_decode_frame+0xaa>
    168c:	8cca                	mv	s9,s2
    168e:	47b2                	lw	a5,12(sp)
    1690:	0197a023          	sw	s9,0(a5)
    1694:	4501                	li	a0,0
    1696:	aa8d                	j	1808 <mp3dec_decode_frame+0x21a>
    1698:	8526                	mv	a0,s1
    169a:	8f7ff0ef          	jal	ra,f90 <hdr_valid>
    169e:	c91d                	beqz	a0,16d4 <mp3dec_decode_frame+0xe6>
    16a0:	804a2583          	lw	a1,-2044(s4)
    16a4:	8526                	mv	a0,s1
    16a6:	4d91                	li	s11,4
    16a8:	3d5d                	jal	155e <hdr_frame_bytes>
    16aa:	842a                	mv	s0,a0
    16ac:	8526                	mv	a0,s1
    16ae:	3b7d                	jal	146c <hdr_padding>
    16b0:	00a40cb3          	add	s9,s0,a0
    16b4:	c019                	beqz	s0,16ba <mp3dec_decode_frame+0xcc>
    16b6:	28b0106f          	j	3140 <mp3dec_decode_frame+0x1b52>
    16ba:	015d8763          	beq	s11,s5,16c8 <mp3dec_decode_frame+0xda>
    16be:	001d9793          	slli	a5,s11,0x1
    16c2:	97ea                	add	a5,a5,s10
    16c4:	0167ca63          	blt	a5,s6,16d8 <mp3dec_decode_frame+0xea>
    16c8:	000d1463          	bnez	s10,16d0 <mp3dec_decode_frame+0xe2>
    16cc:	07990763          	beq	s2,s9,173a <mp3dec_decode_frame+0x14c>
    16d0:	800a2223          	sw	zero,-2044(s4)
    16d4:	0d05                	addi	s10,s10,1
    16d6:	b77d                	j	1684 <mp3dec_decode_frame+0x96>
    16d8:	01b48c33          	add	s8,s1,s11
    16dc:	85e2                	mv	a1,s8
    16de:	8526                	mv	a0,s1
    16e0:	8ffff0ef          	jal	ra,fde <hdr_compare>
    16e4:	c915                	beqz	a0,1718 <mp3dec_decode_frame+0x12a>
    16e6:	8526                	mv	a0,s1
    16e8:	3351                	jal	146c <hdr_padding>
    16ea:	40ad8433          	sub	s0,s11,a0
    16ee:	8562                	mv	a0,s8
    16f0:	3bb5                	jal	146c <hdr_padding>
    16f2:	00a405b3          	add	a1,s0,a0
    16f6:	01bd07b3          	add	a5,s10,s11
    16fa:	97ae                	add	a5,a5,a1
    16fc:	078d                	addi	a5,a5,3
    16fe:	4501                	li	a0,0
    1700:	0127dc63          	bge	a5,s2,1718 <mp3dec_decode_frame+0x12a>
    1704:	95ee                	add	a1,a1,s11
    1706:	95a6                	add	a1,a1,s1
    1708:	8526                	mv	a0,s1
    170a:	8d5ff0ef          	jal	ra,fde <hdr_compare>
    170e:	c509                	beqz	a0,1718 <mp3dec_decode_frame+0x12a>
    1710:	808a2223          	sw	s0,-2044(s4)
    1714:	8cee                	mv	s9,s11
    1716:	8522                	mv	a0,s0
    1718:	0d85                	addi	s11,s11,1
    171a:	842a                	mv	s0,a0
    171c:	bf61                	j	16b4 <mp3dec_decode_frame+0xc6>
    171e:	01b485b3          	add	a1,s1,s11
    1722:	8526                	mv	a0,s1
    1724:	8bbff0ef          	jal	ra,fde <hdr_compare>
    1728:	d145                	beqz	a0,16c8 <mp3dec_decode_frame+0xda>
    172a:	0b85                	addi	s7,s7,1
    172c:	47a9                	li	a5,10
    172e:	00fb8463          	beq	s7,a5,1736 <mp3dec_decode_frame+0x148>
    1732:	2230106f          	j	3154 <mp3dec_decode_frame+0x1b66>
    1736:	2510106f          	j	3186 <mp3dec_decode_frame+0x1b98>
    173a:	f40c8ae3          	beqz	s9,168e <mp3dec_decode_frame+0xa0>
    173e:	4712                	lw	a4,4(sp)
    1740:	01a987b3          	add	a5,s3,s10
    1744:	c43e                	sw	a5,8(sp)
    1746:	6789                	lui	a5,0x2
    1748:	80878793          	addi	a5,a5,-2040 # 1808 <mp3dec_decode_frame+0x21a>
    174c:	45a2                	lw	a1,8(sp)
    174e:	97ba                	add	a5,a5,a4
    1750:	853e                	mv	a0,a5
    1752:	4611                	li	a2,4
    1754:	d83e                	sw	a5,48(sp)
    1756:	42f020ef          	jal	ra,4384 <memcpy>
    175a:	4732                	lw	a4,12(sp)
    175c:	019d07b3          	add	a5,s10,s9
    1760:	0c000693          	li	a3,192
    1764:	c31c                	sw	a5,0(a4)
    1766:	47a2                	lw	a5,8(sp)
    1768:	01a72223          	sw	s10,4(a4)
    176c:	4705                	li	a4,1
    176e:	33bc                	lbu	a5,3(a5)
    1770:	0c07f793          	andi	a5,a5,192
    1774:	00d78363          	beq	a5,a3,177a <mp3dec_decode_frame+0x18c>
    1778:	4709                	li	a4,2
    177a:	47b2                	lw	a5,12(sp)
    177c:	c798                	sw	a4,8(a5)
    177e:	4722                	lw	a4,8(sp)
    1780:	47a2                	lw	a5,8(sp)
    1782:	2330                	lbu	a2,2(a4)
    1784:	339c                	lbu	a5,1(a5)
    1786:	00c67713          	andi	a4,a2,12
    178a:	6615                	lui	a2,0x5
    178c:	7cc60613          	addi	a2,a2,1996 # 57cc <g_hz.6403>
    1790:	963a                	add	a2,a2,a4
    1792:	0037d713          	srli	a4,a5,0x3
    1796:	00174713          	xori	a4,a4,1
    179a:	00177693          	andi	a3,a4,1
    179e:	4218                	lw	a4,0(a2)
    17a0:	8391                	srli	a5,a5,0x4
    17a2:	0017c793          	xori	a5,a5,1
    17a6:	00d75733          	srl	a4,a4,a3
    17aa:	8b85                	andi	a5,a5,1
    17ac:	00f757b3          	srl	a5,a4,a5
    17b0:	4732                	lw	a4,12(sp)
    17b2:	463d                	li	a2,15
    17b4:	46a2                	lw	a3,8(sp)
    17b6:	c75c                	sw	a5,12(a4)
    17b8:	47a2                	lw	a5,8(sp)
    17ba:	4711                	li	a4,4
    17bc:	339c                	lbu	a5,1(a5)
    17be:	8385                	srli	a5,a5,0x1
    17c0:	8b8d                	andi	a5,a5,3
    17c2:	40f707b3          	sub	a5,a4,a5
    17c6:	4732                	lw	a4,12(sp)
    17c8:	cb1c                	sw	a5,16(a4)
    17ca:	47a2                	lw	a5,8(sp)
    17cc:	22b4                	lbu	a3,2(a3)
    17ce:	3398                	lbu	a4,1(a5)
    17d0:	8291                	srli	a3,a3,0x4
    17d2:	00175793          	srli	a5,a4,0x1
    17d6:	8b8d                	andi	a5,a5,3
    17d8:	17fd                	addi	a5,a5,-1
    17da:	830d                	srli	a4,a4,0x3
    17dc:	02c787b3          	mul	a5,a5,a2
    17e0:	8b05                	andi	a4,a4,1
    17e2:	02d00613          	li	a2,45
    17e6:	02c70733          	mul	a4,a4,a2
    17ea:	97ba                	add	a5,a5,a4
    17ec:	6719                	lui	a4,0x6
    17ee:	34470713          	addi	a4,a4,836 # 6344 <halfrate.6399>
    17f2:	97ba                	add	a5,a5,a4
    17f4:	97b6                	add	a5,a5,a3
    17f6:	239c                	lbu	a5,0(a5)
    17f8:	4732                	lw	a4,12(sp)
    17fa:	0786                	slli	a5,a5,0x1
    17fc:	cb5c                	sw	a5,20(a4)
    17fe:	5792                	lw	a5,36(sp)
    1800:	e385                	bnez	a5,1820 <mp3dec_decode_frame+0x232>
    1802:	4522                	lw	a0,8(sp)
    1804:	823ff0ef          	jal	ra,1026 <hdr_frame_samples>
    1808:	6311                	lui	t1,0x4
    180a:	911a                	add	sp,sp,t1
    180c:	647a                	flw	fs0,156(sp)
    180e:	64ea                	flw	fs1,152(sp)
    1810:	695a                	flw	fs2,148(sp)
    1812:	69ca                	flw	fs3,144(sp)
    1814:	6a3a                	flw	fs4,140(sp)
    1816:	610d                	addi	sp,sp,160
    1818:	9e5fe06f          	j	1fc <__riscv_restore_12>
    181c:	4d01                	li	s10,0
    181e:	b705                	j	173e <mp3dec_decode_frame+0x150>
    1820:	47a2                	lw	a5,8(sp)
    1822:	1cf1                	addi	s9,s9,-4
    1824:	0c8e                	slli	s9,s9,0x3
    1826:	0791                	addi	a5,a5,4
    1828:	dcbe                	sw	a5,120(sp)
    182a:	47a2                	lw	a5,8(sp)
    182c:	de82                	sw	zero,124(sp)
    182e:	c166                	sw	s9,128(sp)
    1830:	339c                	lbu	a5,1(a5)
    1832:	7571                	lui	a0,0xffffc
    1834:	8b85                	andi	a5,a5,1
    1836:	eb91                	bnez	a5,184a <mp3dec_decode_frame+0x25c>
    1838:	6791                	lui	a5,0x4
    183a:	07c1                	addi	a5,a5,16
    183c:	1898                	addi	a4,sp,112
    183e:	1561                	addi	a0,a0,-8
    1840:	97ba                	add	a5,a5,a4
    1842:	45c1                	li	a1,16
    1844:	953e                	add	a0,a0,a5
    1846:	ef6ff0ef          	jal	ra,f3c <get_bits>
    184a:	47b2                	lw	a5,12(sp)
    184c:	4501                	li	a0,0
    184e:	4b9c                	lw	a5,16(a5)
    1850:	ca3e                	sw	a5,20(sp)
    1852:	4752                	lw	a4,20(sp)
    1854:	478d                	li	a5,3
    1856:	faf719e3          	bne	a4,a5,1808 <mp3dec_decode_frame+0x21a>
    185a:	47a2                	lw	a5,8(sp)
    185c:	0c000693          	li	a3,192
    1860:	4485                	li	s1,1
    1862:	339c                	lbu	a5,1(a5)
    1864:	0037d413          	srli	s0,a5,0x3
    1868:	0047d713          	srli	a4,a5,0x4
    186c:	8b05                	andi	a4,a4,1
    186e:	8805                	andi	s0,s0,1
    1870:	943a                	add	s0,s0,a4
    1872:	4752                	lw	a4,20(sp)
    1874:	02e40433          	mul	s0,s0,a4
    1878:	4722                	lw	a4,8(sp)
    187a:	2338                	lbu	a4,2(a4)
    187c:	8309                	srli	a4,a4,0x2
    187e:	8b0d                	andi	a4,a4,3
    1880:	943a                	add	s0,s0,a4
    1882:	00803733          	snez	a4,s0
    1886:	8c19                	sub	s0,s0,a4
    1888:	4722                	lw	a4,8(sp)
    188a:	3338                	lbu	a4,3(a4)
    188c:	0c077713          	andi	a4,a4,192
    1890:	00d70363          	beq	a4,a3,1896 <mp3dec_decode_frame+0x2a8>
    1894:	4489                	li	s1,2
    1896:	7571                	lui	a0,0xffffc
    1898:	8ba1                	andi	a5,a5,8
    189a:	1561                	addi	a0,a0,-8
    189c:	c7f9                	beqz	a5,196a <mp3dec_decode_frame+0x37c>
    189e:	6791                	lui	a5,0x4
    18a0:	1898                	addi	a4,sp,112
    18a2:	07c1                	addi	a5,a5,16
    18a4:	97ba                	add	a5,a5,a4
    18a6:	00a789b3          	add	s3,a5,a0
    18aa:	45a5                	li	a1,9
    18ac:	854e                	mv	a0,s3
    18ae:	e8eff0ef          	jal	ra,f3c <get_bits>
    18b2:	0486                	slli	s1,s1,0x1
    18b4:	892a                	mv	s2,a0
    18b6:	00748593          	addi	a1,s1,7
    18ba:	854e                	mv	a0,s3
    18bc:	e80ff0ef          	jal	ra,f3c <get_bits>
    18c0:	89aa                	mv	s3,a0
    18c2:	47dd                	li	a5,23
    18c4:	02f407b3          	mul	a5,s0,a5
    18c8:	6719                	lui	a4,0x6
    18ca:	b2870713          	addi	a4,a4,-1240 # 5b28 <g_scf_long.6420>
    18ce:	6691                	lui	a3,0x4
    18d0:	1890                	addi	a2,sp,112
    18d2:	6b85                	lui	s7,0x1
    18d4:	6b19                	lui	s6,0x6
    18d6:	be0b0b13          	addi	s6,s6,-1056 # 5be0 <g_scf_mixed.6422>
    18da:	7af1                	lui	s5,0xffffc
    18dc:	6c41                	lui	s8,0x10
    18de:	97ba                	add	a5,a5,a4
    18e0:	c83e                	sw	a5,16(sp)
    18e2:	02800793          	li	a5,40
    18e6:	02f40433          	mul	s0,s0,a5
    18ea:	6799                	lui	a5,0x6
    18ec:	d7478793          	addi	a5,a5,-652 # 5d74 <g_scf_short.6421>
    18f0:	01068713          	addi	a4,a3,16 # 4010 <SPI_Init+0x38>
    18f4:	9732                	add	a4,a4,a2
    18f6:	4a01                	li	s4,0
    18f8:	1c7d                	addi	s8,s8,-1
    18fa:	4dd9                	li	s11,22
    18fc:	97a2                	add	a5,a5,s0
    18fe:	cc3e                	sw	a5,24(sp)
    1900:	77f1                	lui	a5,0xffffc
    1902:	09478793          	addi	a5,a5,148 # ffffc094 <_eusrstack+0xdfff4094>
    1906:	97ba                	add	a5,a5,a4
    1908:	b0cb8713          	addi	a4,s7,-1268 # b0c <pf_mount+0xb8>
    190c:	00e78cb3          	add	s9,a5,a4
    1910:	01068793          	addi	a5,a3,16
    1914:	9b22                	add	s6,s6,s0
    1916:	97b2                	add	a5,a5,a2
    1918:	ff8a8413          	addi	s0,s5,-8 # ffffbff8 <_eusrstack+0xdfff3ff8>
    191c:	943e                	add	s0,s0,a5
    191e:	f0fb8b93          	addi	s7,s7,-241
    1922:	47a2                	lw	a5,8(sp)
    1924:	33b8                	lbu	a4,3(a5)
    1926:	0c000793          	li	a5,192
    192a:	0c077713          	andi	a4,a4,192
    192e:	00f71363          	bne	a4,a5,1934 <mp3dec_decode_frame+0x346>
    1932:	0992                	slli	s3,s3,0x4
    1934:	45b1                	li	a1,12
    1936:	8522                	mv	a0,s0
    1938:	e04ff0ef          	jal	ra,f3c <get_bits>
    193c:	00ac9223          	sh	a0,4(s9)
    1940:	01857533          	and	a0,a0,s8
    1944:	9a2a                	add	s4,s4,a0
    1946:	45a5                	li	a1,9
    1948:	8522                	mv	a0,s0
    194a:	df2ff0ef          	jal	ra,f3c <get_bits>
    194e:	0542                	slli	a0,a0,0x10
    1950:	8141                	srli	a0,a0,0x10
    1952:	00ac9323          	sh	a0,6(s9)
    1956:	12000793          	li	a5,288
    195a:	02a7f563          	bgeu	a5,a0,1984 <mp3dec_decode_frame+0x396>
    195e:	4712                	lw	a4,4(sp)
    1960:	6789                	lui	a5,0x2
    1962:	97ba                	add	a5,a5,a4
    1964:	80078423          	sb	zero,-2040(a5) # 1808 <mp3dec_decode_frame+0x21a>
    1968:	b335                	j	1694 <mp3dec_decode_frame+0xa6>
    196a:	6791                	lui	a5,0x4
    196c:	1898                	addi	a4,sp,112
    196e:	07c1                	addi	a5,a5,16
    1970:	97ba                	add	a5,a5,a4
    1972:	00848593          	addi	a1,s1,8
    1976:	953e                	add	a0,a0,a5
    1978:	dc4ff0ef          	jal	ra,f3c <get_bits>
    197c:	00955933          	srl	s2,a0,s1
    1980:	4981                	li	s3,0
    1982:	b781                	j	18c2 <mp3dec_decode_frame+0x2d4>
    1984:	45a1                	li	a1,8
    1986:	8522                	mv	a0,s0
    1988:	db4ff0ef          	jal	ra,f3c <get_bits>
    198c:	47a2                	lw	a5,8(sp)
    198e:	00ac8523          	sb	a0,10(s9)
    1992:	4591                	li	a1,4
    1994:	3398                	lbu	a4,1(a5)
    1996:	8b21                	andi	a4,a4,8
    1998:	e311                	bnez	a4,199c <mp3dec_decode_frame+0x3ae>
    199a:	45a5                	li	a1,9
    199c:	8522                	mv	a0,s0
    199e:	d9eff0ef          	jal	ra,f3c <get_bits>
    19a2:	47c2                	lw	a5,16(sp)
    19a4:	00ac9423          	sh	a0,8(s9)
    19a8:	01bc86a3          	sb	s11,13(s9)
    19ac:	00fca023          	sw	a5,0(s9)
    19b0:	000c8723          	sb	zero,14(s9)
    19b4:	4585                	li	a1,1
    19b6:	8522                	mv	a0,s0
    19b8:	d84ff0ef          	jal	ra,f3c <get_bits>
    19bc:	20050c63          	beqz	a0,1bd4 <mp3dec_decode_frame+0x5e6>
    19c0:	4589                	li	a1,2
    19c2:	8522                	mv	a0,s0
    19c4:	d78ff0ef          	jal	ra,f3c <get_bits>
    19c8:	0ff57513          	andi	a0,a0,255
    19cc:	00ac85a3          	sb	a0,11(s9)
    19d0:	d559                	beqz	a0,195e <mp3dec_decode_frame+0x370>
    19d2:	4585                	li	a1,1
    19d4:	8522                	mv	a0,s0
    19d6:	d66ff0ef          	jal	ra,f3c <get_bits>
    19da:	471d                	li	a4,7
    19dc:	00bcc683          	lbu	a3,11(s9)
    19e0:	0ff57513          	andi	a0,a0,255
    19e4:	00ec8923          	sb	a4,18(s9)
    19e8:	577d                	li	a4,-1
    19ea:	00ec89a3          	sb	a4,19(s9)
    19ee:	00ac8623          	sb	a0,12(s9)
    19f2:	4709                	li	a4,2
    19f4:	02e69263          	bne	a3,a4,1a18 <mp3dec_decode_frame+0x42a>
    19f8:	0179f9b3          	and	s3,s3,s7
    19fc:	1c051063          	bnez	a0,1bbc <mp3dec_decode_frame+0x5ce>
    1a00:	47e2                	lw	a5,24(sp)
    1a02:	4721                	li	a4,8
    1a04:	00ec8923          	sb	a4,18(s9)
    1a08:	00fca023          	sw	a5,0(s9)
    1a0c:	000c86a3          	sb	zero,13(s9)
    1a10:	02700713          	li	a4,39
    1a14:	00ec8723          	sb	a4,14(s9)
    1a18:	45a9                	li	a1,10
    1a1a:	8522                	mv	a0,s0
    1a1c:	d20ff0ef          	jal	ra,f3c <get_bits>
    1a20:	458d                	li	a1,3
    1a22:	00551d13          	slli	s10,a0,0x5
    1a26:	8522                	mv	a0,s0
    1a28:	d14ff0ef          	jal	ra,f3c <get_bits>
    1a2c:	00ac8aa3          	sb	a0,21(s9)
    1a30:	458d                	li	a1,3
    1a32:	8522                	mv	a0,s0
    1a34:	d08ff0ef          	jal	ra,f3c <get_bits>
    1a38:	00ac8b23          	sb	a0,22(s9)
    1a3c:	458d                	li	a1,3
    1a3e:	8522                	mv	a0,s0
    1a40:	cfcff0ef          	jal	ra,f3c <get_bits>
    1a44:	00ac8ba3          	sb	a0,23(s9)
    1a48:	47a2                	lw	a5,8(sp)
    1a4a:	01fd7713          	andi	a4,s10,31
    1a4e:	00ad5693          	srli	a3,s10,0xa
    1a52:	00ec88a3          	sb	a4,17(s9)
    1a56:	3398                	lbu	a4,1(a5)
    1a58:	00dc87a3          	sb	a3,15(s9)
    1a5c:	005d5693          	srli	a3,s10,0x5
    1a60:	8afd                	andi	a3,a3,31
    1a62:	00dc8823          	sb	a3,16(s9)
    1a66:	8b21                	andi	a4,a4,8
    1a68:	18070f63          	beqz	a4,1c06 <mp3dec_decode_frame+0x618>
    1a6c:	4585                	li	a1,1
    1a6e:	8522                	mv	a0,s0
    1a70:	cccff0ef          	jal	ra,f3c <get_bits>
    1a74:	0ff57513          	andi	a0,a0,255
    1a78:	00ac8c23          	sb	a0,24(s9)
    1a7c:	4585                	li	a1,1
    1a7e:	8522                	mv	a0,s0
    1a80:	cbcff0ef          	jal	ra,f3c <get_bits>
    1a84:	00ac8ca3          	sb	a0,25(s9)
    1a88:	4585                	li	a1,1
    1a8a:	8522                	mv	a0,s0
    1a8c:	cb0ff0ef          	jal	ra,f3c <get_bits>
    1a90:	00c9d713          	srli	a4,s3,0xc
    1a94:	8b3d                	andi	a4,a4,15
    1a96:	00ac8d23          	sb	a0,26(s9)
    1a9a:	00ec8da3          	sb	a4,27(s9)
    1a9e:	14fd                	addi	s1,s1,-1
    1aa0:	0992                	slli	s3,s3,0x4
    1aa2:	0cf1                	addi	s9,s9,28
    1aa4:	e6049fe3          	bnez	s1,1922 <mp3dec_decode_frame+0x334>
    1aa8:	6791                	lui	a5,0x4
    1aaa:	07c1                	addi	a5,a5,16
    1aac:	1898                	addi	a4,sp,112
    1aae:	97ba                	add	a5,a5,a4
    1ab0:	9abe                	add	s5,s5,a5
    1ab2:	ffcaab03          	lw	s6,-4(s5)
    1ab6:	000aa403          	lw	s0,0(s5)
    1aba:	00391793          	slli	a5,s2,0x3
    1abe:	9a5a                	add	s4,s4,s6
    1ac0:	97a2                	add	a5,a5,s0
    1ac2:	e947cee3          	blt	a5,s4,195e <mp3dec_decode_frame+0x370>
    1ac6:	e8094ce3          	bltz	s2,195e <mp3dec_decode_frame+0x370>
    1aca:	e9644ae3          	blt	s0,s6,195e <mp3dec_decode_frame+0x370>
    1ace:	4712                	lw	a4,4(sp)
    1ad0:	6789                	lui	a5,0x2
    1ad2:	41640433          	sub	s0,s0,s6
    1ad6:	97ba                	add	a5,a5,a4
    1ad8:	8007aa03          	lw	s4,-2048(a5) # 1800 <mp3dec_decode_frame+0x212>
    1adc:	840d                	srai	s0,s0,0x3
    1ade:	84ca                	mv	s1,s2
    1ae0:	012a5363          	bge	s4,s2,1ae6 <mp3dec_decode_frame+0x4f8>
    1ae4:	84d2                	mv	s1,s4
    1ae6:	4712                	lw	a4,4(sp)
    1ae8:	6789                	lui	a5,0x2
    1aea:	80c78793          	addi	a5,a5,-2036 # 180c <mp3dec_decode_frame+0x21e>
    1aee:	97ba                	add	a5,a5,a4
    1af0:	dc3e                	sw	a5,56(sp)
    1af2:	6791                	lui	a5,0x4
    1af4:	07c1                	addi	a5,a5,16
    1af6:	1898                	addi	a4,sp,112
    1af8:	7571                	lui	a0,0xffffc
    1afa:	97ba                	add	a5,a5,a4
    1afc:	953e                	add	a0,a0,a5
    1afe:	412a05b3          	sub	a1,s4,s2
    1b02:	0a050513          	addi	a0,a0,160 # ffffc0a0 <_eusrstack+0xdfff40a0>
    1b06:	0005d363          	bgez	a1,1b0c <mp3dec_decode_frame+0x51e>
    1b0a:	4581                	li	a1,0
    1b0c:	57e2                	lw	a5,56(sp)
    1b0e:	8626                	mv	a2,s1
    1b10:	95be                	add	a1,a1,a5
    1b12:	073020ef          	jal	ra,4384 <memcpy>
    1b16:	6691                	lui	a3,0x4
    1b18:	1890                	addi	a2,sp,112
    1b1a:	01068713          	addi	a4,a3,16 # 4010 <SPI_Init+0x38>
    1b1e:	9732                	add	a4,a4,a2
    1b20:	77f1                	lui	a5,0xffffc
    1b22:	00f709b3          	add	s3,a4,a5
    1b26:	01068713          	addi	a4,a3,16
    1b2a:	9732                	add	a4,a4,a2
    1b2c:	97ba                	add	a5,a5,a4
    1b2e:	c83e                	sw	a5,16(sp)
    1b30:	47a1                	li	a5,8
    1b32:	02fb47b3          	div	a5,s6,a5
    1b36:	4742                	lw	a4,16(sp)
    1b38:	0a098993          	addi	s3,s3,160
    1b3c:	8622                	mv	a2,s0
    1b3e:	ff872583          	lw	a1,-8(a4)
    1b42:	00998533          	add	a0,s3,s1
    1b46:	9426                	add	s0,s0,s1
    1b48:	040e                	slli	s0,s0,0x3
    1b4a:	95be                	add	a1,a1,a5
    1b4c:	039020ef          	jal	ra,4384 <memcpy>
    1b50:	47c2                	lw	a5,16(sp)
    1b52:	012a2533          	slt	a0,s4,s2
    1b56:	0937aa23          	sw	s3,148(a5) # ffffc094 <_eusrstack+0xdfff4094>
    1b5a:	0807ac23          	sw	zero,152(a5)
    1b5e:	0887ae23          	sw	s0,156(a5)
    1b62:	00154793          	xori	a5,a0,1
    1b66:	c2be                	sw	a5,68(sp)
    1b68:	012a4463          	blt	s4,s2,1b70 <mp3dec_decode_frame+0x582>
    1b6c:	5a00106f          	j	310c <mp3dec_decode_frame+0x1b1e>
    1b70:	6711                	lui	a4,0x4
    1b72:	0741                	addi	a4,a4,16
    1b74:	1894                	addi	a3,sp,112
    1b76:	9736                	add	a4,a4,a3
    1b78:	77f1                	lui	a5,0xffffc
    1b7a:	97ba                	add	a5,a5,a4
    1b7c:	c43e                	sw	a5,8(sp)
    1b7e:	4722                	lw	a4,8(sp)
    1b80:	0987a783          	lw	a5,152(a5) # ffffc098 <_eusrstack+0xdfff4098>
    1b84:	09c72403          	lw	s0,156(a4) # 409c <TIM_TimeBaseInit+0x5a>
    1b88:	079d                	addi	a5,a5,7
    1b8a:	838d                	srli	a5,a5,0x3
    1b8c:	800d                	srli	s0,s0,0x3
    1b8e:	8c1d                	sub	s0,s0,a5
    1b90:	1ff00713          	li	a4,511
    1b94:	00875463          	bge	a4,s0,1b9c <mp3dec_decode_frame+0x5ae>
    1b98:	5800106f          	j	3118 <mp3dec_decode_frame+0x1b2a>
    1b9c:	00805463          	blez	s0,1ba4 <mp3dec_decode_frame+0x5b6>
    1ba0:	5820106f          	j	3122 <mp3dec_decode_frame+0x1b34>
    1ba4:	4712                	lw	a4,4(sp)
    1ba6:	6789                	lui	a5,0x2
    1ba8:	5542                	lw	a0,48(sp)
    1baa:	97ba                	add	a5,a5,a4
    1bac:	8087a023          	sw	s0,-2048(a5) # 1800 <mp3dec_decode_frame+0x212>
    1bb0:	c76ff0ef          	jal	ra,1026 <hdr_frame_samples>
    1bb4:	4796                	lw	a5,68(sp)
    1bb6:	02a78533          	mul	a0,a5,a0
    1bba:	b1b9                	j	1808 <mp3dec_decode_frame+0x21a>
    1bbc:	47a2                	lw	a5,8(sp)
    1bbe:	016ca023          	sw	s6,0(s9)
    1bc2:	46a1                	li	a3,8
    1bc4:	3398                	lbu	a4,1(a5)
    1bc6:	8b21                	andi	a4,a4,8
    1bc8:	e311                	bnez	a4,1bcc <mp3dec_decode_frame+0x5de>
    1bca:	4699                	li	a3,6
    1bcc:	00dc86a3          	sb	a3,13(s9)
    1bd0:	4779                	li	a4,30
    1bd2:	b589                	j	1a14 <mp3dec_decode_frame+0x426>
    1bd4:	45bd                	li	a1,15
    1bd6:	000c85a3          	sb	zero,11(s9)
    1bda:	000c8623          	sb	zero,12(s9)
    1bde:	8522                	mv	a0,s0
    1be0:	b5cff0ef          	jal	ra,f3c <get_bits>
    1be4:	4591                	li	a1,4
    1be6:	8d2a                	mv	s10,a0
    1be8:	8522                	mv	a0,s0
    1bea:	b52ff0ef          	jal	ra,f3c <get_bits>
    1bee:	00ac8923          	sb	a0,18(s9)
    1bf2:	458d                	li	a1,3
    1bf4:	8522                	mv	a0,s0
    1bf6:	b46ff0ef          	jal	ra,f3c <get_bits>
    1bfa:	56fd                	li	a3,-1
    1bfc:	00ac89a3          	sb	a0,19(s9)
    1c00:	00dc8a23          	sb	a3,20(s9)
    1c04:	b591                	j	1a48 <mp3dec_decode_frame+0x45a>
    1c06:	008cd503          	lhu	a0,8(s9)
    1c0a:	1f453513          	sltiu	a0,a0,500
    1c0e:	00154513          	xori	a0,a0,1
    1c12:	b59d                	j	1a78 <mp3dec_decode_frame+0x48a>
    1c14:	6711                	lui	a4,0x4
    1c16:	1894                	addi	a3,sp,112
    1c18:	0741                	addi	a4,a4,16
    1c1a:	9736                	add	a4,a4,a3
    1c1c:	77f1                	lui	a5,0xffffc
    1c1e:	97ba                	add	a5,a5,a4
    1c20:	c83e                	sw	a5,16(sp)
    1c22:	ff54d703          	lhu	a4,-11(s1)
    1c26:	0987a783          	lw	a5,152(a5) # ffffc098 <_eusrstack+0xdfff4098>
    1c2a:	6b91                	lui	s7,0x4
    1c2c:	f1cb8b93          	addi	s7,s7,-228 # 3f1c <RCC_GetClocksFreq+0x114>
    1c30:	97ba                	add	a5,a5,a4
    1c32:	d43e                	sw	a5,40(sp)
    1c34:	5782                	lw	a5,32(sp)
    1c36:	fff4cc03          	lbu	s8,-1(s1)
    1c3a:	00a4cd03          	lbu	s10,10(s1)
    1c3e:	9bbe                	add	s7,s7,a5
    1c40:	ffe4c783          	lbu	a5,-2(s1)
    1c44:	01803c33          	snez	s8,s8
    1c48:	6709                	lui	a4,0x2
    1c4a:	0017b793          	seqz	a5,a5
    1c4e:	9c3e                	add	s8,s8,a5
    1c50:	47f1                	li	a5,28
    1c52:	02fc07b3          	mul	a5,s8,a5
    1c56:	6c19                	lui	s8,0x6
    1c58:	d20c0c13          	addi	s8,s8,-736 # 5d20 <g_scf_partitions.6467>
    1c5c:	ff94d803          	lhu	a6,-7(s1)
    1c60:	9c3e                	add	s8,s8,a5
    1c62:	001d0793          	addi	a5,s10,1
    1c66:	d63e                	sw	a5,44(sp)
    1c68:	4792                	lw	a5,4(sp)
    1c6a:	973e                	add	a4,a4,a5
    1c6c:	80974683          	lbu	a3,-2039(a4) # 1809 <mp3dec_decode_frame+0x21b>
    1c70:	8aa1                	andi	a3,a3,8
    1c72:	2e068663          	beqz	a3,1f5e <mp3dec_decode_frame+0x970>
    1c76:	6799                	lui	a5,0x6
    1c78:	eb478793          	addi	a5,a5,-332 # 5eb4 <g_scfc_decode.6476>
    1c7c:	97c2                	add	a5,a5,a6
    1c7e:	239c                	lbu	a5,0(a5)
    1c80:	4742                	lw	a4,16(sp)
    1c82:	00c4ca83          	lbu	s5,12(s1)
    1c86:	0027d693          	srli	a3,a5,0x2
    1c8a:	8b8d                	andi	a5,a5,3
    1c8c:	a354                	sb	a3,4(a4)
    1c8e:	b354                	sb	a3,5(a4)
    1c90:	a37c                	sb	a5,6(a4)
    1c92:	b37c                	sb	a5,7(a4)
    1c94:	6711                	lui	a4,0x4
    1c96:	7cf1                	lui	s9,0xffffc
    1c98:	1890                	addi	a2,sp,112
    1c9a:	01070693          	addi	a3,a4,16 # 4010 <SPI_Init+0x38>
    1c9e:	014c8793          	addi	a5,s9,20 # ffffc014 <_eusrstack+0xdfff4014>
    1ca2:	96b2                	add	a3,a3,a2
    1ca4:	00f68d33          	add	s10,a3,a5
    1ca8:	87ba                	mv	a5,a4
    1caa:	07c1                	addi	a5,a5,16
    1cac:	004c8d93          	addi	s11,s9,4
    1cb0:	0741                	addi	a4,a4,16
    1cb2:	094c8c93          	addi	s9,s9,148
    1cb6:	97b2                	add	a5,a5,a2
    1cb8:	9732                	add	a4,a4,a2
    1cba:	97e6                	add	a5,a5,s9
    1cbc:	4a01                	li	s4,0
    1cbe:	9dba                	add	s11,s11,a4
    1cc0:	c83e                	sw	a5,16(sp)
    1cc2:	014c06b3          	add	a3,s8,s4
    1cc6:	0006cc83          	lbu	s9,0(a3)
    1cca:	020c8263          	beqz	s9,1cee <mp3dec_decode_frame+0x700>
    1cce:	008af313          	andi	t1,s5,8
    1cd2:	2e030a63          	beqz	t1,1fc6 <mp3dec_decode_frame+0x9d8>
    1cd6:	8666                	mv	a2,s9
    1cd8:	85de                	mv	a1,s7
    1cda:	856a                	mv	a0,s10
    1cdc:	6a8020ef          	jal	ra,4384 <memcpy>
    1ce0:	0a05                	addi	s4,s4,1
    1ce2:	4691                	li	a3,4
    1ce4:	9be6                	add	s7,s7,s9
    1ce6:	9d66                	add	s10,s10,s9
    1ce8:	0a86                	slli	s5,s5,0x1
    1cea:	fcda1ce3          	bne	s4,a3,1cc2 <mp3dec_decode_frame+0x6d4>
    1cee:	fff4cc03          	lbu	s8,-1(s1)
    1cf2:	000d0123          	sb	zero,2(s10)
    1cf6:	000d00a3          	sb	zero,1(s10)
    1cfa:	000d0023          	sb	zero,0(s10)
    1cfe:	ffe4cd83          	lbu	s11,-2(s1)
    1d02:	320c0363          	beqz	s8,2028 <mp3dec_decode_frame+0xa3a>
    1d06:	5732                	lw	a4,44(sp)
    1d08:	478d                	li	a5,3
    1d0a:	20f0                	lbu	a2,6(s1)
    1d0c:	8f99                	sub	a5,a5,a4
    1d0e:	30f4                	lbu	a3,7(s1)
    1d10:	2498                	lbu	a4,8(s1)
    1d12:	00f61633          	sll	a2,a2,a5
    1d16:	00f696b3          	sll	a3,a3,a5
    1d1a:	6591                	lui	a1,0x4
    1d1c:	00f717b3          	sll	a5,a4,a5
    1d20:	0ff7f713          	andi	a4,a5,255
    1d24:	05c1                	addi	a1,a1,16
    1d26:	77f1                	lui	a5,0xffffc
    1d28:	1888                	addi	a0,sp,112
    1d2a:	95aa                	add	a1,a1,a0
    1d2c:	07d1                	addi	a5,a5,20
    1d2e:	97ae                	add	a5,a5,a1
    1d30:	0ff67613          	andi	a2,a2,255
    1d34:	0ff6f693          	andi	a3,a3,255
    1d38:	97ee                	add	a5,a5,s11
    1d3a:	4581                	li	a1,0
    1d3c:	2388                	lbu	a0,0(a5)
    1d3e:	058d                	addi	a1,a1,3
    1d40:	078d                	addi	a5,a5,3
    1d42:	9532                	add	a0,a0,a2
    1d44:	fea78ea3          	sb	a0,-3(a5) # ffffbffd <_eusrstack+0xdfff3ffd>
    1d48:	ffe7c503          	lbu	a0,-2(a5)
    1d4c:	9536                	add	a0,a0,a3
    1d4e:	fea78f23          	sb	a0,-2(a5)
    1d52:	fff7c503          	lbu	a0,-1(a5)
    1d56:	953a                	add	a0,a0,a4
    1d58:	fea78fa3          	sb	a0,-1(a5)
    1d5c:	ff85c0e3          	blt	a1,s8,1d3c <mp3dec_decode_frame+0x74e>
    1d60:	4692                	lw	a3,4(sp)
    1d62:	6709                	lui	a4,0x2
    1d64:	ffb4c503          	lbu	a0,-5(s1)
    1d68:	9736                	add	a4,a4,a3
    1d6a:	80b74703          	lbu	a4,-2037(a4) # 180b <mp3dec_decode_frame+0x21d>
    1d6e:	06000693          	li	a3,96
    1d72:	f2a50793          	addi	a5,a0,-214
    1d76:	0e077713          	andi	a4,a4,224
    1d7a:	4509                	li	a0,2
    1d7c:	2ed71063          	bne	a4,a3,205c <mp3dec_decode_frame+0xa6e>
    1d80:	20948553          	fmv.s	fa0,fs1
    1d84:	8d1d                	sub	a0,a0,a5
    1d86:	02c50513          	addi	a0,a0,44
    1d8a:	ac0ff0ef          	jal	ra,104a <L3_ldexp_q2>
    1d8e:	6691                	lui	a3,0x4
    1d90:	77f1                	lui	a5,0xffffc
    1d92:	1890                	addi	a2,sp,112
    1d94:	01068713          	addi	a4,a3,16 # 4010 <SPI_Init+0x38>
    1d98:	09478b93          	addi	s7,a5,148 # ffffc094 <_eusrstack+0xdfff4094>
    1d9c:	9732                	add	a4,a4,a2
    1d9e:	9bba                	add	s7,s7,a4
    1da0:	6709                	lui	a4,0x2
    1da2:	d7c70713          	addi	a4,a4,-644 # 1d7c <mp3dec_decode_frame+0x78e>
    1da6:	9bba                	add	s7,s7,a4
    1da8:	20a50953          	fmv.s	fs2,fa0
    1dac:	01068713          	addi	a4,a3,16
    1db0:	07d1                	addi	a5,a5,20
    1db2:	9732                	add	a4,a4,a2
    1db4:	9de2                	add	s11,s11,s8
    1db6:	4c81                	li	s9,0
    1db8:	00f70c33          	add	s8,a4,a5
    1dbc:	2bbc9263          	bne	s9,s11,2060 <mp3dec_decode_frame+0xa72>
    1dc0:	11812803          	lw	a6,280(sp)
    1dc4:	4721                	li	a4,8
    1dc6:	11412783          	lw	a5,276(sp)
    1dca:	02e84733          	div	a4,a6,a4
    1dce:	76f1                	lui	a3,0xffffc
    1dd0:	1888                	addi	a0,sp,112
    1dd2:	09468693          	addi	a3,a3,148 # ffffc094 <_eusrstack+0xdfff4094>
    1dd6:	6605                	lui	a2,0x1
    1dd8:	ff74d303          	lhu	t1,-9(s1)
    1ddc:	ff14a883          	lw	a7,-15(s1)
    1de0:	f0000753          	fmv.w.x	fa4,zero
    1de4:	00787813          	andi	a6,a6,7
    1de8:	b7c60613          	addi	a2,a2,-1156 # b7c <pf_open+0xc>
    1dec:	965a                	add	a2,a2,s6
    1dee:	8c26                	mv	s8,s1
    1df0:	973e                	add	a4,a4,a5
    1df2:	231c                	lbu	a5,0(a4)
    1df4:	330c                	lbu	a1,1(a4)
    1df6:	0711                	addi	a4,a4,4
    1df8:	07a2                	slli	a5,a5,0x8
    1dfa:	97ae                	add	a5,a5,a1
    1dfc:	ffe74583          	lbu	a1,-2(a4)
    1e00:	07a2                	slli	a5,a5,0x8
    1e02:	97ae                	add	a5,a5,a1
    1e04:	fff74583          	lbu	a1,-1(a4)
    1e08:	07a2                	slli	a5,a5,0x8
    1e0a:	97ae                	add	a5,a5,a1
    1e0c:	6591                	lui	a1,0x4
    1e0e:	05c1                	addi	a1,a1,16
    1e10:	95aa                	add	a1,a1,a0
    1e12:	96ae                	add	a3,a3,a1
    1e14:	6589                	lui	a1,0x2
    1e16:	d7c58593          	addi	a1,a1,-644 # 1d7c <mp3dec_decode_frame+0x78e>
    1e1a:	96ae                	add	a3,a3,a1
    1e1c:	000065b7          	lui	a1,0x6
    1e20:	52c5a607          	flw	fa2,1324(a1) # 652c <halfrate.6399+0x1e8>
    1e24:	000065b7          	lui	a1,0x6
    1e28:	5385a587          	flw	fa1,1336(a1) # 6538 <halfrate.6399+0x1f4>
    1e2c:	000065b7          	lui	a1,0x6
    1e30:	53c5a507          	flw	fa0,1340(a1) # 653c <halfrate.6399+0x1f8>
    1e34:	20c60053          	fmv.s	ft0,fa2
    1e38:	010797b3          	sll	a5,a5,a6
    1e3c:	1861                	addi	a6,a6,-8
    1e3e:	24604063          	bgtz	t1,207e <mp3dec_decode_frame+0xa90>
    1e42:	4585                	li	a1,1
    1e44:	40658333          	sub	t1,a1,t1
    1e48:	34ac                	lbu	a1,11(s1)
    1e4a:	50058c63          	beqz	a1,2362 <mp3dec_decode_frame+0xd74>
    1e4e:	6e19                	lui	t3,0x6
    1e50:	580e0e13          	addi	t3,t3,1408 # 6580 <tab33.6516>
    1e54:	6511                	lui	a0,0x4
    1e56:	07010e93          	addi	t4,sp,112
    1e5a:	0541                	addi	a0,a0,16
    1e5c:	9576                	add	a0,a0,t4
    1e5e:	75f1                	lui	a1,0xffffc
    1e60:	95aa                	add	a1,a1,a0
    1e62:	0945af03          	lw	t5,148(a1) # ffffc094 <_eusrstack+0xdfff4094>
    1e66:	c82e                	sw	a1,16(sp)
    1e68:	02000f93          	li	t6,32
    1e6c:	5ee1                	li	t4,-8
    1e6e:	01c7d593          	srli	a1,a5,0x1c
    1e72:	95f2                	add	a1,a1,t3
    1e74:	218c                	lbu	a1,0(a1)
    1e76:	0085f513          	andi	a0,a1,8
    1e7a:	ed09                	bnez	a0,1e94 <mp3dec_decode_frame+0x8a6>
    1e7c:	0035f293          	andi	t0,a1,3
    1e80:	00479513          	slli	a0,a5,0x4
    1e84:	405f82b3          	sub	t0,t6,t0
    1e88:	00555533          	srl	a0,a0,t0
    1e8c:	858d                	srai	a1,a1,0x3
    1e8e:	9572                	add	a0,a0,t3
    1e90:	95aa                	add	a1,a1,a0
    1e92:	218c                	lbu	a1,0(a1)
    1e94:	0075f513          	andi	a0,a1,7
    1e98:	982a                	add	a6,a6,a0
    1e9a:	00a797b3          	sll	a5,a5,a0
    1e9e:	41e70533          	sub	a0,a4,t5
    1ea2:	1575                	addi	a0,a0,-3
    1ea4:	52a2                	lw	t0,40(sp)
    1ea6:	050e                	slli	a0,a0,0x3
    1ea8:	9542                	add	a0,a0,a6
    1eaa:	4ca2c963          	blt	t0,a0,237c <mp3dec_decode_frame+0xd8e>
    1eae:	137d                	addi	t1,t1,-1
    1eb0:	00031d63          	bnez	t1,1eca <mp3dec_decode_frame+0x8dc>
    1eb4:	0008c303          	lbu	t1,0(a7)
    1eb8:	00188513          	addi	a0,a7,1
    1ebc:	00135313          	srli	t1,t1,0x1
    1ec0:	4a030e63          	beqz	t1,237c <mp3dec_decode_frame+0xd8e>
    1ec4:	6298                	flw	fa4,0(a3)
    1ec6:	88aa                	mv	a7,a0
    1ec8:	0691                	addi	a3,a3,4
    1eca:	0805f513          	andi	a0,a1,128
    1ece:	c911                	beqz	a0,1ee2 <mp3dec_decode_frame+0x8f4>
    1ed0:	20e707d3          	fmv.s	fa5,fa4
    1ed4:	0007d463          	bgez	a5,1edc <mp3dec_decode_frame+0x8ee>
    1ed8:	20e717d3          	fneg.s	fa5,fa4
    1edc:	e21c                	fsw	fa5,0(a2)
    1ede:	0786                	slli	a5,a5,0x1
    1ee0:	0805                	addi	a6,a6,1
    1ee2:	0405f513          	andi	a0,a1,64
    1ee6:	c911                	beqz	a0,1efa <mp3dec_decode_frame+0x90c>
    1ee8:	20e707d3          	fmv.s	fa5,fa4
    1eec:	0007d463          	bgez	a5,1ef4 <mp3dec_decode_frame+0x906>
    1ef0:	20e717d3          	fneg.s	fa5,fa4
    1ef4:	e25c                	fsw	fa5,4(a2)
    1ef6:	0786                	slli	a5,a5,0x1
    1ef8:	0805                	addi	a6,a6,1
    1efa:	137d                	addi	t1,t1,-1
    1efc:	00031d63          	bnez	t1,1f16 <mp3dec_decode_frame+0x928>
    1f00:	0008c303          	lbu	t1,0(a7)
    1f04:	00188513          	addi	a0,a7,1
    1f08:	00135313          	srli	t1,t1,0x1
    1f0c:	46030863          	beqz	t1,237c <mp3dec_decode_frame+0xd8e>
    1f10:	6298                	flw	fa4,0(a3)
    1f12:	88aa                	mv	a7,a0
    1f14:	0691                	addi	a3,a3,4
    1f16:	0205f513          	andi	a0,a1,32
    1f1a:	c911                	beqz	a0,1f2e <mp3dec_decode_frame+0x940>
    1f1c:	20e707d3          	fmv.s	fa5,fa4
    1f20:	0007d463          	bgez	a5,1f28 <mp3dec_decode_frame+0x93a>
    1f24:	20e717d3          	fneg.s	fa5,fa4
    1f28:	e61c                	fsw	fa5,8(a2)
    1f2a:	0786                	slli	a5,a5,0x1
    1f2c:	0805                	addi	a6,a6,1
    1f2e:	89c1                	andi	a1,a1,16
    1f30:	c991                	beqz	a1,1f44 <mp3dec_decode_frame+0x956>
    1f32:	20e707d3          	fmv.s	fa5,fa4
    1f36:	0007d463          	bgez	a5,1f3e <mp3dec_decode_frame+0x950>
    1f3a:	20e717d3          	fneg.s	fa5,fa4
    1f3e:	e65c                	fsw	fa5,12(a2)
    1f40:	0786                	slli	a5,a5,0x1
    1f42:	0805                	addi	a6,a6,1
    1f44:	853a                	mv	a0,a4
    1f46:	85c2                	mv	a1,a6
    1f48:	4205d163          	bgez	a1,236a <mp3dec_decode_frame+0xd7c>
    1f4c:	00880593          	addi	a1,a6,8
    1f50:	818d                	srli	a1,a1,0x3
    1f52:	972e                	add	a4,a4,a1
    1f54:	03d585b3          	mul	a1,a1,t4
    1f58:	0641                	addi	a2,a2,16
    1f5a:	982e                	add	a6,a6,a1
    1f5c:	bf09                	j	1e6e <mp3dec_decode_frame+0x880>
    1f5e:	80b74703          	lbu	a4,-2037(a4)
    1f62:	4781                	li	a5,0
    1f64:	8b41                	andi	a4,a4,16
    1f66:	c319                	beqz	a4,1f6c <mp3dec_decode_frame+0x97e>
    1f68:	013037b3          	snez	a5,s3
    1f6c:	4731                	li	a4,12
    1f6e:	40f85833          	sra	a6,a6,a5
    1f72:	02e787b3          	mul	a5,a5,a4
    1f76:	6711                	lui	a4,0x4
    1f78:	76f1                	lui	a3,0xffffc
    1f7a:	0741                	addi	a4,a4,16
    1f7c:	1890                	addi	a2,sp,112
    1f7e:	6599                	lui	a1,0x6
    1f80:	0691                	addi	a3,a3,4
    1f82:	9732                	add	a4,a4,a2
    1f84:	88858593          	addi	a1,a1,-1912 # 5888 <g_mod.6478>
    1f88:	96ba                	add	a3,a3,a4
    1f8a:	5e7d                	li	t3,-1
    1f8c:	4752                	lw	a4,20(sp)
    1f8e:	4605                	li	a2,1
    1f90:	00f58333          	add	t1,a1,a5
    1f94:	00e30533          	add	a0,t1,a4
    1f98:	00054883          	lbu	a7,0(a0) # 4000 <SPI_Init+0x28>
    1f9c:	02c84533          	div	a0,a6,a2
    1fa0:	00e68eb3          	add	t4,a3,a4
    1fa4:	177d                	addi	a4,a4,-1
    1fa6:	03156533          	rem	a0,a0,a7
    1faa:	00ae8023          	sb	a0,0(t4)
    1fae:	03160633          	mul	a2,a2,a7
    1fb2:	ffc711e3          	bne	a4,t3,1f94 <mp3dec_decode_frame+0x9a6>
    1fb6:	40c80833          	sub	a6,a6,a2
    1fba:	0791                	addi	a5,a5,4
    1fbc:	fc0858e3          	bgez	a6,1f8c <mp3dec_decode_frame+0x99e>
    1fc0:	9c3e                	add	s8,s8,a5
    1fc2:	5ac1                	li	s5,-16
    1fc4:	b9c1                	j	1c94 <mp3dec_decode_frame+0x6a6>
    1fc6:	014d86b3          	add	a3,s11,s4
    1fca:	0006ce03          	lbu	t3,0(a3) # ffffc000 <_eusrstack+0xdfff4000>
    1fce:	000e1d63          	bnez	t3,1fe8 <mp3dec_decode_frame+0x9fa>
    1fd2:	8666                	mv	a2,s9
    1fd4:	4581                	li	a1,0
    1fd6:	856a                	mv	a0,s10
    1fd8:	a48fe0ef          	jal	ra,220 <memset>
    1fdc:	8666                	mv	a2,s9
    1fde:	4581                	li	a1,0
    1fe0:	855e                	mv	a0,s7
    1fe2:	a3efe0ef          	jal	ra,220 <memset>
    1fe6:	b9ed                	j	1ce0 <mp3dec_decode_frame+0x6f2>
    1fe8:	56fd                	li	a3,-1
    1fea:	000ad663          	bgez	s5,1ff6 <mp3dec_decode_frame+0xa08>
    1fee:	4685                	li	a3,1
    1ff0:	01c696b3          	sll	a3,a3,t3
    1ff4:	16fd                	addi	a3,a3,-1
    1ff6:	4542                	lw	a0,16(sp)
    1ff8:	85f2                	mv	a1,t3
    1ffa:	c09a                	sw	t1,64(sp)
    1ffc:	de36                	sw	a3,60(sp)
    1ffe:	da72                	sw	t3,52(sp)
    2000:	f3dfe0ef          	jal	ra,f3c <get_bits>
    2004:	56f2                	lw	a3,60(sp)
    2006:	0ff00613          	li	a2,255
    200a:	5e52                	lw	t3,52(sp)
    200c:	4306                	lw	t1,64(sp)
    200e:	00d50363          	beq	a0,a3,2014 <mp3dec_decode_frame+0xa26>
    2012:	862a                	mv	a2,a0
    2014:	006b85b3          	add	a1,s7,t1
    2018:	a190                	sb	a2,0(a1)
    201a:	006d0633          	add	a2,s10,t1
    201e:	a208                	sb	a0,0(a2)
    2020:	0305                	addi	t1,t1,1
    2022:	fd934ae3          	blt	t1,s9,1ff6 <mp3dec_decode_frame+0xa08>
    2026:	b96d                	j	1ce0 <mp3dec_decode_frame+0x6f2>
    2028:	349c                	lbu	a5,9(s1)
    202a:	d2078be3          	beqz	a5,1d60 <mp3dec_decode_frame+0x772>
    202e:	6711                	lui	a4,0x4
    2030:	77f1                	lui	a5,0xffffc
    2032:	0741                	addi	a4,a4,16
    2034:	1894                	addi	a3,sp,112
    2036:	9736                	add	a4,a4,a3
    2038:	07d1                	addi	a5,a5,20
    203a:	6619                	lui	a2,0x6
    203c:	97ba                	add	a5,a5,a4
    203e:	b1c60613          	addi	a2,a2,-1252 # 5b1c <g_preamp.6493>
    2042:	4701                	li	a4,0
    2044:	45a9                	li	a1,10
    2046:	00e606b3          	add	a3,a2,a4
    204a:	37a8                	lbu	a0,11(a5)
    204c:	2294                	lbu	a3,0(a3)
    204e:	0705                	addi	a4,a4,1
    2050:	0785                	addi	a5,a5,1
    2052:	96aa                	add	a3,a3,a0
    2054:	a7b4                	sb	a3,10(a5)
    2056:	feb718e3          	bne	a4,a1,2046 <mp3dec_decode_frame+0xa58>
    205a:	b319                	j	1d60 <mp3dec_decode_frame+0x772>
    205c:	4501                	li	a0,0
    205e:	b30d                	j	1d80 <mp3dec_decode_frame+0x792>
    2060:	019c07b3          	add	a5,s8,s9
    2064:	2388                	lbu	a0,0(a5)
    2066:	57b2                	lw	a5,44(sp)
    2068:	21290553          	fmv.s	fa0,fs2
    206c:	0c85                	addi	s9,s9,1
    206e:	00f51533          	sll	a0,a0,a5
    2072:	fd9fe0ef          	jal	ra,104a <L3_ldexp_q2>
    2076:	00aba027          	fsw	fa0,0(s7)
    207a:	0b91                	addi	s7,s7,4
    207c:	b381                	j	1dbc <mp3dec_decode_frame+0x7ce>
    207e:	000c4503          	lbu	a0,0(s8)
    2082:	6599                	lui	a1,0x6
    2084:	59058593          	addi	a1,a1,1424 # 6590 <tabindex.6517>
    2088:	00151e13          	slli	t3,a0,0x1
    208c:	95f2                	add	a1,a1,t3
    208e:	00059f03          	lh	t5,0(a1)
    2092:	003c4283          	lbu	t0,3(s8)
    2096:	001f1e13          	slli	t3,t5,0x1
    209a:	6f19                	lui	t5,0x6
    209c:	5d0f0593          	addi	a1,t5,1488 # 65d0 <tabs.6514>
    20a0:	00be0f33          	add	t5,t3,a1
    20a4:	6595                	lui	a1,0x5
    20a6:	7d858593          	addi	a1,a1,2008 # 57d8 <g_linbits.6518>
    20aa:	95aa                	add	a1,a1,a0
    20ac:	0005cc83          	lbu	s9,0(a1)
    20b0:	0e0c8b63          	beqz	s9,21a6 <mp3dec_decode_frame+0xbb8>
    20b4:	02000d93          	li	s11,32
    20b8:	6399                	lui	t2,0x6
    20ba:	419d85b3          	sub	a1,s11,s9
    20be:	8d838393          	addi	t2,t2,-1832 # 58d8 <g_pow43>
    20c2:	c82e                	sw	a1,16(sp)
    20c4:	0885                	addi	a7,a7,1
    20c6:	fff8c083          	lbu	ra,-1(a7)
    20ca:	0691                	addi	a3,a3,4
    20cc:	ffc6a707          	flw	fa4,-4(a3)
    20d0:	0010d093          	srli	ra,ra,0x1
    20d4:	8586                	mv	a1,ra
    20d6:	00135363          	bge	t1,ra,20dc <mp3dec_decode_frame+0xaee>
    20da:	859a                	mv	a1,t1
    20dc:	058e                	slli	a1,a1,0x3
    20de:	95b2                	add	a1,a1,a2
    20e0:	01b7d513          	srli	a0,a5,0x1b
    20e4:	0506                	slli	a0,a0,0x1
    20e6:	957a                	add	a0,a0,t5
    20e8:	00051e83          	lh	t4,0(a0)
    20ec:	4e15                	li	t3,5
    20ee:	180ec363          	bltz	t4,2274 <mp3dec_decode_frame+0xc86>
    20f2:	408ed513          	srai	a0,t4,0x8
    20f6:	8fb2                	mv	t6,a2
    20f8:	0621                	addi	a2,a2,8
    20fa:	00a797b3          	sll	a5,a5,a0
    20fe:	982a                	add	a6,a6,a0
    2100:	8ab2                	mv	s5,a2
    2102:	00fefe13          	andi	t3,t4,15
    2106:	463d                	li	a2,15
    2108:	1ece1e63          	bne	t3,a2,2304 <mp3dec_decode_frame+0xd16>
    210c:	4642                	lw	a2,16(sp)
    210e:	9866                	add	a6,a6,s9
    2110:	8bba                	mv	s7,a4
    2112:	00c7d633          	srl	a2,a5,a2
    2116:	00f60e13          	addi	t3,a2,15
    211a:	019797b3          	sll	a5,a5,s9
    211e:	8542                	mv	a0,a6
    2120:	16055c63          	bgez	a0,2298 <mp3dec_decode_frame+0xcaa>
    2124:	00880513          	addi	a0,a6,8
    2128:	810d                	srli	a0,a0,0x3
    212a:	5a61                	li	s4,-8
    212c:	972a                	add	a4,a4,a0
    212e:	03450533          	mul	a0,a0,s4
    2132:	982a                	add	a6,a6,a0
    2134:	08000513          	li	a0,128
    2138:	17c54963          	blt	a0,t3,22aa <mp3dec_decode_frame+0xcbc>
    213c:	067d                	addi	a2,a2,31
    213e:	060a                	slli	a2,a2,0x2
    2140:	961e                	add	a2,a2,t2
    2142:	621c                	flw	fa5,0(a2)
    2144:	10f777d3          	fmul.s	fa5,fa4,fa5
    2148:	208406d3          	fmv.s	fa3,fs0
    214c:	0007c463          	bltz	a5,2154 <mp3dec_decode_frame+0xb66>
    2150:	20c606d3          	fmv.s	fa3,fa2
    2154:	10d7f7d3          	fmul.s	fa5,fa5,fa3
    2158:	01c03e33          	snez	t3,t3
    215c:	00ffa027          	fsw	fa5,0(t6)
    2160:	0f91                	addi	t6,t6,4
    2162:	01c797b3          	sll	a5,a5,t3
    2166:	9872                	add	a6,a6,t3
    2168:	404ede93          	srai	t4,t4,0x4
    216c:	f95f9be3          	bne	t6,s5,2102 <mp3dec_decode_frame+0xb14>
    2170:	867e                	mv	a2,t6
    2172:	8e3a                	mv	t3,a4
    2174:	8542                	mv	a0,a6
    2176:	1a055363          	bgez	a0,231c <mp3dec_decode_frame+0xd2e>
    217a:	00880513          	addi	a0,a6,8
    217e:	810d                	srli	a0,a0,0x3
    2180:	5e61                	li	t3,-8
    2182:	972a                	add	a4,a4,a0
    2184:	03c50533          	mul	a0,a0,t3
    2188:	982a                	add	a6,a6,a0
    218a:	f5f59be3          	bne	a1,t6,20e0 <mp3dec_decode_frame+0xaf2>
    218e:	40130333          	sub	t1,t1,ra
    2192:	00605763          	blez	t1,21a0 <mp3dec_decode_frame+0xbb2>
    2196:	12fd                	addi	t0,t0,-1
    2198:	557d                	li	a0,-1
    219a:	862e                	mv	a2,a1
    219c:	f2a294e3          	bne	t0,a0,20c4 <mp3dec_decode_frame+0xad6>
    21a0:	0c05                	addi	s8,s8,1
    21a2:	862e                	mv	a2,a1
    21a4:	b969                	j	1e3e <mp3dec_decode_frame+0x850>
    21a6:	6399                	lui	t2,0x6
    21a8:	02000c93          	li	s9,32
    21ac:	8d838393          	addi	t2,t2,-1832 # 58d8 <g_pow43>
    21b0:	5be1                	li	s7,-8
    21b2:	50fd                	li	ra,-1
    21b4:	0885                	addi	a7,a7,1
    21b6:	fff8cf83          	lbu	t6,-1(a7)
    21ba:	0691                	addi	a3,a3,4
    21bc:	ffc6a707          	flw	fa4,-4(a3)
    21c0:	001fdf93          	srli	t6,t6,0x1
    21c4:	85fe                	mv	a1,t6
    21c6:	01f35363          	bge	t1,t6,21cc <mp3dec_decode_frame+0xbde>
    21ca:	859a                	mv	a1,t1
    21cc:	058e                	slli	a1,a1,0x3
    21ce:	95b2                	add	a1,a1,a2
    21d0:	01b7d513          	srli	a0,a5,0x1b
    21d4:	0506                	slli	a0,a0,0x1
    21d6:	957a                	add	a0,a0,t5
    21d8:	00051503          	lh	a0,0(a0)
    21dc:	4e95                	li	t4,5
    21de:	14054863          	bltz	a0,232e <mp3dec_decode_frame+0xd40>
    21e2:	40855e13          	srai	t3,a0,0x8
    21e6:	01c797b3          	sll	a5,a5,t3
    21ea:	9872                	add	a6,a6,t3
    21ec:	01f7dd13          	srli	s10,a5,0x1f
    21f0:	00f57e13          	andi	t3,a0,15
    21f4:	010e0e93          	addi	t4,t3,16
    21f8:	0d12                	slli	s10,s10,0x4
    21fa:	41ae8eb3          	sub	t4,t4,s10
    21fe:	0e8a                	slli	t4,t4,0x2
    2200:	9e9e                	add	t4,t4,t2
    2202:	000ea787          	flw	fa5,0(t4)
    2206:	01c03e33          	snez	t3,t3
    220a:	01c797b3          	sll	a5,a5,t3
    220e:	8511                	srai	a0,a0,0x4
    2210:	10e7f7d3          	fmul.s	fa5,fa5,fa4
    2214:	893d                	andi	a0,a0,15
    2216:	01f7de93          	srli	t4,a5,0x1f
    221a:	9872                	add	a6,a6,t3
    221c:	0e92                	slli	t4,t4,0x4
    221e:	01050e13          	addi	t3,a0,16
    2222:	41de0e33          	sub	t3,t3,t4
    2226:	0e0a                	slli	t3,t3,0x2
    2228:	9e1e                	add	t3,t3,t2
    222a:	e21c                	fsw	fa5,0(a2)
    222c:	000e2787          	flw	fa5,0(t3)
    2230:	00a03533          	snez	a0,a0
    2234:	01050e33          	add	t3,a0,a6
    2238:	10e7f7d3          	fmul.s	fa5,fa5,fa4
    223c:	00a797b3          	sll	a5,a5,a0
    2240:	0621                	addi	a2,a2,8
    2242:	883a                	mv	a6,a4
    2244:	8572                	mv	a0,t3
    2246:	fef62e27          	fsw	fa5,-4(a2)
    224a:	10055363          	bgez	a0,2350 <mp3dec_decode_frame+0xd62>
    224e:	008e0813          	addi	a6,t3,8
    2252:	00385813          	srli	a6,a6,0x3
    2256:	9742                	add	a4,a4,a6
    2258:	03780833          	mul	a6,a6,s7
    225c:	9872                	add	a6,a6,t3
    225e:	f6c599e3          	bne	a1,a2,21d0 <mp3dec_decode_frame+0xbe2>
    2262:	41f30333          	sub	t1,t1,t6
    2266:	f2605de3          	blez	t1,21a0 <mp3dec_decode_frame+0xbb2>
    226a:	12fd                	addi	t0,t0,-1
    226c:	862e                	mv	a2,a1
    226e:	f41293e3          	bne	t0,ra,21b4 <mp3dec_decode_frame+0xbc6>
    2272:	b73d                	j	21a0 <mp3dec_decode_frame+0xbb2>
    2274:	01c797b3          	sll	a5,a5,t3
    2278:	9872                	add	a6,a6,t3
    227a:	007efe13          	andi	t3,t4,7
    227e:	41cd8533          	sub	a0,s11,t3
    2282:	403ede93          	srai	t4,t4,0x3
    2286:	00a7d533          	srl	a0,a5,a0
    228a:	41d50533          	sub	a0,a0,t4
    228e:	0506                	slli	a0,a0,0x1
    2290:	957a                	add	a0,a0,t5
    2292:	00051e83          	lh	t4,0(a0)
    2296:	bda1                	j	20ee <mp3dec_decode_frame+0xb00>
    2298:	000bcd03          	lbu	s10,0(s7)
    229c:	0b85                	addi	s7,s7,1
    229e:	00ad1d33          	sll	s10,s10,a0
    22a2:	01a7e7b3          	or	a5,a5,s10
    22a6:	1561                	addi	a0,a0,-8
    22a8:	bda5                	j	2120 <mp3dec_decode_frame+0xb32>
    22aa:	3ff00613          	li	a2,1023
    22ae:	05c64763          	blt	a2,t3,22fc <mp3dec_decode_frame+0xd0e>
    22b2:	003e1513          	slli	a0,t3,0x3
    22b6:	4d41                	li	s10,16
    22b8:	00151b93          	slli	s7,a0,0x1
    22bc:	040bfb93          	andi	s7,s7,64
    22c0:	03f57613          	andi	a2,a0,63
    22c4:	41760633          	sub	a2,a2,s7
    22c8:	d00677d3          	fcvt.s.w	fa5,a2
    22cc:	fc057613          	andi	a2,a0,-64
    22d0:	965e                	add	a2,a2,s7
    22d2:	d00676d3          	fcvt.s.w	fa3,a2
    22d6:	955e                	add	a0,a0,s7
    22d8:	8519                	srai	a0,a0,0x6
    22da:	18d7f7d3          	fdiv.s	fa5,fa5,fa3
    22de:	0541                	addi	a0,a0,16
    22e0:	050a                	slli	a0,a0,0x2
    22e2:	951e                	add	a0,a0,t2
    22e4:	50b7f6c3          	fmadd.s	fa3,fa5,fa1,fa0
    22e8:	00d7f7c3          	fmadd.s	fa5,fa5,fa3,ft0
    22ec:	6114                	flw	fa3,0(a0)
    22ee:	10d7f7d3          	fmul.s	fa5,fa5,fa3
    22f2:	d00d76d3          	fcvt.s.w	fa3,s10
    22f6:	10d7f7d3          	fmul.s	fa5,fa5,fa3
    22fa:	b5a9                	j	2144 <mp3dec_decode_frame+0xb56>
    22fc:	8572                	mv	a0,t3
    22fe:	10000d13          	li	s10,256
    2302:	bf5d                	j	22b8 <mp3dec_decode_frame+0xcca>
    2304:	01f7d513          	srli	a0,a5,0x1f
    2308:	010e0613          	addi	a2,t3,16
    230c:	0512                	slli	a0,a0,0x4
    230e:	8e09                	sub	a2,a2,a0
    2310:	060a                	slli	a2,a2,0x2
    2312:	961e                	add	a2,a2,t2
    2314:	621c                	flw	fa5,0(a2)
    2316:	10e7f7d3          	fmul.s	fa5,fa5,fa4
    231a:	bd3d                	j	2158 <mp3dec_decode_frame+0xb6a>
    231c:	000e4e83          	lbu	t4,0(t3)
    2320:	0e05                	addi	t3,t3,1
    2322:	00ae9eb3          	sll	t4,t4,a0
    2326:	01d7e7b3          	or	a5,a5,t4
    232a:	1561                	addi	a0,a0,-8
    232c:	b5a9                	j	2176 <mp3dec_decode_frame+0xb88>
    232e:	01d797b3          	sll	a5,a5,t4
    2332:	9876                	add	a6,a6,t4
    2334:	00757e93          	andi	t4,a0,7
    2338:	41dc8e33          	sub	t3,s9,t4
    233c:	850d                	srai	a0,a0,0x3
    233e:	01c7de33          	srl	t3,a5,t3
    2342:	40ae0e33          	sub	t3,t3,a0
    2346:	0e06                	slli	t3,t3,0x1
    2348:	9e7a                	add	t3,t3,t5
    234a:	000e1503          	lh	a0,0(t3)
    234e:	bd41                	j	21de <mp3dec_decode_frame+0xbf0>
    2350:	00084e83          	lbu	t4,0(a6)
    2354:	0805                	addi	a6,a6,1
    2356:	00ae9eb3          	sll	t4,t4,a0
    235a:	01d7e7b3          	or	a5,a5,t4
    235e:	1561                	addi	a0,a0,-8
    2360:	b5ed                	j	224a <mp3dec_decode_frame+0xc5c>
    2362:	6e19                	lui	t3,0x6
    2364:	564e0e13          	addi	t3,t3,1380 # 6564 <tab32.6515>
    2368:	b4f5                	j	1e54 <mp3dec_decode_frame+0x866>
    236a:	00054283          	lbu	t0,0(a0)
    236e:	0505                	addi	a0,a0,1
    2370:	00b292b3          	sll	t0,t0,a1
    2374:	0057e7b3          	or	a5,a5,t0
    2378:	15e1                	addi	a1,a1,-8
    237a:	b6f9                	j	1f48 <mp3dec_decode_frame+0x95a>
    237c:	6711                	lui	a4,0x4
    237e:	0741                	addi	a4,a4,16
    2380:	1894                	addi	a3,sp,112
    2382:	9736                	add	a4,a4,a3
    2384:	77f1                	lui	a5,0xffffc
    2386:	97ba                	add	a5,a5,a4
    2388:	5722                	lw	a4,40(sp)
    238a:	c83e                	sw	a5,16(sp)
    238c:	0985                	addi	s3,s3,1
    238e:	08e7ac23          	sw	a4,152(a5) # ffffc098 <_eusrstack+0xdfff4098>
    2392:	6785                	lui	a5,0x1
    2394:	90078793          	addi	a5,a5,-1792 # 900 <check_fs+0x6e>
    2398:	9b3e                	add	s6,s6,a5
    239a:	5782                	lw	a5,32(sp)
    239c:	04f1                	addi	s1,s1,28
    239e:	02778793          	addi	a5,a5,39
    23a2:	d03e                	sw	a5,32(sp)
    23a4:	2770006f          	j	2e1a <mp3dec_decode_frame+0x182c>
    23a8:	0309                	addi	t1,t1,2
    23aa:	02b35963          	bge	t1,a1,23dc <mp3dec_decode_frame+0xdee>
    23ae:	631c                	flw	fa5,0(a4)
    23b0:	a0e7af53          	feq.s	t5,fa5,fa4
    23b4:	000f0963          	beqz	t5,23c6 <mp3dec_decode_frame+0xdd8>
    23b8:	0721                	addi	a4,a4,8
    23ba:	ffc72787          	flw	fa5,-4(a4) # 3ffc <SPI_Init+0x24>
    23be:	a0e7af53          	feq.s	t5,fa5,fa4
    23c2:	fe0f13e3          	bnez	t5,23a8 <mp3dec_decode_frame+0xdba>
    23c6:	03c7e733          	rem	a4,a5,t3
    23ca:	6491                	lui	s1,0x4
    23cc:	04c1                	addi	s1,s1,16
    23ce:	07010313          	addi	t1,sp,112
    23d2:	949a                	add	s1,s1,t1
    23d4:	070a                	slli	a4,a4,0x2
    23d6:	9726                	add	a4,a4,s1
    23d8:	9776                	add	a4,a4,t4
    23da:	cb5c                	sw	a5,20(a4)
    23dc:	058a                	slli	a1,a1,0x2
    23de:	962e                	add	a2,a2,a1
    23e0:	0785                	addi	a5,a5,1
    23e2:	2910006f          	j	2e72 <mp3dec_decode_frame+0x1884>
    23e6:	c131                	beqz	a0,242a <mp3dec_decode_frame+0xe3c>
    23e8:	6611                	lui	a2,0x4
    23ea:	0641                	addi	a2,a2,16
    23ec:	188c                	addi	a1,sp,112
    23ee:	962e                	add	a2,a2,a1
    23f0:	7771                	lui	a4,0xffffc
    23f2:	9732                	add	a4,a4,a2
    23f4:	c83a                	sw	a4,16(sp)
    23f6:	4b50                	lw	a2,20(a4)
    23f8:	4f18                	lw	a4,24(a4)
    23fa:	00c75363          	bge	a4,a2,2400 <mp3dec_decode_frame+0xe12>
    23fe:	8732                	mv	a4,a2
    2400:	6591                	lui	a1,0x4
    2402:	05c1                	addi	a1,a1,16
    2404:	1888                	addi	a0,sp,112
    2406:	7671                	lui	a2,0xffffc
    2408:	95aa                	add	a1,a1,a0
    240a:	962e                	add	a2,a2,a1
    240c:	c832                	sw	a2,16(sp)
    240e:	4e50                	lw	a2,28(a2)
    2410:	00c75363          	bge	a4,a2,2416 <mp3dec_decode_frame+0xe28>
    2414:	8732                	mv	a4,a2
    2416:	6591                	lui	a1,0x4
    2418:	05c1                	addi	a1,a1,16
    241a:	1888                	addi	a0,sp,112
    241c:	7671                	lui	a2,0xffffc
    241e:	95aa                	add	a1,a1,a0
    2420:	962e                	add	a2,a2,a1
    2422:	c832                	sw	a2,16(sp)
    2424:	ce58                	sw	a4,28(a2)
    2426:	ce18                	sw	a4,24(a2)
    2428:	ca58                	sw	a4,20(a2)
    242a:	4612                	lw	a2,4(sp)
    242c:	6709                	lui	a4,0x2
    242e:	4801                	li	a6,0
    2430:	9732                	add	a4,a4,a2
    2432:	80974583          	lbu	a1,-2039(a4) # 1809 <mp3dec_decode_frame+0x21b>
    2436:	89a1                	andi	a1,a1,8
    2438:	c191                	beqz	a1,243c <mp3dec_decode_frame+0xe4e>
    243a:	480d                	li	a6,3
    243c:	6491                	lui	s1,0x4
    243e:	07010893          	addi	a7,sp,112
    2442:	01048513          	addi	a0,s1,16 # 4010 <SPI_Init+0x38>
    2446:	04c1                	addi	s1,s1,16
    2448:	9546                	add	a0,a0,a7
    244a:	94c6                	add	s1,s1,a7
    244c:	6891                	lui	a7,0x4
    244e:	7771                	lui	a4,0xffffc
    2450:	f4388893          	addi	a7,a7,-189 # 3f43 <RCC_GetClocksFreq+0x13b>
    2454:	01470613          	addi	a2,a4,20 # ffffc014 <_eusrstack+0xdfff4014>
    2458:	40d78333          	sub	t1,a5,a3
    245c:	09470713          	addi	a4,a4,148
    2460:	97c6                	add	a5,a5,a7
    2462:	9726                	add	a4,a4,s1
    2464:	8f95                	sub	a5,a5,a3
    2466:	962a                	add	a2,a2,a0
    2468:	0ff87813          	andi	a6,a6,255
    246c:	40d30533          	sub	a0,t1,a3
    2470:	40d00e33          	neg	t3,a3
    2474:	97ba                	add	a5,a5,a4
    2476:	4214                	lw	a3,0(a2)
    2478:	8742                	mv	a4,a6
    247a:	00a6d563          	bge	a3,a0,2484 <mp3dec_decode_frame+0xe96>
    247e:	01c78733          	add	a4,a5,t3
    2482:	2318                	lbu	a4,0(a4)
    2484:	a398                	sb	a4,0(a5)
    2486:	0505                	addi	a0,a0,1
    2488:	0611                	addi	a2,a2,4
    248a:	0785                	addi	a5,a5,1
    248c:	fea315e3          	bne	t1,a0,2476 <mp3dec_decode_frame+0xe88>
    2490:	02445983          	lhu	s3,36(s0)
    2494:	00042b83          	lw	s7,0(s0)
    2498:	4b1d                	li	s6,7
    249a:	0019f993          	andi	s3,s3,1
    249e:	e199                	bnez	a1,24a4 <mp3dec_decode_frame+0xeb6>
    24a0:	04000b13          	li	s6,64
    24a4:	6791                	lui	a5,0x4
    24a6:	74f1                	lui	s1,0xffffc
    24a8:	07c1                	addi	a5,a5,16
    24aa:	1898                	addi	a4,sp,112
    24ac:	97ba                	add	a5,a5,a4
    24ae:	09448493          	addi	s1,s1,148 # ffffc094 <_eusrstack+0xdfff4094>
    24b2:	94be                	add	s1,s1,a5
    24b4:	000067b7          	lui	a5,0x6
    24b8:	52c7a907          	flw	fs2,1324(a5) # 652c <halfrate.6399+0x1e8>
    24bc:	000067b7          	lui	a5,0x6
    24c0:	6c85                	lui	s9,0x1
    24c2:	5307a987          	flw	fs3,1328(a5) # 6530 <halfrate.6399+0x1ec>
    24c6:	21290a53          	fmv.s	fs4,fs2
    24ca:	b7cc8c93          	addi	s9,s9,-1156 # b7c <pf_open+0xc>
    24ce:	4d01                	li	s10,0
    24d0:	9ca6                	add	s9,s9,s1
    24d2:	7c71                	lui	s8,0xffffc
    24d4:	01ab8ab3          	add	s5,s7,s10
    24d8:	000ac583          	lbu	a1,0(s5)
    24dc:	e585                	bnez	a1,2504 <mp3dec_decode_frame+0xf16>
    24de:	6791                	lui	a5,0x4
    24e0:	7b71                	lui	s6,0xffffc
    24e2:	07c1                	addi	a5,a5,16
    24e4:	1898                	addi	a4,sp,112
    24e6:	97ba                	add	a5,a5,a4
    24e8:	094b0a93          	addi	s5,s6,148 # ffffc094 <_eusrstack+0xdfff4094>
    24ec:	9abe                	add	s5,s5,a5
    24ee:	6485                	lui	s1,0x1
    24f0:	6789                	lui	a5,0x2
    24f2:	4c848493          	addi	s1,s1,1224 # 14c8 <L3_imdct12+0x42>
    24f6:	e1c78793          	addi	a5,a5,-484 # 1e1c <mp3dec_decode_frame+0x82e>
    24fa:	94ca                	add	s1,s1,s2
    24fc:	4981                	li	s3,0
    24fe:	00fa8cb3          	add	s9,s5,a5
    2502:	acbd                	j	2780 <mp3dec_decode_frame+0x1192>
    2504:	4712                	lw	a4,4(sp)
    2506:	6789                	lui	a5,0x2
    2508:	6691                	lui	a3,0x4
    250a:	97ba                	add	a5,a5,a4
    250c:	80b7c703          	lbu	a4,-2037(a5) # 180b <mp3dec_decode_frame+0x21d>
    2510:	478d                	li	a5,3
    2512:	02fd77b3          	remu	a5,s10,a5
    2516:	06c1                	addi	a3,a3,16
    2518:	1890                	addi	a2,sp,112
    251a:	96b2                	add	a3,a3,a2
    251c:	02077713          	andi	a4,a4,32
    2520:	078a                	slli	a5,a5,0x2
    2522:	97b6                	add	a5,a5,a3
    2524:	97e2                	add	a5,a5,s8
    2526:	4bdc                	lw	a5,20(a5)
    2528:	0ba7d663          	bge	a5,s10,25d4 <mp3dec_decode_frame+0xfe6>
    252c:	6791                	lui	a5,0x4
    252e:	f4378793          	addi	a5,a5,-189 # 3f43 <RCC_GetClocksFreq+0x13b>
    2532:	97ea                	add	a5,a5,s10
    2534:	97a6                	add	a5,a5,s1
    2536:	0007cd83          	lbu	s11,0(a5)
    253a:	096dfd63          	bgeu	s11,s6,25d4 <mp3dec_decode_frame+0xfe6>
    253e:	213984d3          	fmv.s	fs1,fs3
    2542:	e319                	bnez	a4,2548 <mp3dec_decode_frame+0xf5a>
    2544:	214a04d3          	fmv.s	fs1,fs4
    2548:	4712                	lw	a4,4(sp)
    254a:	6789                	lui	a5,0x2
    254c:	97ba                	add	a5,a5,a4
    254e:	8097c783          	lbu	a5,-2039(a5) # 1809 <mp3dec_decode_frame+0x21b>
    2552:	8ba1                	andi	a5,a5,8
    2554:	cbb9                	beqz	a5,25aa <mp3dec_decode_frame+0xfbc>
    2556:	6719                	lui	a4,0x6
    2558:	8a070713          	addi	a4,a4,-1888 # 58a0 <g_pan.6622>
    255c:	003d9793          	slli	a5,s11,0x3
    2560:	97ba                	add	a5,a5,a4
    2562:	639c                	flw	fa5,0(a5)
    2564:	003d9793          	slli	a5,s11,0x3
    2568:	973e                	add	a4,a4,a5
    256a:	6348                	flw	fa0,4(a4)
    256c:	1097f7d3          	fmul.s	fa5,fa5,fs1
    2570:	10a4f4d3          	fmul.s	fs1,fs1,fa0
    2574:	6685                	lui	a3,0x1
    2576:	87e6                	mv	a5,s9
    2578:	4701                	li	a4,0
    257a:	90068693          	addi	a3,a3,-1792 # 900 <check_fs+0x6e>
    257e:	6398                	flw	fa4,0(a5)
    2580:	00d78633          	add	a2,a5,a3
    2584:	0705                	addi	a4,a4,1
    2586:	10977753          	fmul.s	fa4,fa4,fs1
    258a:	0791                	addi	a5,a5,4
    258c:	e218                	fsw	fa4,0(a2)
    258e:	ffc7a707          	flw	fa4,-4(a5)
    2592:	10f77753          	fmul.s	fa4,fa4,fa5
    2596:	fee7ae27          	fsw	fa4,-4(a5)
    259a:	feb742e3          	blt	a4,a1,257e <mp3dec_decode_frame+0xf90>
    259e:	000ac783          	lbu	a5,0(s5)
    25a2:	0d05                	addi	s10,s10,1
    25a4:	078a                	slli	a5,a5,0x2
    25a6:	9cbe                	add	s9,s9,a5
    25a8:	b735                	j	24d4 <mp3dec_decode_frame+0xee6>
    25aa:	001d8513          	addi	a0,s11,1
    25ae:	21290553          	fmv.s	fa0,fs2
    25b2:	8105                	srli	a0,a0,0x1
    25b4:	01351533          	sll	a0,a0,s3
    25b8:	c82e                	sw	a1,16(sp)
    25ba:	a91fe0ef          	jal	ra,104a <L3_ldexp_q2>
    25be:	001df793          	andi	a5,s11,1
    25c2:	212907d3          	fmv.s	fa5,fs2
    25c6:	45c2                	lw	a1,16(sp)
    25c8:	d3d5                	beqz	a5,256c <mp3dec_decode_frame+0xf7e>
    25ca:	20a507d3          	fmv.s	fa5,fa0
    25ce:	21290553          	fmv.s	fa0,fs2
    25d2:	bf69                	j	256c <mp3dec_decode_frame+0xf7e>
    25d4:	d769                	beqz	a4,259e <mp3dec_decode_frame+0xfb0>
    25d6:	8566                	mv	a0,s9
    25d8:	ab1fe0ef          	jal	ra,1088 <L3_midside_stereo>
    25dc:	b7c9                	j	259e <mp3dec_decode_frame+0xfb0>
    25de:	0e07f793          	andi	a5,a5,224
    25e2:	06000713          	li	a4,96
    25e6:	eee79ce3          	bne	a5,a4,24de <mp3dec_decode_frame+0xef0>
    25ea:	6711                	lui	a4,0x4
    25ec:	1894                	addi	a3,sp,112
    25ee:	77f1                	lui	a5,0xffffc
    25f0:	0741                	addi	a4,a4,16
    25f2:	9736                	add	a4,a4,a3
    25f4:	09478793          	addi	a5,a5,148 # ffffc094 <_eusrstack+0xdfff4094>
    25f8:	6505                	lui	a0,0x1
    25fa:	97ba                	add	a5,a5,a4
    25fc:	b7c50513          	addi	a0,a0,-1156 # b7c <pf_open+0xc>
    2600:	24000593          	li	a1,576
    2604:	953e                	add	a0,a0,a5
    2606:	a83fe0ef          	jal	ra,1088 <L3_midside_stereo>
    260a:	bdd1                	j	24de <mp3dec_decode_frame+0xef0>
    260c:	4792                	lw	a5,4(sp)
    260e:	6709                	lui	a4,0x2
    2610:	00c44d83          	lbu	s11,12(s0)
    2614:	973e                	add	a4,a4,a5
    2616:	80974783          	lbu	a5,-2039(a4) # 1809 <mp3dec_decode_frame+0x21b>
    261a:	01b03db3          	snez	s11,s11
    261e:	0d86                	slli	s11,s11,0x1
    2620:	0037d693          	srli	a3,a5,0x3
    2624:	8391                	srli	a5,a5,0x4
    2626:	8b85                	andi	a5,a5,1
    2628:	8a85                	andi	a3,a3,1
    262a:	96be                	add	a3,a3,a5
    262c:	478d                	li	a5,3
    262e:	02f686b3          	mul	a3,a3,a5
    2632:	80a74783          	lbu	a5,-2038(a4)
    2636:	2478                	lbu	a4,14(s0)
    2638:	4d7d                	li	s10,31
    263a:	8389                	srli	a5,a5,0x2
    263c:	8b8d                	andi	a5,a5,3
    263e:	96be                	add	a3,a3,a5
    2640:	16f9                	addi	a3,a3,-2
    2642:	77fd                	lui	a5,0xfffff
    2644:	0016b693          	seqz	a3,a3
    2648:	6b478793          	addi	a5,a5,1716 # fffff6b4 <_eusrstack+0xdfff76b4>
    264c:	00dd9db3          	sll	s11,s11,a3
    2650:	00f48bb3          	add	s7,s1,a5
    2654:	cf05                	beqz	a4,268c <mp3dec_decode_frame+0x109e>
    2656:	04800513          	li	a0,72
    265a:	02ad8533          	mul	a0,s11,a0
    265e:	3458                	lbu	a4,13(s0)
    2660:	00042303          	lw	t1,0(s0)
    2664:	6789                	lui	a5,0x2
    2666:	e1c78793          	addi	a5,a5,-484 # 1e1c <mp3dec_decode_frame+0x82e>
    266a:	fffd8d13          	addi	s10,s11,-1
    266e:	933a                	add	t1,t1,a4
    2670:	00fa8633          	add	a2,s5,a5
    2674:	4eb1                	li	t4,12
    2676:	955e                	add	a0,a0,s7
    2678:	8e2a                	mv	t3,a0
    267a:	00034703          	lbu	a4,0(t1) # 4000 <SPI_Init+0x28>
    267e:	000713e3          	bnez	a4,2e84 <mp3dec_decode_frame+0x1896>
    2682:	41960633          	sub	a2,a2,s9
    2686:	85e6                	mv	a1,s9
    2688:	4fd010ef          	jal	ra,4384 <memcpy>
    268c:	777d                	lui	a4,0xfffff
    268e:	6fc70713          	addi	a4,a4,1788 # fffff6fc <_eusrstack+0xdfff76fc>
    2692:	9726                	add	a4,a4,s1
    2694:	03a047e3          	bgtz	s10,2ec2 <mp3dec_decode_frame+0x18d4>
    2698:	48000813          	li	a6,1152
    269c:	03098833          	mul	a6,s3,a6
    26a0:	4792                	lw	a5,4(sp)
    26a2:	00b44d03          	lbu	s10,11(s0)
    26a6:	01078c33          	add	s8,a5,a6
    26aa:	020d8463          	beqz	s11,26d2 <mp3dec_decode_frame+0x10e4>
    26ae:	6615                	lui	a2,0x5
    26b0:	85e2                	mv	a1,s8
    26b2:	855e                	mv	a0,s7
    26b4:	86ee                	mv	a3,s11
    26b6:	7f860613          	addi	a2,a2,2040 # 57f8 <g_mdct_window.6762>
    26ba:	afbfe0ef          	jal	ra,11b4 <L3_imdct36>
    26be:	04800713          	li	a4,72
    26c2:	02ed8733          	mul	a4,s11,a4
    26c6:	9bba                	add	s7,s7,a4
    26c8:	02400713          	li	a4,36
    26cc:	02ed8733          	mul	a4,s11,a4
    26d0:	9c3a                	add	s8,s8,a4
    26d2:	02000693          	li	a3,32
    26d6:	4709                	li	a4,2
    26d8:	41b686b3          	sub	a3,a3,s11
    26dc:	02ed14e3          	bne	s10,a4,2f04 <mp3dec_decode_frame+0x1916>
    26e0:	6791                	lui	a5,0x4
    26e2:	07c1                	addi	a5,a5,16
    26e4:	1890                	addi	a2,sp,112
    26e6:	97b2                	add	a5,a5,a2
    26e8:	014b0713          	addi	a4,s6,20
    26ec:	00e78db3          	add	s11,a5,a4
    26f0:	004d8793          	addi	a5,s11,4
    26f4:	09410313          	addi	t1,sp,148
    26f8:	c83e                	sw	a5,16(sp)
    26fa:	008d8a13          	addi	s4,s11,8
    26fe:	851a                	mv	a0,t1
    2700:	85de                	mv	a1,s7
    2702:	04800613          	li	a2,72
    2706:	d436                	sw	a3,40(sp)
    2708:	d01a                	sw	t1,32(sp)
    270a:	47b010ef          	jal	ra,4384 <memcpy>
    270e:	85e2                	mv	a1,s8
    2710:	4661                	li	a2,24
    2712:	855e                	mv	a0,s7
    2714:	471010ef          	jal	ra,4384 <memcpy>
    2718:	018c0d13          	addi	s10,s8,24 # ffffc018 <_eusrstack+0xdfff4018>
    271c:	018b8593          	addi	a1,s7,24
    2720:	866a                	mv	a2,s10
    2722:	856e                	mv	a0,s11
    2724:	d63fe0ef          	jal	ra,1486 <L3_imdct12>
    2728:	4542                	lw	a0,16(sp)
    272a:	030b8593          	addi	a1,s7,48
    272e:	866a                	mv	a2,s10
    2730:	d57fe0ef          	jal	ra,1486 <L3_imdct12>
    2734:	85e2                	mv	a1,s8
    2736:	866a                	mv	a2,s10
    2738:	8552                	mv	a0,s4
    273a:	d4dfe0ef          	jal	ra,1486 <L3_imdct12>
    273e:	56a2                	lw	a3,40(sp)
    2740:	024c0c13          	addi	s8,s8,36
    2744:	048b8b93          	addi	s7,s7,72
    2748:	16fd                	addi	a3,a3,-1
    274a:	5302                	lw	t1,32(sp)
    274c:	facd                	bnez	a3,26fe <mp3dec_decode_frame+0x1110>
    274e:	77fd                	lui	a5,0xfffff
    2750:	70078793          	addi	a5,a5,1792 # fffff700 <_eusrstack+0xdfff7700>
    2754:	97a6                	add	a5,a5,s1
    2756:	873e                	mv	a4,a5
    2758:	04878693          	addi	a3,a5,72
    275c:	631c                	flw	fa5,0(a4)
    275e:	0721                	addi	a4,a4,8
    2760:	20f797d3          	fneg.s	fa5,fa5
    2764:	fef72c27          	fsw	fa5,-8(a4)
    2768:	fee69ae3          	bne	a3,a4,275c <mp3dec_decode_frame+0x116e>
    276c:	09078793          	addi	a5,a5,144
    2770:	fef493e3          	bne	s1,a5,2756 <mp3dec_decode_frame+0x1168>
    2774:	6785                	lui	a5,0x1
    2776:	90078793          	addi	a5,a5,-1792 # 900 <check_fs+0x6e>
    277a:	0985                	addi	s3,s3,1
    277c:	0471                	addi	s0,s0,28
    277e:	94be                	add	s1,s1,a5
    2780:	47f2                	lw	a5,28(sp)
    2782:	e8f9c5e3          	blt	s3,a5,260c <mp3dec_decode_frame+0x101e>
    2786:	4712                	lw	a4,4(sp)
    2788:	6785                	lui	a5,0x1
    278a:	90078793          	addi	a5,a5,-1792 # 900 <check_fs+0x6e>
    278e:	97ba                	add	a5,a5,a4
    2790:	da3e                	sw	a5,52(sp)
    2792:	47b2                	lw	a5,12(sp)
    2794:	7ef1                	lui	t4,0xffffc
    2796:	1898                	addi	a4,sp,112
    2798:	0087ac03          	lw	s8,8(a5)
    279c:	000067b7          	lui	a5,0x6
    27a0:	5407a587          	flw	fa1,1344(a5) # 6540 <halfrate.6399+0x1fc>
    27a4:	000067b7          	lui	a5,0x6
    27a8:	5447a507          	flw	fa0,1348(a5) # 6544 <halfrate.6399+0x200>
    27ac:	000067b7          	lui	a5,0x6
    27b0:	5487a007          	flw	ft0,1352(a5) # 6548 <halfrate.6399+0x204>
    27b4:	000067b7          	lui	a5,0x6
    27b8:	54c7a087          	flw	ft1,1356(a5) # 654c <halfrate.6399+0x208>
    27bc:	000067b7          	lui	a5,0x6
    27c0:	5507a107          	flw	ft2,1360(a5) # 6550 <halfrate.6399+0x20c>
    27c4:	000067b7          	lui	a5,0x6
    27c8:	5547a187          	flw	ft3,1364(a5) # 6554 <halfrate.6399+0x210>
    27cc:	000067b7          	lui	a5,0x6
    27d0:	5587a207          	flw	ft4,1368(a5) # 6558 <halfrate.6399+0x214>
    27d4:	000067b7          	lui	a5,0x6
    27d8:	55c7a287          	flw	ft5,1372(a5) # 655c <halfrate.6399+0x218>
    27dc:	000067b7          	lui	a5,0x6
    27e0:	5607a307          	flw	ft6,1376(a5) # 6560 <halfrate.6399+0x21c>
    27e4:	6791                	lui	a5,0x4
    27e6:	07c1                	addi	a5,a5,16
    27e8:	014e8313          	addi	t1,t4,20 # ffffc014 <_eusrstack+0xdfff4014>
    27ec:	97ba                	add	a5,a5,a4
    27ee:	00678f33          	add	t5,a5,t1
    27f2:	88ca                	mv	a7,s2
    27f4:	4801                	li	a6,0
    27f6:	6f99                	lui	t6,0x6
    27f8:	080f0293          	addi	t0,t5,128
    27fc:	73884563          	blt	a6,s8,2f26 <mp3dec_decode_frame+0x1938>
    2800:	6a11                	lui	s4,0x4
    2802:	1898                	addi	a4,sp,112
    2804:	79f1                	lui	s3,0xffffc
    2806:	010a0793          	addi	a5,s4,16 # 4010 <SPI_Init+0x38>
    280a:	97ba                	add	a5,a5,a4
    280c:	09498993          	addi	s3,s3,148 # ffffc094 <_eusrstack+0xdfff4094>
    2810:	55d2                	lw	a1,52(sp)
    2812:	6509                	lui	a0,0x2
    2814:	99be                	add	s3,s3,a5
    2816:	6485                	lui	s1,0x1
    2818:	e1c50513          	addi	a0,a0,-484 # 1e1c <mp3dec_decode_frame+0x82e>
    281c:	f0048613          	addi	a2,s1,-256 # f00 <get_sample_FIFO+0x14>
    2820:	954e                	add	a0,a0,s3
    2822:	363010ef          	jal	ra,4384 <memcpy>
    2826:	90048693          	addi	a3,s1,-1792
    282a:	fffc0713          	addi	a4,s8,-1
    282e:	02d70733          	mul	a4,a4,a3
    2832:	001c1793          	slli	a5,s8,0x1
    2836:	17f9                	addi	a5,a5,-2
    2838:	b7c48613          	addi	a2,s1,-1156
    283c:	640d                	lui	s0,0x3
    283e:	d43e                	sw	a5,40(sp)
    2840:	e0c40413          	addi	s0,s0,-500 # 2e0c <mp3dec_decode_frame+0x181e>
    2844:	006c1793          	slli	a5,s8,0x6
    2848:	d63e                	sw	a5,44(sp)
    284a:	944e                	add	s0,s0,s3
    284c:	9732                	add	a4,a4,a2
    284e:	00c987b3          	add	a5,s3,a2
    2852:	99ba                	add	s3,s3,a4
    2854:	6711                	lui	a4,0x4
    2856:	0731                	addi	a4,a4,12
    2858:	974a                	add	a4,a4,s2
    285a:	c4ba                	sw	a4,72(sp)
    285c:	5722                	lw	a4,40(sp)
    285e:	72f1                	lui	t0,0xffffc
    2860:	1894                	addi	a3,sp,112
    2862:	00270393          	addi	t2,a4,2 # 4002 <SPI_Init+0x2a>
    2866:	5779                	li	a4,-2
    2868:	02ec0733          	mul	a4,s8,a4
    286c:	01428d13          	addi	s10,t0,20 # ffffc014 <_eusrstack+0xdfff4014>
    2870:	5a92                	lw	s5,36(sp)
    2872:	00428d93          	addi	s11,t0,4
    2876:	7cfd                	lui	s9,0xfffff
    2878:	c0ba                	sw	a4,64(sp)
    287a:	07e00713          	li	a4,126
    287e:	02ec0733          	mul	a4,s8,a4
    2882:	caba                	sw	a4,84(sp)
    2884:	03e00713          	li	a4,62
    2888:	02ec0733          	mul	a4,s8,a4
    288c:	c8ba                	sw	a4,80(sp)
    288e:	04200713          	li	a4,66
    2892:	02ec0733          	mul	a4,s8,a4
    2896:	c6ba                	sw	a4,76(sp)
    2898:	010a0713          	addi	a4,s4,16
    289c:	9736                	add	a4,a4,a3
    289e:	9d3a                	add	s10,s10,a4
    28a0:	010a0713          	addi	a4,s4,16
    28a4:	9736                	add	a4,a4,a3
    28a6:	9dba                	add	s11,s11,a4
    28a8:	010d0713          	addi	a4,s10,16
    28ac:	4807a787          	flw	fa5,1152(a5) # 4480 <iprintf+0x4>
    28b0:	ceba                	sw	a4,92(sp)
    28b2:	5722                	lw	a4,40(sp)
    28b4:	e01c                	fsw	fa5,0(s0)
    28b6:	4809a787          	flw	fa5,1152(s3)
    28ba:	74fd                	lui	s1,0xfffff
    28bc:	01570b33          	add	s6,a4,s5
    28c0:	e05c                	fsw	fa5,4(s0)
    28c2:	639c                	flw	fa5,0(a5)
    28c4:	ccbe                	sw	a5,88(sp)
    28c6:	85e2                	mv	a1,s8
    28c8:	e41c                	fsw	fa5,8(s0)
    28ca:	0009a787          	flw	fa5,0(s3)
    28ce:	855a                	mv	a0,s6
    28d0:	d01e                	sw	t2,32(sp)
    28d2:	e45c                	fsw	fa5,12(s0)
    28d4:	4847a787          	flw	fa5,1156(a5)
    28d8:	4a01                	li	s4,0
    28da:	6b85                	lui	s7,0x1
    28dc:	10f42027          	fsw	fa5,256(s0)
    28e0:	4849a787          	flw	fa5,1156(s3)
    28e4:	10f42227          	fsw	fa5,260(s0)
    28e8:	63dc                	flw	fa5,4(a5)
    28ea:	10448793          	addi	a5,s1,260 # fffff104 <_eusrstack+0xdfff7104>
    28ee:	00f40633          	add	a2,s0,a5
    28f2:	10f42427          	fsw	fa5,264(s0)
    28f6:	0049a787          	flw	fa5,4(s3)
    28fa:	10f42627          	fsw	fa5,268(s0)
    28fe:	a15fe0ef          	jal	ra,1312 <mp3d_synth_pair>
    2902:	5732                	lw	a4,44(sp)
    2904:	57a2                	lw	a5,40(sp)
    2906:	85e2                	mv	a1,s8
    2908:	00e78533          	add	a0,a5,a4
    290c:	20448793          	addi	a5,s1,516
    2910:	00f40633          	add	a2,s0,a5
    2914:	9556                	add	a0,a0,s5
    2916:	9fdfe0ef          	jal	ra,1312 <mp3d_synth_pair>
    291a:	100c8613          	addi	a2,s9,256 # fffff100 <_eusrstack+0xdfff7100>
    291e:	9622                	add	a2,a2,s0
    2920:	85e2                	mv	a1,s8
    2922:	8556                	mv	a0,s5
    2924:	9effe0ef          	jal	ra,1312 <mp3d_synth_pair>
    2928:	57b2                	lw	a5,44(sp)
    292a:	200c8613          	addi	a2,s9,512
    292e:	9622                	add	a2,a2,s0
    2930:	97d6                	add	a5,a5,s5
    2932:	853e                	mv	a0,a5
    2934:	85e2                	mv	a1,s8
    2936:	de3e                	sw	a5,60(sp)
    2938:	9dbfe0ef          	jal	ra,1312 <mp3d_synth_pair>
    293c:	47b6                	lw	a5,76(sp)
    293e:	4f56                	lw	t5,84(sp)
    2940:	5382                	lw	t2,32(sp)
    2942:	c83e                	sw	a5,16(sp)
    2944:	47c6                	lw	a5,80(sp)
    2946:	4776                	lw	a4,92(sp)
    2948:	010c8493          	addi	s1,s9,16
    294c:	ce3e                	sw	a5,28(sp)
    294e:	6799                	lui	a5,0x6
    2950:	f8478913          	addi	s2,a5,-124 # 5f84 <g_win.6851>
    2954:	47e6                	lw	a5,88(sp)
    2956:	94a2                	add	s1,s1,s0
    2958:	43800f93          	li	t6,1080
    295c:	4c800813          	li	a6,1224
    2960:	01078633          	add	a2,a5,a6
    2964:	621c                	flw	fa5,0(a2)
    2966:	6885                	lui	a7,0x1
    2968:	fe088693          	addi	a3,a7,-32 # fe0 <hdr_compare+0x2>
    296c:	00d485b3          	add	a1,s1,a3
    2970:	e19c                	fsw	fa5,0(a1)
    2972:	010986b3          	add	a3,s3,a6
    2976:	629c                	flw	fa5,0(a3)
    2978:	fe488513          	addi	a0,a7,-28
    297c:	9526                	add	a0,a0,s1
    297e:	e11c                	fsw	fa5,0(a0)
    2980:	625c                	flw	fa5,4(a2)
    2982:	fe888613          	addi	a2,a7,-24
    2986:	9626                	add	a2,a2,s1
    2988:	e21c                	fsw	fa5,0(a2)
    298a:	62dc                	flw	fa5,4(a3)
    298c:	fec88693          	addi	a3,a7,-20
    2990:	96a6                	add	a3,a3,s1
    2992:	e29c                	fsw	fa5,0(a3)
    2994:	01f78633          	add	a2,a5,t6
    2998:	625c                	flw	fa5,4(a2)
    299a:	0e088693          	addi	a3,a7,224
    299e:	96a6                	add	a3,a3,s1
    29a0:	e29c                	fsw	fa5,0(a3)
    29a2:	01f986b3          	add	a3,s3,t6
    29a6:	62dc                	flw	fa5,4(a3)
    29a8:	0e488513          	addi	a0,a7,228
    29ac:	9526                	add	a0,a0,s1
    29ae:	e11c                	fsw	fa5,0(a0)
    29b0:	621c                	flw	fa5,0(a2)
    29b2:	ee888613          	addi	a2,a7,-280
    29b6:	9626                	add	a2,a2,s1
    29b8:	e21c                	fsw	fa5,0(a2)
    29ba:	629c                	flw	fa5,0(a3)
    29bc:	767d                	lui	a2,0xfffff
    29be:	eec88693          	addi	a3,a7,-276
    29c2:	00092607          	flw	fa2,0(s2)
    29c6:	00492587          	flw	fa1,4(s2)
    29ca:	96a6                	add	a3,a3,s1
    29cc:	1e060613          	addi	a2,a2,480 # fffff1e0 <_eusrstack+0xdfff71e0>
    29d0:	e29c                	fsw	fa5,0(a3)
    29d2:	00c488b3          	add	a7,s1,a2
    29d6:	4681                	li	a3,0
    29d8:	4541                	li	a0,16
    29da:	00d58633          	add	a2,a1,a3
    29de:	621c                	flw	fa5,0(a2)
    29e0:	6605                	lui	a2,0x1
    29e2:	f0060613          	addi	a2,a2,-256 # f00 <get_sample_FIFO+0x14>
    29e6:	9636                	add	a2,a2,a3
    29e8:	9646                	add	a2,a2,a7
    29ea:	6218                	flw	fa4,0(a2)
    29ec:	00dd0633          	add	a2,s10,a3
    29f0:	10e676d3          	fmul.s	fa3,fa2,fa4
    29f4:	10e5f753          	fmul.s	fa4,fa1,fa4
    29f8:	68f5f6c3          	fmadd.s	fa3,fa1,fa5,fa3
    29fc:	70f677c7          	fmsub.s	fa5,fa2,fa5,fa4
    2a00:	e214                	fsw	fa3,0(a2)
    2a02:	00dd8633          	add	a2,s11,a3
    2a06:	e21c                	fsw	fa5,0(a2)
    2a08:	0691                	addi	a3,a3,4
    2a0a:	fca698e3          	bne	a3,a0,29da <mp3dec_decode_frame+0x13ec>
    2a0e:	76fd                	lui	a3,0xfffff
    2a10:	2e068693          	addi	a3,a3,736 # fffff2e0 <_eusrstack+0xdfff72e0>
    2a14:	00da0e33          	add	t3,s4,a3
    2a18:	00892507          	flw	fa0,8(s2)
    2a1c:	6685                	lui	a3,0x1
    2a1e:	00c92587          	flw	fa1,12(s2)
    2a22:	ee068693          	addi	a3,a3,-288 # ee0 <put_sample_FIFO+0x36>
    2a26:	00d488b3          	add	a7,s1,a3
    2a2a:	fe0a0e93          	addi	t4,s4,-32
    2a2e:	866a                	mv	a2,s10
    2a30:	856e                	mv	a0,s11
    2a32:	85ee                	mv	a1,s11
    2a34:	86ea                	mv	a3,s10
    2a36:	41d88333          	sub	t1,a7,t4
    2a3a:	9372                	add	t1,t1,t3
    2a3c:	00032787          	flw	fa5,0(t1)
    2a40:	0008a707          	flw	fa4,0(a7)
    2a44:	6290                	flw	fa2,0(a3)
    2a46:	10f576d3          	fmul.s	fa3,fa0,fa5
    2a4a:	0691                	addi	a3,a3,4
    2a4c:	0891                	addi	a7,a7,4
    2a4e:	0591                	addi	a1,a1,4
    2a50:	68e5f6c3          	fmadd.s	fa3,fa1,fa4,fa3
    2a54:	10e57753          	fmul.s	fa4,fa0,fa4
    2a58:	00d676d3          	fadd.s	fa3,fa2,fa3
    2a5c:	70f5f7c7          	fmsub.s	fa5,fa1,fa5,fa4
    2a60:	ffc5a707          	flw	fa4,-4(a1) # 3ffc <SPI_Init+0x24>
    2a64:	fed6ae27          	fsw	fa3,-4(a3)
    2a68:	00f777d3          	fadd.s	fa5,fa4,fa5
    2a6c:	fef5ae27          	fsw	fa5,-4(a1)
    2a70:	fcd713e3          	bne	a4,a3,2a36 <mp3dec_decode_frame+0x1448>
    2a74:	76fd                	lui	a3,0xfffff
    2a76:	3e068693          	addi	a3,a3,992 # fffff3e0 <_eusrstack+0xdfff73e0>
    2a7a:	00da0e33          	add	t3,s4,a3
    2a7e:	01092587          	flw	fa1,16(s2)
    2a82:	6685                	lui	a3,0x1
    2a84:	01492507          	flw	fa0,20(s2)
    2a88:	de068693          	addi	a3,a3,-544 # de0 <pf_readdir+0x94>
    2a8c:	00d488b3          	add	a7,s1,a3
    2a90:	ee0a0e93          	addi	t4,s4,-288
    2a94:	85ee                	mv	a1,s11
    2a96:	86ea                	mv	a3,s10
    2a98:	41d88333          	sub	t1,a7,t4
    2a9c:	9372                	add	t1,t1,t3
    2a9e:	00032707          	flw	fa4,0(t1)
    2aa2:	0008a787          	flw	fa5,0(a7)
    2aa6:	6290                	flw	fa2,0(a3)
    2aa8:	10e5f6d3          	fmul.s	fa3,fa1,fa4
    2aac:	10e57753          	fmul.s	fa4,fa0,fa4
    2ab0:	0691                	addi	a3,a3,4
    2ab2:	0891                	addi	a7,a7,4
    2ab4:	0591                	addi	a1,a1,4
    2ab6:	68f576c3          	fmadd.s	fa3,fa0,fa5,fa3
    2aba:	70f5f7c7          	fmsub.s	fa5,fa1,fa5,fa4
    2abe:	ffc5a707          	flw	fa4,-4(a1)
    2ac2:	00d676d3          	fadd.s	fa3,fa2,fa3
    2ac6:	00f777d3          	fadd.s	fa5,fa4,fa5
    2aca:	fed6ae27          	fsw	fa3,-4(a3)
    2ace:	fef5ae27          	fsw	fa5,-4(a1)
    2ad2:	fcd713e3          	bne	a4,a3,2a98 <mp3dec_decode_frame+0x14aa>
    2ad6:	76fd                	lui	a3,0xfffff
    2ad8:	4e068693          	addi	a3,a3,1248 # fffff4e0 <_eusrstack+0xdfff74e0>
    2adc:	00da0e33          	add	t3,s4,a3
    2ae0:	01892507          	flw	fa0,24(s2)
    2ae4:	6685                	lui	a3,0x1
    2ae6:	01c92587          	flw	fa1,28(s2)
    2aea:	ce068693          	addi	a3,a3,-800 # ce0 <pf_lseek+0x70>
    2aee:	00d488b3          	add	a7,s1,a3
    2af2:	de0a0e93          	addi	t4,s4,-544
    2af6:	85ee                	mv	a1,s11
    2af8:	86ea                	mv	a3,s10
    2afa:	41d88333          	sub	t1,a7,t4
    2afe:	9372                	add	t1,t1,t3
    2b00:	00032787          	flw	fa5,0(t1)
    2b04:	0008a707          	flw	fa4,0(a7)
    2b08:	6290                	flw	fa2,0(a3)
    2b0a:	10f576d3          	fmul.s	fa3,fa0,fa5
    2b0e:	0691                	addi	a3,a3,4
    2b10:	0891                	addi	a7,a7,4
    2b12:	0591                	addi	a1,a1,4
    2b14:	68e5f6c3          	fmadd.s	fa3,fa1,fa4,fa3
    2b18:	10e57753          	fmul.s	fa4,fa0,fa4
    2b1c:	00d676d3          	fadd.s	fa3,fa2,fa3
    2b20:	70f5f7c7          	fmsub.s	fa5,fa1,fa5,fa4
    2b24:	ffc5a707          	flw	fa4,-4(a1)
    2b28:	fed6ae27          	fsw	fa3,-4(a3)
    2b2c:	00f777d3          	fadd.s	fa5,fa4,fa5
    2b30:	fef5ae27          	fsw	fa5,-4(a1)
    2b34:	fcd713e3          	bne	a4,a3,2afa <mp3dec_decode_frame+0x150c>
    2b38:	76fd                	lui	a3,0xfffff
    2b3a:	5e068693          	addi	a3,a3,1504 # fffff5e0 <_eusrstack+0xdfff75e0>
    2b3e:	02092587          	flw	fa1,32(s2)
    2b42:	02492507          	flw	fa0,36(s2)
    2b46:	00da0e33          	add	t3,s4,a3
    2b4a:	be0b8693          	addi	a3,s7,-1056 # be0 <pf_read+0x22>
    2b4e:	ce0a0e93          	addi	t4,s4,-800
    2b52:	96a6                	add	a3,a3,s1
    2b54:	88ee                	mv	a7,s11
    2b56:	85ea                	mv	a1,s10
    2b58:	41d68333          	sub	t1,a3,t4
    2b5c:	9372                	add	t1,t1,t3
    2b5e:	00032707          	flw	fa4,0(t1)
    2b62:	629c                	flw	fa5,0(a3)
    2b64:	6190                	flw	fa2,0(a1)
    2b66:	10e5f6d3          	fmul.s	fa3,fa1,fa4
    2b6a:	10e57753          	fmul.s	fa4,fa0,fa4
    2b6e:	0591                	addi	a1,a1,4
    2b70:	0691                	addi	a3,a3,4
    2b72:	0891                	addi	a7,a7,4
    2b74:	68f576c3          	fmadd.s	fa3,fa0,fa5,fa3
    2b78:	70f5f7c7          	fmsub.s	fa5,fa1,fa5,fa4
    2b7c:	ffc8a707          	flw	fa4,-4(a7)
    2b80:	00d676d3          	fadd.s	fa3,fa2,fa3
    2b84:	00f777d3          	fadd.s	fa5,fa4,fa5
    2b88:	fed5ae27          	fsw	fa3,-4(a1)
    2b8c:	fef8ae27          	fsw	fa5,-4(a7)
    2b90:	fcb714e3          	bne	a4,a1,2b58 <mp3dec_decode_frame+0x156a>
    2b94:	02892507          	flw	fa0,40(s2)
    2b98:	02c92587          	flw	fa1,44(s2)
    2b9c:	6e0c8e13          	addi	t3,s9,1760
    2ba0:	ae0b8693          	addi	a3,s7,-1312
    2ba4:	be0a0e93          	addi	t4,s4,-1056
    2ba8:	9e52                	add	t3,t3,s4
    2baa:	96a6                	add	a3,a3,s1
    2bac:	88ee                	mv	a7,s11
    2bae:	85ea                	mv	a1,s10
    2bb0:	41d68333          	sub	t1,a3,t4
    2bb4:	9372                	add	t1,t1,t3
    2bb6:	00032787          	flw	fa5,0(t1)
    2bba:	6298                	flw	fa4,0(a3)
    2bbc:	6190                	flw	fa2,0(a1)
    2bbe:	10f576d3          	fmul.s	fa3,fa0,fa5
    2bc2:	0591                	addi	a1,a1,4
    2bc4:	0691                	addi	a3,a3,4
    2bc6:	0891                	addi	a7,a7,4
    2bc8:	68e5f6c3          	fmadd.s	fa3,fa1,fa4,fa3
    2bcc:	10e57753          	fmul.s	fa4,fa0,fa4
    2bd0:	00d676d3          	fadd.s	fa3,fa2,fa3
    2bd4:	70f5f7c7          	fmsub.s	fa5,fa1,fa5,fa4
    2bd8:	ffc8a707          	flw	fa4,-4(a7)
    2bdc:	fed5ae27          	fsw	fa3,-4(a1)
    2be0:	00f777d3          	fadd.s	fa5,fa4,fa5
    2be4:	fef8ae27          	fsw	fa5,-4(a7)
    2be8:	fcb714e3          	bne	a4,a1,2bb0 <mp3dec_decode_frame+0x15c2>
    2bec:	03092587          	flw	fa1,48(s2)
    2bf0:	03492507          	flw	fa0,52(s2)
    2bf4:	7e0c8e13          	addi	t3,s9,2016
    2bf8:	9e0b8693          	addi	a3,s7,-1568
    2bfc:	ae0a0e93          	addi	t4,s4,-1312
    2c00:	9e52                	add	t3,t3,s4
    2c02:	96a6                	add	a3,a3,s1
    2c04:	88ee                	mv	a7,s11
    2c06:	85ea                	mv	a1,s10
    2c08:	41d68333          	sub	t1,a3,t4
    2c0c:	9372                	add	t1,t1,t3
    2c0e:	00032707          	flw	fa4,0(t1)
    2c12:	629c                	flw	fa5,0(a3)
    2c14:	6190                	flw	fa2,0(a1)
    2c16:	10e5f6d3          	fmul.s	fa3,fa1,fa4
    2c1a:	10e57753          	fmul.s	fa4,fa0,fa4
    2c1e:	0591                	addi	a1,a1,4
    2c20:	0691                	addi	a3,a3,4
    2c22:	0891                	addi	a7,a7,4
    2c24:	68f576c3          	fmadd.s	fa3,fa0,fa5,fa3
    2c28:	70f5f7c7          	fmsub.s	fa5,fa1,fa5,fa4
    2c2c:	ffc8a707          	flw	fa4,-4(a7)
    2c30:	00d676d3          	fadd.s	fa3,fa2,fa3
    2c34:	00f777d3          	fadd.s	fa5,fa4,fa5
    2c38:	fed5ae27          	fsw	fa3,-4(a1)
    2c3c:	fef8ae27          	fsw	fa5,-4(a7)
    2c40:	fcb714e3          	bne	a4,a1,2c08 <mp3dec_decode_frame+0x161a>
    2c44:	03892507          	flw	fa0,56(s2)
    2c48:	04090913          	addi	s2,s2,64
    2c4c:	8e0b8693          	addi	a3,s7,-1824
    2c50:	ffc92587          	flw	fa1,-4(s2)
    2c54:	9e0a0313          	addi	t1,s4,-1568
    2c58:	8e0a0893          	addi	a7,s4,-1824
    2c5c:	96a6                	add	a3,a3,s1
    2c5e:	406685b3          	sub	a1,a3,t1
    2c62:	95c6                	add	a1,a1,a7
    2c64:	619c                	flw	fa5,0(a1)
    2c66:	6298                	flw	fa4,0(a3)
    2c68:	6210                	flw	fa2,0(a2)
    2c6a:	10f576d3          	fmul.s	fa3,fa0,fa5
    2c6e:	0611                	addi	a2,a2,4
    2c70:	0691                	addi	a3,a3,4
    2c72:	0511                	addi	a0,a0,4
    2c74:	68e5f6c3          	fmadd.s	fa3,fa1,fa4,fa3
    2c78:	10e57753          	fmul.s	fa4,fa0,fa4
    2c7c:	00d676d3          	fadd.s	fa3,fa2,fa3
    2c80:	70f5f7c7          	fmsub.s	fa5,fa1,fa5,fa4
    2c84:	ffc52707          	flw	fa4,-4(a0)
    2c88:	fed62e27          	fsw	fa3,-4(a2)
    2c8c:	00f777d3          	fadd.s	fa5,fa4,fa5
    2c90:	fef52e27          	fsw	fa5,-4(a0)
    2c94:	fce615e3          	bne	a2,a4,2c5e <mp3dec_decode_frame+0x1670>
    2c98:	652a                	flw	fa0,136(sp)
    2c9a:	d6ba                	sw	a4,108(sp)
    2c9c:	d4c2                	sw	a6,104(sp)
    2c9e:	d29e                	sw	t2,100(sp)
    2ca0:	d0fe                	sw	t6,96(sp)
    2ca2:	ccfa                	sw	t5,88(sp)
    2ca4:	cebe                	sw	a5,92(sp)
    2ca6:	e28fe0ef          	jal	ra,12ce <mp3d_scale_pcm>
    2caa:	5782                	lw	a5,32(sp)
    2cac:	656a                	flw	fa0,152(sp)
    2cae:	1a41                	addi	s4,s4,-16
    2cb0:	00fb06b3          	add	a3,s6,a5
    2cb4:	a28a                	sh	a0,0(a3)
    2cb6:	e18fe0ef          	jal	ra,12ce <mp3d_scale_pcm>
    2cba:	47f2                	lw	a5,28(sp)
    2cbc:	651a                	flw	fa0,132(sp)
    2cbe:	14c1                	addi	s1,s1,-16
    2cc0:	00fb06b3          	add	a3,s6,a5
    2cc4:	a28a                	sh	a0,0(a3)
    2cc6:	e08fe0ef          	jal	ra,12ce <mp3d_scale_pcm>
    2cca:	5782                	lw	a5,32(sp)
    2ccc:	655a                	flw	fa0,148(sp)
    2cce:	00fa86b3          	add	a3,s5,a5
    2cd2:	a28a                	sh	a0,0(a3)
    2cd4:	dfafe0ef          	jal	ra,12ce <mp3d_scale_pcm>
    2cd8:	47f2                	lw	a5,28(sp)
    2cda:	654a                	flw	fa0,144(sp)
    2cdc:	00fa86b3          	add	a3,s5,a5
    2ce0:	a28a                	sh	a0,0(a3)
    2ce2:	decfe0ef          	jal	ra,12ce <mp3d_scale_pcm>
    2ce6:	47c2                	lw	a5,16(sp)
    2ce8:	750a                	flw	fa0,160(sp)
    2cea:	00fb06b3          	add	a3,s6,a5
    2cee:	a28a                	sh	a0,0(a3)
    2cf0:	ddefe0ef          	jal	ra,12ce <mp3d_scale_pcm>
    2cf4:	4f66                	lw	t5,88(sp)
    2cf6:	653a                	flw	fa0,140(sp)
    2cf8:	01eb06b3          	add	a3,s6,t5
    2cfc:	a28a                	sh	a0,0(a3)
    2cfe:	dd0fe0ef          	jal	ra,12ce <mp3d_scale_pcm>
    2d02:	47c2                	lw	a5,16(sp)
    2d04:	657a                	flw	fa0,156(sp)
    2d06:	00fa86b3          	add	a3,s5,a5
    2d0a:	a28a                	sh	a0,0(a3)
    2d0c:	dc2fe0ef          	jal	ra,12ce <mp3d_scale_pcm>
    2d10:	5782                	lw	a5,32(sp)
    2d12:	5396                	lw	t2,100(sp)
    2d14:	4f66                	lw	t5,88(sp)
    2d16:	4706                	lw	a4,64(sp)
    2d18:	979e                	add	a5,a5,t2
    2d1a:	d03e                	sw	a5,32(sp)
    2d1c:	4786                	lw	a5,64(sp)
    2d1e:	01ea86b3          	add	a3,s5,t5
    2d22:	a28a                	sh	a0,0(a3)
    2d24:	9f3e                	add	t5,t5,a5
    2d26:	47f2                	lw	a5,28(sp)
    2d28:	5826                	lw	a6,104(sp)
    2d2a:	f1000693          	li	a3,-240
    2d2e:	97ba                	add	a5,a5,a4
    2d30:	ce3e                	sw	a5,28(sp)
    2d32:	47c2                	lw	a5,16(sp)
    2d34:	5f86                	lw	t6,96(sp)
    2d36:	04880813          	addi	a6,a6,72
    2d3a:	979e                	add	a5,a5,t2
    2d3c:	c83e                	sw	a5,16(sp)
    2d3e:	fb8f8f93          	addi	t6,t6,-72 # 5fb8 <g_win.6851+0x34>
    2d42:	47f6                	lw	a5,92(sp)
    2d44:	5736                	lw	a4,108(sp)
    2d46:	c0da1de3          	bne	s4,a3,2960 <mp3dec_decode_frame+0x1372>
    2d4a:	56b2                	lw	a3,44(sp)
    2d4c:	5672                	lw	a2,60(sp)
    2d4e:	20040413          	addi	s0,s0,512
    2d52:	07a1                	addi	a5,a5,8
    2d54:	00c68ab3          	add	s5,a3,a2
    2d58:	46a6                	lw	a3,72(sp)
    2d5a:	09a1                	addi	s3,s3,8
    2d5c:	b48698e3          	bne	a3,s0,28ac <mp3dec_decode_frame+0x12be>
    2d60:	77f1                	lui	a5,0xffffc
    2d62:	658d                	lui	a1,0x3
    2d64:	4705                	li	a4,1
    2d66:	09478793          	addi	a5,a5,148 # ffffc094 <_eusrstack+0xdfff4094>
    2d6a:	05f1                	addi	a1,a1,28
    2d6c:	38ec1363          	bne	s8,a4,30f2 <mp3dec_decode_frame+0x1b04>
    2d70:	6711                	lui	a4,0x4
    2d72:	1894                	addi	a3,sp,112
    2d74:	0741                	addi	a4,a4,16
    2d76:	9736                	add	a4,a4,a3
    2d78:	97ba                	add	a5,a5,a4
    2d7a:	4712                	lw	a4,4(sp)
    2d7c:	95be                	add	a1,a1,a5
    2d7e:	6785                	lui	a5,0x1
    2d80:	90078793          	addi	a5,a5,-1792 # 900 <check_fs+0x6e>
    2d84:	4692                	lw	a3,4(sp)
    2d86:	97ba                	add	a5,a5,a4
    2d88:	6709                	lui	a4,0x2
    2d8a:	80070713          	addi	a4,a4,-2048 # 1800 <mp3dec_decode_frame+0x212>
    2d8e:	9736                	add	a4,a4,a3
    2d90:	619c                	flw	fa5,0(a1)
    2d92:	07a1                	addi	a5,a5,8
    2d94:	05a1                	addi	a1,a1,8
    2d96:	fef7ac27          	fsw	fa5,-8(a5)
    2d9a:	fee79be3          	bne	a5,a4,2d90 <mp3dec_decode_frame+0x17a2>
    2d9e:	47e2                	lw	a5,24(sp)
    2da0:	0785                	addi	a5,a5,1
    2da2:	cc3e                	sw	a5,24(sp)
    2da4:	47b2                	lw	a5,12(sp)
    2da6:	4798                	lw	a4,8(a5)
    2da8:	48000793          	li	a5,1152
    2dac:	02e787b3          	mul	a5,a5,a4
    2db0:	5712                	lw	a4,36(sp)
    2db2:	97ba                	add	a5,a5,a4
    2db4:	d23e                	sw	a5,36(sp)
    2db6:	47a2                	lw	a5,8(sp)
    2db8:	4762                	lw	a4,24(sp)
    2dba:	339c                	lbu	a5,1(a5)
    2dbc:	8ba1                	andi	a5,a5,8
    2dbe:	00f037b3          	snez	a5,a5
    2dc2:	0785                	addi	a5,a5,1
    2dc4:	00f74463          	blt	a4,a5,2dcc <mp3dec_decode_frame+0x17de>
    2dc8:	da9fe06f          	j	1b70 <mp3dec_decode_frame+0x582>
    2dcc:	6791                	lui	a5,0x4
    2dce:	1898                	addi	a4,sp,112
    2dd0:	7971                	lui	s2,0xffffc
    2dd2:	07c1                	addi	a5,a5,16
    2dd4:	97ba                	add	a5,a5,a4
    2dd6:	6405                	lui	s0,0x1
    2dd8:	09490913          	addi	s2,s2,148 # ffffc094 <_eusrstack+0xdfff4094>
    2ddc:	993e                	add	s2,s2,a5
    2dde:	b7c40513          	addi	a0,s0,-1156 # b7c <pf_open+0xc>
    2de2:	20040613          	addi	a2,s0,512
    2de6:	4581                	li	a1,0
    2de8:	954a                	add	a0,a0,s2
    2dea:	c36fd0ef          	jal	ra,220 <memset>
    2dee:	47b2                	lw	a5,12(sp)
    2df0:	4762                	lw	a4,24(sp)
    2df2:	b0c40413          	addi	s0,s0,-1268
    2df6:	479c                	lw	a5,8(a5)
    2df8:	944a                	add	s0,s0,s2
    2dfa:	d04a                	sw	s2,32(sp)
    2dfc:	ce3e                	sw	a5,28(sp)
    2dfe:	02e787b3          	mul	a5,a5,a4
    2e02:	4771                	li	a4,28
    2e04:	8b4a                	mv	s6,s2
    2e06:	4981                	li	s3,0
    2e08:	02e787b3          	mul	a5,a5,a4
    2e0c:	943e                	add	s0,s0,a5
    2e0e:	000067b7          	lui	a5,0x6
    2e12:	5347a487          	flw	fs1,1332(a5) # 6534 <halfrate.6399+0x1f0>
    2e16:	00f40493          	addi	s1,s0,15
    2e1a:	47f2                	lw	a5,28(sp)
    2e1c:	00f9d463          	bge	s3,a5,2e24 <mp3dec_decode_frame+0x1836>
    2e20:	df5fe06f          	j	1c14 <mp3dec_decode_frame+0x626>
    2e24:	4712                	lw	a4,4(sp)
    2e26:	6789                	lui	a5,0x2
    2e28:	97ba                	add	a5,a5,a4
    2e2a:	80b7c783          	lbu	a5,-2037(a5) # 180b <mp3dec_decode_frame+0x21d>
    2e2e:	0107f713          	andi	a4,a5,16
    2e32:	fa070663          	beqz	a4,25de <mp3dec_decode_frame+0xff0>
    2e36:	3448                	lbu	a0,13(s0)
    2e38:	247c                	lbu	a5,14(s0)
    2e3a:	46d2                	lw	a3,20(sp)
    2e3c:	00f508b3          	add	a7,a0,a5
    2e40:	e391                	bnez	a5,2e44 <mp3dec_decode_frame+0x1856>
    2e42:	4685                	li	a3,1
    2e44:	6611                	lui	a2,0x4
    2e46:	7771                	lui	a4,0xffffc
    2e48:	0641                	addi	a2,a2,16
    2e4a:	188c                	addi	a1,sp,112
    2e4c:	962e                	add	a2,a2,a1
    2e4e:	09470713          	addi	a4,a4,148 # ffffc094 <_eusrstack+0xdfff4094>
    2e52:	9732                	add	a4,a4,a2
    2e54:	00042803          	lw	a6,0(s0)
    2e58:	6605                	lui	a2,0x1
    2e5a:	f0000753          	fmv.w.x	fa4,zero
    2e5e:	57fd                	li	a5,-1
    2e60:	47c60613          	addi	a2,a2,1148 # 147c <hdr_padding+0x10>
    2e64:	cf3e                	sw	a5,156(sp)
    2e66:	cd3e                	sw	a5,152(sp)
    2e68:	cb3e                	sw	a5,148(sp)
    2e6a:	963a                	add	a2,a2,a4
    2e6c:	4781                	li	a5,0
    2e6e:	4e0d                	li	t3,3
    2e70:	7ef1                	lui	t4,0xffffc
    2e72:	d6f88a63          	beq	a7,a5,23e6 <mp3dec_decode_frame+0xdf8>
    2e76:	00f80733          	add	a4,a6,a5
    2e7a:	230c                	lbu	a1,0(a4)
    2e7c:	4301                	li	t1,0
    2e7e:	8732                	mv	a4,a2
    2e80:	d2aff06f          	j	23aa <mp3dec_decode_frame+0xdbc>
    2e84:	00271f13          	slli	t5,a4,0x2
    2e88:	4881                	li	a7,0
    2e8a:	85b2                	mv	a1,a2
    2e8c:	86f2                	mv	a3,t3
    2e8e:	629c                	flw	fa5,0(a3)
    2e90:	01e68833          	add	a6,a3,t5
    2e94:	05b1                	addi	a1,a1,12
    2e96:	fef5aa27          	fsw	fa5,-12(a1) # 2ff4 <mp3dec_decode_frame+0x1a06>
    2e9a:	00082787          	flw	fa5,0(a6)
    2e9e:	987a                	add	a6,a6,t5
    2ea0:	0885                	addi	a7,a7,1
    2ea2:	fef5ac27          	fsw	fa5,-8(a1)
    2ea6:	00082787          	flw	fa5,0(a6)
    2eaa:	0691                	addi	a3,a3,4
    2eac:	fef5ae27          	fsw	fa5,-4(a1)
    2eb0:	fce8cfe3          	blt	a7,a4,2e8e <mp3dec_decode_frame+0x18a0>
    2eb4:	03d70733          	mul	a4,a4,t4
    2eb8:	030d                	addi	t1,t1,3
    2eba:	963a                	add	a2,a2,a4
    2ebc:	9e3a                	add	t3,t3,a4
    2ebe:	fbcff06f          	j	267a <mp3dec_decode_frame+0x108c>
    2ec2:	6795                	lui	a5,0x5
    2ec4:	ffc70593          	addi	a1,a4,-4
    2ec8:	77c78693          	addi	a3,a5,1916 # 577c <g_aa.6667>
    2ecc:	863a                	mv	a2,a4
    2ece:	02070513          	addi	a0,a4,32
    2ed2:	6198                	flw	fa4,0(a1)
    2ed4:	7290                	flw	fa2,32(a3)
    2ed6:	628c                	flw	fa1,0(a3)
    2ed8:	621c                	flw	fa5,0(a2)
    2eda:	10c776d3          	fmul.s	fa3,fa4,fa2
    2ede:	10b77753          	fmul.s	fa4,fa4,fa1
    2ee2:	0611                	addi	a2,a2,4
    2ee4:	15f1                	addi	a1,a1,-4
    2ee6:	0691                	addi	a3,a3,4
    2ee8:	68b7f6c7          	fmsub.s	fa3,fa5,fa1,fa3
    2eec:	70c7f7c3          	fmadd.s	fa5,fa5,fa2,fa4
    2ef0:	fed62e27          	fsw	fa3,-4(a2)
    2ef4:	e1dc                	fsw	fa5,4(a1)
    2ef6:	fcc51ee3          	bne	a0,a2,2ed2 <mp3dec_decode_frame+0x18e4>
    2efa:	1d7d                	addi	s10,s10,-1
    2efc:	04870713          	addi	a4,a4,72
    2f00:	f94ff06f          	j	2694 <mp3dec_decode_frame+0x10a6>
    2f04:	1d75                	addi	s10,s10,-3
    2f06:	04800613          	li	a2,72
    2f0a:	001d3d13          	seqz	s10,s10
    2f0e:	02cd0d33          	mul	s10,s10,a2
    2f12:	6615                	lui	a2,0x5
    2f14:	7f860613          	addi	a2,a2,2040 # 57f8 <g_mdct_window.6762>
    2f18:	85e2                	mv	a1,s8
    2f1a:	855e                	mv	a0,s7
    2f1c:	966a                	add	a2,a2,s10
    2f1e:	a96fe0ef          	jal	ra,11b4 <L3_imdct36>
    2f22:	82dff06f          	j	274e <mp3dec_decode_frame+0x1160>
    2f26:	6705                	lui	a4,0x1
    2f28:	35c70713          	addi	a4,a4,860 # 135c <mp3d_synth_pair+0x4a>
    2f2c:	9746                	add	a4,a4,a7
    2f2e:	4e01                	li	t3,0
    2f30:	43c9                	li	t2,18
    2f32:	6691                	lui	a3,0x4
    2f34:	06c1                	addi	a3,a3,16
    2f36:	1880                	addi	s0,sp,112
    2f38:	82070513          	addi	a0,a4,-2016
    2f3c:	96a2                	add	a3,a3,s0
    2f3e:	87aa                	mv	a5,a0
    2f40:	c5870613          	addi	a2,a4,-936
    2f44:	ec4f8593          	addi	a1,t6,-316
    2f48:	969a                	add	a3,a3,t1
    2f4a:	a1870093          	addi	ra,a4,-1512
    2f4e:	48052387          	flw	ft7,1152(a0)
    2f52:	48062607          	flw	fa2,1152(a2)
    2f56:	6118                	flw	fa4,0(a0)
    2f58:	621c                	flw	fa5,0(a2)
    2f5a:	fb860613          	addi	a2,a2,-72
    2f5e:	00c776d3          	fadd.s	fa3,fa4,fa2
    2f62:	0077f853          	fadd.s	fa6,fa5,ft7
    2f66:	08c77753          	fsub.s	fa4,fa4,fa2
    2f6a:	61d0                	flw	fa2,4(a1)
    2f6c:	0877f7d3          	fsub.s	fa5,fa5,ft7
    2f70:	0005a387          	flw	ft7,0(a1)
    2f74:	0691                	addi	a3,a3,4
    2f76:	10c77753          	fmul.s	fa4,fa4,fa2
    2f7a:	0106f653          	fadd.s	fa2,fa3,fa6
    2f7e:	0906f6d3          	fsub.s	fa3,fa3,fa6
    2f82:	04850513          	addi	a0,a0,72
    2f86:	05b1                	addi	a1,a1,12
    2f88:	fec6ae27          	fsw	fa2,-4(a3) # 3ffc <SPI_Init+0x24>
    2f8c:	ffc5a607          	flw	fa2,-4(a1)
    2f90:	10c6f6d3          	fmul.s	fa3,fa3,fa2
    2f94:	eed4                	fsw	fa3,28(a3)
    2f96:	7077f6c3          	fmadd.s	fa3,fa5,ft7,fa4
    2f9a:	7077f7cb          	fnmsub.s	fa5,fa5,ft7,fa4
    2f9e:	fed4                	fsw	fa3,60(a3)
    2fa0:	10c7f7d3          	fmul.s	fa5,fa5,fa2
    2fa4:	eefc                	fsw	fa5,92(a3)
    2fa6:	fac094e3          	bne	ra,a2,2f4e <mp3dec_decode_frame+0x1960>
    2faa:	6691                	lui	a3,0x4
    2fac:	06c1                	addi	a3,a3,16
    2fae:	1890                	addi	a2,sp,112
    2fb0:	96b2                	add	a3,a3,a2
    2fb2:	969a                	add	a3,a3,t1
    2fb4:	6298                	flw	fa4,0(a3)
    2fb6:	0106ae07          	flw	ft8,16(a3) # 4010 <SPI_Init+0x38>
    2fba:	0146af07          	flw	ft10,20(a3)
    2fbe:	6e94                	flw	fa3,24(a3)
    2fc0:	62dc                	flw	fa5,4(a3)
    2fc2:	0086a807          	flw	fa6,8(a3)
    2fc6:	00c6a887          	flw	fa7,12(a3)
    2fca:	6ed0                	flw	fa2,28(a3)
    2fcc:	08d7f3d3          	fsub.s	ft7,fa5,fa3
    2fd0:	00d7f7d3          	fadd.s	fa5,fa5,fa3
    2fd4:	08c77ed3          	fsub.s	ft9,fa4,fa2
    2fd8:	09e876d3          	fsub.s	fa3,fa6,ft10
    2fdc:	00c77653          	fadd.s	fa2,fa4,fa2
    2fe0:	01e87853          	fadd.s	fa6,fa6,ft10
    2fe4:	09c8f753          	fsub.s	fa4,fa7,ft8
    2fe8:	01c8f8d3          	fadd.s	fa7,fa7,ft8
    2fec:	02068693          	addi	a3,a3,32
    2ff0:	00e6f753          	fadd.s	fa4,fa3,fa4
    2ff4:	09167e53          	fsub.s	ft8,fa2,fa7
    2ff8:	01167653          	fadd.s	fa2,fa2,fa7
    2ffc:	0107f8d3          	fadd.s	fa7,fa5,fa6
    3000:	00d3f6d3          	fadd.s	fa3,ft7,fa3
    3004:	0907f7d3          	fsub.s	fa5,fa5,fa6
    3008:	01167f53          	fadd.s	ft10,fa2,fa7
    300c:	09167653          	fsub.s	fa2,fa2,fa7
    3010:	e8b6f84b          	fnmsub.s	fa6,fa3,fa1,ft9
    3014:	e8b6f6c3          	fmadd.s	fa3,fa3,fa1,ft9
    3018:	01c7f7d3          	fadd.s	fa5,fa5,ft8
    301c:	ffe6a027          	fsw	ft10,-32(a3)
    3020:	10b67653          	fmul.s	fa2,fa2,fa1
    3024:	fec6a827          	fsw	fa2,-16(a3)
    3028:	007ef653          	fadd.s	fa2,ft9,ft7
    302c:	70a6774b          	fnmsub.s	fa4,fa2,fa0,fa4
    3030:	60077643          	fmadd.s	fa2,fa4,ft0,fa2
    3034:	00d673d3          	fadd.s	ft7,fa2,fa3
    3038:	70a6774b          	fnmsub.s	fa4,fa2,fa0,fa4
    303c:	08c6f6d3          	fsub.s	fa3,fa3,fa2
    3040:	1013f3d3          	fmul.s	ft7,ft7,ft1
    3044:	1066f6d3          	fmul.s	fa3,fa3,ft6
    3048:	fe76a227          	fsw	ft7,-28(a3)
    304c:	e0b7f3c3          	fmadd.s	ft7,fa5,fa1,ft8
    3050:	e0b7f7cb          	fnmsub.s	fa5,fa5,fa1,ft8
    3054:	fed6ae27          	fsw	fa3,-4(a3)
    3058:	1023f3d3          	fmul.s	ft7,ft7,ft2
    305c:	1057f7d3          	fmul.s	fa5,fa5,ft5
    3060:	fe76a427          	fsw	ft7,-24(a3)
    3064:	08e873d3          	fsub.s	ft7,fa6,fa4
    3068:	01077753          	fadd.s	fa4,fa4,fa6
    306c:	fef6ac27          	fsw	fa5,-8(a3)
    3070:	1033f3d3          	fmul.s	ft7,ft7,ft3
    3074:	10477753          	fmul.s	fa4,fa4,ft4
    3078:	fe76a627          	fsw	ft7,-20(a3)
    307c:	fee6aa27          	fsw	fa4,-12(a3)
    3080:	f2569ae3          	bne	a3,t0,2fb4 <mp3dec_decode_frame+0x19c6>
    3084:	86fa                	mv	a3,t5
    3086:	629c                	flw	fa5,0(a3)
    3088:	62b8                	flw	fa4,64(a3)
    308a:	72f4                	flw	fa3,100(a3)
    308c:	e39c                	fsw	fa5,0(a5)
    308e:	72bc                	flw	fa5,96(a3)
    3090:	72d0                	flw	fa2,36(a3)
    3092:	12078793          	addi	a5,a5,288
    3096:	00e7f753          	fadd.s	fa4,fa5,fa4
    309a:	0691                	addi	a3,a3,4
    309c:	00d77753          	fadd.s	fa4,fa4,fa3
    30a0:	f2e7a427          	fsw	fa4,-216(a5)
    30a4:	6ed8                	flw	fa4,28(a3)
    30a6:	00c77753          	fadd.s	fa4,fa4,fa2
    30aa:	f6e7a827          	fsw	fa4,-144(a5)
    30ae:	62b8                	flw	fa4,64(a3)
    30b0:	00e7f7d3          	fadd.s	fa5,fa5,fa4
    30b4:	00d7f7d3          	fadd.s	fa5,fa5,fa3
    30b8:	faf7ac27          	fsw	fa5,-72(a5)
    30bc:	fce795e3          	bne	a5,a4,3086 <mp3dec_decode_frame+0x1a98>
    30c0:	77ca                	flw	fa5,176(sp)
    30c2:	11012707          	flw	fa4,272(sp)
    30c6:	0e05                	addi	t3,t3,1
    30c8:	e39c                	fsw	fa5,0(a5)
    30ca:	77ce                	flw	fa5,240(sp)
    30cc:	0ce7ac27          	fsw	fa4,216(a5)
    30d0:	00478713          	addi	a4,a5,4
    30d4:	00e7f7d3          	fadd.s	fa5,fa5,fa4
    30d8:	e7bc                	fsw	fa5,72(a5)
    30da:	67ce                	flw	fa5,208(sp)
    30dc:	08f7a827          	fsw	fa5,144(a5)
    30e0:	e47e19e3          	bne	t3,t2,2f32 <mp3dec_decode_frame+0x1944>
    30e4:	6785                	lui	a5,0x1
    30e6:	90078793          	addi	a5,a5,-1792 # 900 <check_fs+0x6e>
    30ea:	0805                	addi	a6,a6,1
    30ec:	98be                	add	a7,a7,a5
    30ee:	f0eff06f          	j	27fc <mp3dec_decode_frame+0x120e>
    30f2:	6711                	lui	a4,0x4
    30f4:	1894                	addi	a3,sp,112
    30f6:	0741                	addi	a4,a4,16
    30f8:	9736                	add	a4,a4,a3
    30fa:	5552                	lw	a0,52(sp)
    30fc:	97ba                	add	a5,a5,a4
    30fe:	6605                	lui	a2,0x1
    3100:	f0060613          	addi	a2,a2,-256 # f00 <get_sample_FIFO+0x14>
    3104:	95be                	add	a1,a1,a5
    3106:	27e010ef          	jal	ra,4384 <memcpy>
    310a:	b951                	j	2d9e <mp3dec_decode_frame+0x17b0>
    310c:	000067b7          	lui	a5,0x6
    3110:	cc02                	sw	zero,24(sp)
    3112:	5287a407          	flw	fs0,1320(a5) # 6528 <halfrate.6399+0x1e4>
    3116:	b145                	j	2db6 <mp3dec_decode_frame+0x17c8>
    3118:	e0140413          	addi	s0,s0,-511
    311c:	97a2                	add	a5,a5,s0
    311e:	1ff00413          	li	s0,511
    3122:	6711                	lui	a4,0x4
    3124:	1894                	addi	a3,sp,112
    3126:	0741                	addi	a4,a4,16
    3128:	9736                	add	a4,a4,a3
    312a:	75f1                	lui	a1,0xffffc
    312c:	95ba                	add	a1,a1,a4
    312e:	5562                	lw	a0,56(sp)
    3130:	0a058593          	addi	a1,a1,160 # ffffc0a0 <_eusrstack+0xdfff40a0>
    3134:	8622                	mv	a2,s0
    3136:	95be                	add	a1,a1,a5
    3138:	24c010ef          	jal	ra,4384 <memcpy>
    313c:	a69fe06f          	j	1ba4 <mp3dec_decode_frame+0x5b6>
    3140:	019d07b3          	add	a5,s10,s9
    3144:	00f95463          	bge	s2,a5,314c <mp3dec_decode_frame+0x1b5e>
    3148:	d80fe06f          	j	16c8 <mp3dec_decode_frame+0xda>
    314c:	4b81                	li	s7,0
    314e:	4d81                	li	s11,0
    3150:	41a90c33          	sub	s8,s2,s10
    3154:	01b486b3          	add	a3,s1,s11
    3158:	85a2                	mv	a1,s0
    315a:	8536                	mv	a0,a3
    315c:	c836                	sw	a3,16(sp)
    315e:	c00fe0ef          	jal	ra,155e <hdr_frame_bytes>
    3162:	46c2                	lw	a3,16(sp)
    3164:	c42a                	sw	a0,8(sp)
    3166:	8536                	mv	a0,a3
    3168:	b04fe0ef          	jal	ra,146c <hdr_padding>
    316c:	4722                	lw	a4,8(sp)
    316e:	953a                	add	a0,a0,a4
    3170:	9daa                	add	s11,s11,a0
    3172:	003d8713          	addi	a4,s11,3
    3176:	01875463          	bge	a4,s8,317e <mp3dec_decode_frame+0x1b90>
    317a:	da4fe06f          	j	171e <mp3dec_decode_frame+0x130>
    317e:	000b9463          	bnez	s7,3186 <mp3dec_decode_frame+0x1b98>
    3182:	d46fe06f          	j	16c8 <mp3dec_decode_frame+0xda>
    3186:	000c8463          	beqz	s9,318e <mp3dec_decode_frame+0x1ba0>
    318a:	db4fe06f          	j	173e <mp3dec_decode_frame+0x150>
    318e:	8cea                	mv	s9,s10
    3190:	cfefe06f          	j	168e <mp3dec_decode_frame+0xa0>

00003194 <Dac_Init>:
    3194:	85cfd2ef          	jal	t0,1f0 <__riscv_save_0>
    3198:	1101                	addi	sp,sp,-32
    319a:	4585                	li	a1,1
    319c:	4511                	li	a0,4
    319e:	c202                	sw	zero,4(sp)
    31a0:	c402                	sw	zero,8(sp)
    31a2:	c602                	sw	zero,12(sp)
    31a4:	c802                	sw	zero,16(sp)
    31a6:	ca02                	sw	zero,20(sp)
    31a8:	cc02                	sw	zero,24(sp)
    31aa:	ce02                	sw	zero,28(sp)
    31ac:	5f1000ef          	jal	ra,3f9c <RCC_APB2PeriphClockCmd>
    31b0:	4585                	li	a1,1
    31b2:	20000537          	lui	a0,0x20000
    31b6:	605000ef          	jal	ra,3fba <RCC_APB1PeriphClockCmd>
    31ba:	02000793          	li	a5,32
    31be:	40011537          	lui	a0,0x40011
    31c2:	827c                	sh	a5,4(sp)
    31c4:	004c                	addi	a1,sp,4
    31c6:	478d                	li	a5,3
    31c8:	80050513          	addi	a0,a0,-2048 # 40010800 <_eusrstack+0x20008800>
    31cc:	c43e                	sw	a5,8(sp)
    31ce:	c602                	sw	zero,12(sp)
    31d0:	35f000ef          	jal	ra,3d2e <GPIO_Init>
    31d4:	02c00793          	li	a5,44
    31d8:	080c                	addi	a1,sp,16
    31da:	4541                	li	a0,16
    31dc:	c83e                	sw	a5,16(sp)
    31de:	ca02                	sw	zero,20(sp)
    31e0:	ce02                	sw	zero,28(sp)
    31e2:	1bd000ef          	jal	ra,3b9e <DAC_Init>
    31e6:	4585                	li	a1,1
    31e8:	4541                	li	a0,16
    31ea:	1e5000ef          	jal	ra,3bce <DAC_Cmd>
    31ee:	4585                	li	a1,1
    31f0:	4541                	li	a0,16
    31f2:	209000ef          	jal	ra,3bfa <DAC_DMACmd>
    31f6:	6105                	addi	sp,sp,32
    31f8:	81cfd06f          	j	214 <__riscv_restore_0>

000031fc <Dac_Dma_Init>:
    31fc:	ff5fc2ef          	jal	t0,1f0 <__riscv_save_0>
    3200:	7179                	addi	sp,sp,-48
    3202:	02c00613          	li	a2,44
    3206:	4581                	li	a1,0
    3208:	0048                	addi	a0,sp,4
    320a:	816fd0ef          	jal	ra,220 <memset>
    320e:	4585                	li	a1,1
    3210:	4509                	li	a0,2
    3212:	56d000ef          	jal	ra,3f7e <RCC_AHBPeriphClockCmd>
    3216:	0048                	addi	a0,sp,4
    3218:	251000ef          	jal	ra,3c68 <DMA_StructInit>
    321c:	400077b7          	lui	a5,0x40007
    3220:	41478793          	addi	a5,a5,1044 # 40007414 <_eusrstack+0x1ffff414>
    3224:	c23e                	sw	a5,4(sp)
    3226:	85418793          	addi	a5,gp,-1964 # 200000d4 <DAC_Value>
    322a:	c43e                	sw	a5,8(sp)
    322c:	47c1                	li	a5,16
    322e:	c63e                	sw	a5,12(sp)
    3230:	08000793          	li	a5,128
    3234:	c83e                	sw	a5,16(sp)
    3236:	cc3e                	sw	a5,24(sp)
    3238:	10000793          	li	a5,256
    323c:	ce3e                	sw	a5,28(sp)
    323e:	40000793          	li	a5,1024
    3242:	40020437          	lui	s0,0x40020
    3246:	d03e                	sw	a5,32(sp)
    3248:	02000793          	li	a5,32
    324c:	d23e                	sw	a5,36(sp)
    324e:	004c                	addi	a1,sp,4
    3250:	678d                	lui	a5,0x3
    3252:	44440513          	addi	a0,s0,1092 # 40020444 <_eusrstack+0x20018444>
    3256:	d43e                	sw	a5,40(sp)
    3258:	ca02                	sw	zero,20(sp)
    325a:	d602                	sw	zero,44(sp)
    325c:	1d5000ef          	jal	ra,3c30 <DMA_Init>
    3260:	44440513          	addi	a0,s0,1092
    3264:	4605                	li	a2,1
    3266:	4589                	li	a1,2
    3268:	243000ef          	jal	ra,3caa <DMA_ITConfig>
    326c:	4605                	li	a2,1
    326e:	44440513          	addi	a0,s0,1092
    3272:	4591                	li	a1,4
    3274:	237000ef          	jal	ra,3caa <DMA_ITConfig>
    3278:	6785                	lui	a5,0x1
    327a:	e000e737          	lui	a4,0xe000e
    327e:	80078793          	addi	a5,a5,-2048 # 800 <get_fat+0x3a>
    3282:	10f72423          	sw	a5,264(a4) # e000e108 <_eusrstack+0xc0006108>
    3286:	4585                	li	a1,1
    3288:	44440513          	addi	a0,s0,1092
    328c:	20b000ef          	jal	ra,3c96 <DMA_Cmd>
    3290:	6145                	addi	sp,sp,48
    3292:	f83fc06f          	j	214 <__riscv_restore_0>

00003296 <DMA2_Channel4_IRQHandler>:
    3296:	7159                	addi	sp,sp,-112
    3298:	10004537          	lui	a0,0x10004
    329c:	d6a2                	sw	s0,108(sp)
    329e:	d4a6                	sw	s1,104(sp)
    32a0:	d2ca                	sw	s2,100(sp)
    32a2:	d0ce                	sw	s3,96(sp)
    32a4:	ced2                	sw	s4,92(sp)
    32a6:	e682                	fsw	ft0,76(sp)
    32a8:	e486                	fsw	ft1,72(sp)
    32aa:	e28a                	fsw	ft2,68(sp)
    32ac:	e08e                	fsw	ft3,64(sp)
    32ae:	fe12                	fsw	ft4,60(sp)
    32b0:	fc16                	fsw	ft5,56(sp)
    32b2:	fa1a                	fsw	ft6,52(sp)
    32b4:	f81e                	fsw	ft7,48(sp)
    32b6:	f62a                	fsw	fa0,44(sp)
    32b8:	f42e                	fsw	fa1,40(sp)
    32ba:	f232                	fsw	fa2,36(sp)
    32bc:	f036                	fsw	fa3,32(sp)
    32be:	ee3a                	fsw	fa4,28(sp)
    32c0:	ec3e                	fsw	fa5,24(sp)
    32c2:	ea42                	fsw	fa6,20(sp)
    32c4:	e846                	fsw	fa7,16(sp)
    32c6:	e672                	fsw	ft8,12(sp)
    32c8:	e476                	fsw	ft9,8(sp)
    32ca:	e27a                	fsw	ft10,4(sp)
    32cc:	e07e                	fsw	ft11,0(sp)
    32ce:	24d000ef          	jal	ra,3d1a <DMA_GetITStatus>
    32d2:	c139                	beqz	a0,3318 <DMA2_Channel4_IRQHandler+0x82>
    32d4:	4705                	li	a4,1
    32d6:	80e1a223          	sw	a4,-2044(gp) # 20000084 <flag_hb>
    32da:	83418793          	addi	a5,gp,-1996 # 200000b4 <is>
    32de:	0007a023          	sw	zero,0(a5)
    32e2:	83418413          	addi	s0,gp,-1996 # 200000b4 <is>
    32e6:	03f00913          	li	s2,63
    32ea:	85418493          	addi	s1,gp,-1964 # 200000d4 <DAC_Value>
    32ee:	401c                	lw	a5,0(s0)
    32f0:	0cf97063          	bgeu	s2,a5,33b0 <DMA2_Channel4_IRQHandler+0x11a>
    32f4:	10004537          	lui	a0,0x10004
    32f8:	22d000ef          	jal	ra,3d24 <DMA_ClearITPendingBit>
    32fc:	8301c703          	lbu	a4,-2000(gp) # 200000b0 <i.7026>
    3300:	83018793          	addi	a5,gp,-2000 # 200000b0 <i.7026>
    3304:	c761                	beqz	a4,33cc <DMA2_Channel4_IRQHandler+0x136>
    3306:	4701                	li	a4,0
    3308:	4601                	li	a2,0
    330a:	10000593          	li	a1,256
    330e:	40011537          	lui	a0,0x40011
    3312:	a398                	sb	a4,0(a5)
    3314:	2e5000ef          	jal	ra,3df8 <GPIO_WriteBit>
    3318:	10002537          	lui	a0,0x10002
    331c:	1ff000ef          	jal	ra,3d1a <DMA_GetITStatus>
    3320:	cd21                	beqz	a0,3378 <DMA2_Channel4_IRQHandler+0xe2>
    3322:	200007b7          	lui	a5,0x20000
    3326:	4705                	li	a4,1
    3328:	08e7a023          	sw	a4,128(a5) # 20000080 <flag_cb>
    332c:	83418793          	addi	a5,gp,-1996 # 200000b4 <is>
    3330:	04000713          	li	a4,64
    3334:	c398                	sw	a4,0(a5)
    3336:	83818793          	addi	a5,gp,-1992 # 200000b8 <ks>
    333a:	0007a023          	sw	zero,0(a5)
    333e:	83418413          	addi	s0,gp,-1996 # 200000b4 <is>
    3342:	83818493          	addi	s1,gp,-1992 # 200000b8 <ks>
    3346:	07f00993          	li	s3,127
    334a:	85418913          	addi	s2,gp,-1964 # 200000d4 <DAC_Value>
    334e:	401c                	lw	a5,0(s0)
    3350:	08f9f163          	bgeu	s3,a5,33d2 <DMA2_Channel4_IRQHandler+0x13c>
    3354:	10002537          	lui	a0,0x10002
    3358:	1cd000ef          	jal	ra,3d24 <DMA_ClearITPendingBit>
    335c:	8301c703          	lbu	a4,-2000(gp) # 200000b0 <i.7026>
    3360:	83018793          	addi	a5,gp,-2000 # 200000b0 <i.7026>
    3364:	c749                	beqz	a4,33ee <DMA2_Channel4_IRQHandler+0x158>
    3366:	4701                	li	a4,0
    3368:	4601                	li	a2,0
    336a:	10000593          	li	a1,256
    336e:	40011537          	lui	a0,0x40011
    3372:	a398                	sb	a4,0(a5)
    3374:	285000ef          	jal	ra,3df8 <GPIO_WriteBit>
    3378:	5436                	lw	s0,108(sp)
    337a:	54a6                	lw	s1,104(sp)
    337c:	5916                	lw	s2,100(sp)
    337e:	5986                	lw	s3,96(sp)
    3380:	4a76                	lw	s4,92(sp)
    3382:	6036                	flw	ft0,76(sp)
    3384:	60a6                	flw	ft1,72(sp)
    3386:	6116                	flw	ft2,68(sp)
    3388:	6186                	flw	ft3,64(sp)
    338a:	7272                	flw	ft4,60(sp)
    338c:	72e2                	flw	ft5,56(sp)
    338e:	7352                	flw	ft6,52(sp)
    3390:	73c2                	flw	ft7,48(sp)
    3392:	7532                	flw	fa0,44(sp)
    3394:	75a2                	flw	fa1,40(sp)
    3396:	7612                	flw	fa2,36(sp)
    3398:	7682                	flw	fa3,32(sp)
    339a:	6772                	flw	fa4,28(sp)
    339c:	67e2                	flw	fa5,24(sp)
    339e:	6852                	flw	fa6,20(sp)
    33a0:	68c2                	flw	fa7,16(sp)
    33a2:	6e32                	flw	ft8,12(sp)
    33a4:	6ea2                	flw	ft9,8(sp)
    33a6:	6f12                	flw	ft10,4(sp)
    33a8:	6f82                	flw	ft11,0(sp)
    33aa:	6165                	addi	sp,sp,112
    33ac:	30200073          	mret
    33b0:	400c                	lw	a1,0(s0)
    33b2:	35418513          	addi	a0,gp,852 # 20000bd4 <audio_samples>
    33b6:	0586                	slli	a1,a1,0x1
    33b8:	95a6                	add	a1,a1,s1
    33ba:	b33fd0ef          	jal	ra,eec <get_sample_FIFO>
    33be:	401c                	lw	a5,0(s0)
    33c0:	0785                	addi	a5,a5,1
    33c2:	c01c                	sw	a5,0(s0)
    33c4:	83818793          	addi	a5,gp,-1992 # 200000b8 <ks>
    33c8:	439c                	lw	a5,0(a5)
    33ca:	b715                	j	32ee <DMA2_Channel4_IRQHandler+0x58>
    33cc:	4705                	li	a4,1
    33ce:	4605                	li	a2,1
    33d0:	bf2d                	j	330a <DMA2_Channel4_IRQHandler+0x74>
    33d2:	400c                	lw	a1,0(s0)
    33d4:	35418513          	addi	a0,gp,852 # 20000bd4 <audio_samples>
    33d8:	0586                	slli	a1,a1,0x1
    33da:	95ca                	add	a1,a1,s2
    33dc:	b11fd0ef          	jal	ra,eec <get_sample_FIFO>
    33e0:	401c                	lw	a5,0(s0)
    33e2:	0785                	addi	a5,a5,1
    33e4:	c01c                	sw	a5,0(s0)
    33e6:	409c                	lw	a5,0(s1)
    33e8:	0785                	addi	a5,a5,1
    33ea:	c09c                	sw	a5,0(s1)
    33ec:	b78d                	j	334e <DMA2_Channel4_IRQHandler+0xb8>
    33ee:	4705                	li	a4,1
    33f0:	4605                	li	a2,1
    33f2:	bfa5                	j	336a <DMA2_Channel4_IRQHandler+0xd4>

000033f4 <Timer4_Init>:
    33f4:	dfdfc2ef          	jal	t0,1f0 <__riscv_save_0>
    33f8:	1141                	addi	sp,sp,-16
    33fa:	842a                	mv	s0,a0
    33fc:	4585                	li	a1,1
    33fe:	4511                	li	a0,4
    3400:	c202                	sw	zero,4(sp)
    3402:	c402                	sw	zero,8(sp)
    3404:	00011623          	sh	zero,12(sp)
    3408:	3b3000ef          	jal	ra,3fba <RCC_APB1PeriphClockCmd>
    340c:	0048                	addi	a0,sp,4
    340e:	523000ef          	jal	ra,4130 <TIM_TimeBaseStructInit>
    3412:	8081a503          	lw	a0,-2040(gp) # 20000088 <SystemCoreClock>
    3416:	004c                	addi	a1,sp,4
    3418:	00011523          	sh	zero,10(sp)
    341c:	02855533          	divu	a0,a0,s0
    3420:	40001437          	lui	s0,0x40001
    3424:	c202                	sw	zero,4(sp)
    3426:	157d                	addi	a0,a0,-1
    3428:	8468                	sh	a0,8(sp)
    342a:	80040513          	addi	a0,s0,-2048 # 40000800 <_eusrstack+0x1fff8800>
    342e:	415000ef          	jal	ra,4042 <TIM_TimeBaseInit>
    3432:	80040513          	addi	a0,s0,-2048
    3436:	02000593          	li	a1,32
    343a:	525000ef          	jal	ra,415e <TIM_SelectOutputTrigger>
    343e:	4585                	li	a1,1
    3440:	80040513          	addi	a0,s0,-2048
    3444:	503000ef          	jal	ra,4146 <TIM_Cmd>
    3448:	0141                	addi	sp,sp,16
    344a:	dcbfc06f          	j	214 <__riscv_restore_0>

0000344e <GPIO_Toggle_INIT>:
    344e:	da3fc2ef          	jal	t0,1f0 <__riscv_save_0>
    3452:	1141                	addi	sp,sp,-16
    3454:	4585                	li	a1,1
    3456:	4541                	li	a0,16
    3458:	c202                	sw	zero,4(sp)
    345a:	c402                	sw	zero,8(sp)
    345c:	c602                	sw	zero,12(sp)
    345e:	33f000ef          	jal	ra,3f9c <RCC_APB2PeriphClockCmd>
    3462:	18000793          	li	a5,384
    3466:	827c                	sh	a5,4(sp)
    3468:	47c1                	li	a5,16
    346a:	c63e                	sw	a5,12(sp)
    346c:	004c                	addi	a1,sp,4
    346e:	478d                	li	a5,3
    3470:	40011537          	lui	a0,0x40011
    3474:	c43e                	sw	a5,8(sp)
    3476:	0b9000ef          	jal	ra,3d2e <GPIO_Init>
    347a:	4605                	li	a2,1
    347c:	18000593          	li	a1,384
    3480:	40011537          	lui	a0,0x40011
    3484:	175000ef          	jal	ra,3df8 <GPIO_WriteBit>
    3488:	04000793          	li	a5,64
    348c:	827c                	sh	a5,4(sp)
    348e:	004c                	addi	a1,sp,4
    3490:	04800793          	li	a5,72
    3494:	40011537          	lui	a0,0x40011
    3498:	c63e                	sw	a5,12(sp)
    349a:	095000ef          	jal	ra,3d2e <GPIO_Init>
    349e:	0141                	addi	sp,sp,16
    34a0:	d75fc06f          	j	214 <__riscv_restore_0>

000034a4 <main>:
    34a4:	d1dfc2ef          	jal	t0,1c0 <__riscv_save_12>
    34a8:	1101                	addi	sp,sp,-32
    34aa:	4509                	li	a0,2
    34ac:	157000ef          	jal	ra,3e02 <NVIC_PriorityGroupConfig>
    34b0:	2b15                	jal	39e4 <SystemCoreClockUpdate>
    34b2:	57d000ef          	jal	ra,422e <Delay_Init>
    34b6:	6571                	lui	a0,0x1c
    34b8:	20050513          	addi	a0,a0,512 # 1c200 <_data_lma+0x14aac>
    34bc:	605000ef          	jal	ra,42c0 <USART_Printf_Init>
    34c0:	0c800513          	li	a0,200
    34c4:	5c7000ef          	jal	ra,428a <Delay_Ms>
    34c8:	8081a583          	lw	a1,-2040(gp) # 20000088 <SystemCoreClock>
    34cc:	00006537          	lui	a0,0x6
    34d0:	3a050513          	addi	a0,a0,928 # 63a0 <halfrate.6399+0x5c>
    34d4:	7a9000ef          	jal	ra,447c <iprintf>
    34d8:	74e000ef          	jal	ra,3c26 <DBGMCU_GetCHIPID>
    34dc:	85aa                	mv	a1,a0
    34de:	00006537          	lui	a0,0x6
    34e2:	3b050513          	addi	a0,a0,944 # 63b0 <halfrate.6399+0x6c>
    34e6:	797000ef          	jal	ra,447c <iprintf>
    34ea:	00006537          	lui	a0,0x6
    34ee:	3c050513          	addi	a0,a0,960 # 63c0 <halfrate.6399+0x7c>
    34f2:	09e010ef          	jal	ra,4590 <puts>
    34f6:	3fa1                	jal	344e <GPIO_Toggle_INIT>
    34f8:	06400513          	li	a0,100
    34fc:	58f000ef          	jal	ra,428a <Delay_Ms>
    3500:	200005b7          	lui	a1,0x20000
    3504:	50000693          	li	a3,1280
    3508:	4609                	li	a2,2
    350a:	1d458593          	addi	a1,a1,468 # 200001d4 <ar_audio_samples>
    350e:	35418513          	addi	a0,gp,852 # 20000bd4 <audio_samples>
    3512:	969fd0ef          	jal	ra,e7a <Init_FIFO>
    3516:	00006537          	lui	a0,0x6
    351a:	3e050513          	addi	a0,a0,992 # 63e0 <halfrate.6399+0x9c>
    351e:	75f000ef          	jal	ra,447c <iprintf>
    3522:	20001537          	lui	a0,0x20001
    3526:	08850513          	addi	a0,a0,136 # 20001088 <fatfs>
    352a:	d2afd0ef          	jal	ra,a54 <pf_mount>
    352e:	c909                	beqz	a0,3540 <main+0x9c>
    3530:	85aa                	mv	a1,a0
    3532:	00006537          	lui	a0,0x6
    3536:	3f450513          	addi	a0,a0,1012 # 63f4 <halfrate.6399+0xb0>
    353a:	743000ef          	jal	ra,447c <iprintf>
    353e:	a001                	j	353e <main+0x9a>
    3540:	00006537          	lui	a0,0x6
    3544:	40450513          	addi	a0,a0,1028 # 6404 <halfrate.6399+0xc0>
    3548:	735000ef          	jal	ra,447c <iprintf>
    354c:	81818593          	addi	a1,gp,-2024 # 20000098 <dir_raiz>
    3550:	7f418513          	addi	a0,gp,2036 # 20001074 <dir>
    3554:	fb6fd0ef          	jal	ra,d0a <pf_opendir>
    3558:	c022                	sw	s0,0(sp)
    355a:	85aa                	mv	a1,a0
    355c:	e939                	bnez	a0,35b2 <main+0x10e>
    355e:	20001cb7          	lui	s9,0x20001
    3562:	0e4c8793          	addi	a5,s9,228 # 200010e4 <mp3d>
    3566:	6709                	lui	a4,0x2
    3568:	97ba                	add	a5,a5,a4
    356a:	c23e                	sw	a5,4(sp)
    356c:	20003bb7          	lui	s7,0x20003
    3570:	200015b7          	lui	a1,0x20001
    3574:	0b458913          	addi	s2,a1,180 # 200010b4 <fno>
    3578:	7f418513          	addi	a0,gp,2036 # 20001074 <dir>
    357c:	0b458593          	addi	a1,a1,180
    3580:	fccfd0ef          	jal	ra,d4c <pf_readdir>
    3584:	20001437          	lui	s0,0x20001
    3588:	85aa                	mv	a1,a0
    358a:	0bd40613          	addi	a2,s0,189 # 200010bd <fno+0x9>
    358e:	e501                	bnez	a0,3596 <main+0xf2>
    3590:	00990783          	lb	a5,9(s2)
    3594:	e795                	bnez	a5,35c0 <main+0x11c>
    3596:	00006537          	lui	a0,0x6
    359a:	42c50513          	addi	a0,a0,1068 # 642c <halfrate.6399+0xe8>
    359e:	6df000ef          	jal	ra,447c <iprintf>
    35a2:	4782                	lw	a5,0(sp)
    35a4:	7f418513          	addi	a0,gp,2036 # 20001074 <dir>
    35a8:	81818593          	addi	a1,gp,-2024 # 20000098 <dir_raiz>
    35ac:	f5efd0ef          	jal	ra,d0a <pf_opendir>
    35b0:	b7c1                	j	3570 <main+0xcc>
    35b2:	00006537          	lui	a0,0x6
    35b6:	41c50513          	addi	a0,a0,1052 # 641c <halfrate.6399+0xd8>
    35ba:	6c3000ef          	jal	ra,447c <iprintf>
    35be:	a001                	j	35be <main+0x11a>
    35c0:	00894783          	lbu	a5,8(s2)
    35c4:	8bc1                	andi	a5,a5,16
    35c6:	cb91                	beqz	a5,35da <main+0x136>
    35c8:	00006537          	lui	a0,0x6
    35cc:	0bd40593          	addi	a1,s0,189
    35d0:	44450513          	addi	a0,a0,1092 # 6444 <halfrate.6399+0x100>
    35d4:	6a9000ef          	jal	ra,447c <iprintf>
    35d8:	bf61                	j	3570 <main+0xcc>
    35da:	00092583          	lw	a1,0(s2)
    35de:	00006537          	lui	a0,0x6
    35e2:	0bd40613          	addi	a2,s0,189
    35e6:	45450513          	addi	a0,a0,1108 # 6454 <halfrate.6399+0x110>
    35ea:	693000ef          	jal	ra,447c <iprintf>
    35ee:	02e00593          	li	a1,46
    35f2:	0bd40513          	addi	a0,s0,189
    35f6:	7a5000ef          	jal	ra,459a <strrchr>
    35fa:	d93d                	beqz	a0,3570 <main+0xcc>
    35fc:	000065b7          	lui	a1,0x6
    3600:	46058593          	addi	a1,a1,1120 # 6460 <halfrate.6399+0x11c>
    3604:	cc5fc0ef          	jal	ra,2c8 <strcmp>
    3608:	f525                	bnez	a0,3570 <main+0xcc>
    360a:	00006537          	lui	a0,0x6
    360e:	0bd40593          	addi	a1,s0,189
    3612:	46850513          	addi	a0,a0,1128 # 6468 <halfrate.6399+0x124>
    3616:	667000ef          	jal	ra,447c <iprintf>
    361a:	0bd40513          	addi	a0,s0,189
    361e:	d52fd0ef          	jal	ra,b70 <pf_open>
    3622:	f539                	bnez	a0,3570 <main+0xcc>
    3624:	4792                	lw	a5,4(sp)
    3626:	80078423          	sb	zero,-2040(a5)
    362a:	83c18793          	addi	a5,gp,-1988 # 200000bc <nbuf>
    362e:	0007a023          	sw	zero,0(a5)
    3632:	84018793          	addi	a5,gp,-1984 # 200000c0 <pread>
    3636:	00006537          	lui	a0,0x6
    363a:	0007a023          	sw	zero,0(a5)
    363e:	47c50513          	addi	a0,a0,1148 # 647c <halfrate.6399+0x138>
    3642:	82818793          	addi	a5,gp,-2008 # 200000a8 <estado_mp3>
    3646:	0007a023          	sw	zero,0(a5)
    364a:	83c18413          	addi	s0,gp,-1988 # 200000bc <nbuf>
    364e:	743000ef          	jal	ra,4590 <puts>
    3652:	84018a13          	addi	s4,gp,-1984 # 200000c0 <pread>
    3656:	82818a93          	addi	s5,gp,-2008 # 200000a8 <estado_mp3>
    365a:	85418c13          	addi	s8,gp,-1964 # 200000d4 <DAC_Value>
    365e:	000a2583          	lw	a1,0(s4)
    3662:	4010                	lw	a2,0(s0)
    3664:	4014                	lw	a3,0(s0)
    3666:	48000993          	li	s3,1152
    366a:	000067b7          	lui	a5,0x6
    366e:	40c98633          	sub	a2,s3,a2
    3672:	49878513          	addi	a0,a5,1176 # 6498 <halfrate.6399+0x154>
    3676:	607000ef          	jal	ra,447c <iprintf>
    367a:	4008                	lw	a0,0(s0)
    367c:	400c                	lw	a1,0(s0)
    367e:	37418913          	addi	s2,gp,884 # 20000bf4 <buf>
    3682:	0870                	addi	a2,sp,28
    3684:	40b985b3          	sub	a1,s3,a1
    3688:	954a                	add	a0,a0,s2
    368a:	d34fd0ef          	jal	ra,bbe <pf_read>
    368e:	e119                	bnez	a0,3694 <main+0x1f0>
    3690:	47f2                	lw	a5,28(sp)
    3692:	e799                	bnez	a5,36a0 <main+0x1fc>
    3694:	4501                	li	a0,0
    3696:	000a2023          	sw	zero,0(s4)
    369a:	dd6fd0ef          	jal	ra,c70 <pf_lseek>
    369e:	bdc9                	j	3570 <main+0xcc>
    36a0:	401c                	lw	a5,0(s0)
    36a2:	000a2703          	lw	a4,0(s4)
    36a6:	200018b7          	lui	a7,0x20001
    36aa:	40f987b3          	sub	a5,s3,a5
    36ae:	97ba                	add	a5,a5,a4
    36b0:	00fa2023          	sw	a5,0(s4)
    36b4:	4018                	lw	a4,0(s0)
    36b6:	401c                	lw	a5,0(s0)
    36b8:	af0b8693          	addi	a3,s7,-1296 # 20002af0 <pcm>
    36bc:	40e989b3          	sub	s3,s3,a4
    36c0:	99be                	add	s3,s3,a5
    36c2:	01342023          	sw	s3,0(s0)
    36c6:	4010                	lw	a2,0(s0)
    36c8:	0cc88713          	addi	a4,a7,204 # 200010cc <info>
    36cc:	37418593          	addi	a1,gp,884 # 20000bf4 <buf>
    36d0:	0e4c8513          	addi	a0,s9,228
    36d4:	0cc88993          	addi	s3,a7,204
    36d8:	f17fd0ef          	jal	ra,15ee <mp3dec_decode_frame>
    36dc:	82c18d13          	addi	s10,gp,-2004 # 200000ac <frame_size>
    36e0:	00ad2023          	sw	a0,0(s10)
    36e4:	0009a703          	lw	a4,0(s3)
    36e8:	401c                	lw	a5,0(s0)
    36ea:	37418513          	addi	a0,gp,884 # 20000bf4 <buf>
    36ee:	00e905b3          	add	a1,s2,a4
    36f2:	8f99                	sub	a5,a5,a4
    36f4:	c01c                	sw	a5,0(s0)
    36f6:	4010                	lw	a2,0(s0)
    36f8:	c43a                	sw	a4,8(sp)
    36fa:	53d000ef          	jal	ra,4436 <memmove>
    36fe:	0149a783          	lw	a5,20(s3)
    3702:	0089a683          	lw	a3,8(s3)
    3706:	00c9a603          	lw	a2,12(s3)
    370a:	000d2583          	lw	a1,0(s10)
    370e:	4722                	lw	a4,8(sp)
    3710:	00006537          	lui	a0,0x6
    3714:	4b050513          	addi	a0,a0,1200 # 64b0 <halfrate.6399+0x16c>
    3718:	565000ef          	jal	ra,447c <iprintf>
    371c:	000aa783          	lw	a5,0(s5)
    3720:	200018b7          	lui	a7,0x20001
    3724:	0cc88913          	addi	s2,a7,204 # 200010cc <info>
    3728:	82c18993          	addi	s3,gp,-2004 # 200000ac <frame_size>
    372c:	c3b1                	beqz	a5,3770 <main+0x2cc>
    372e:	4705                	li	a4,1
    3730:	12e78263          	beq	a5,a4,3854 <main+0x3b0>
    3734:	04000593          	li	a1,64
    3738:	40011537          	lui	a0,0x40011
    373c:	2d4d                	jal	3dee <GPIO_ReadInputDataBit>
    373e:	1e051563          	bnez	a0,3928 <main+0x484>
    3742:	40001537          	lui	a0,0x40001
    3746:	4581                	li	a1,0
    3748:	80050513          	addi	a0,a0,-2048 # 40000800 <_eusrstack+0x1fff8800>
    374c:	1fb000ef          	jal	ra,4146 <TIM_Cmd>
    3750:	40020537          	lui	a0,0x40020
    3754:	44450513          	addi	a0,a0,1092 # 40020444 <_eusrstack+0x20018444>
    3758:	4581                	li	a1,0
    375a:	2b35                	jal	3c96 <DMA_Cmd>
    375c:	4529                	li	a0,10
    375e:	32d000ef          	jal	ra,428a <Delay_Ms>
    3762:	04000593          	li	a1,64
    3766:	40011537          	lui	a0,0x40011
    376a:	2551                	jal	3dee <GPIO_ReadInputDataBit>
    376c:	d97d                	beqz	a0,3762 <main+0x2be>
    376e:	b509                	j	3570 <main+0xcc>
    3770:	00892783          	lw	a5,8(s2)
    3774:	d3e1                	beqz	a5,3734 <main+0x290>
    3776:	00c92783          	lw	a5,12(s2)
    377a:	faf05de3          	blez	a5,3734 <main+0x290>
    377e:	0009a783          	lw	a5,0(s3)
    3782:	faf059e3          	blez	a5,3734 <main+0x290>
    3786:	af0b8713          	addi	a4,s7,-1296
    378a:	4d01                	li	s10,0
    378c:	0009a783          	lw	a5,0(s3)
    3790:	567d                	li	a2,-1
    3792:	04fd6a63          	bltu	s10,a5,37e6 <main+0x342>
    3796:	83418793          	addi	a5,gp,-1996 # 200000b4 <is>
    379a:	0007a023          	sw	zero,0(a5)
    379e:	83418993          	addi	s3,gp,-1996 # 200000b4 <is>
    37a2:	03f00d13          	li	s10,63
    37a6:	0009a783          	lw	a5,0(s3)
    37aa:	06fd7963          	bgeu	s10,a5,381c <main+0x378>
    37ae:	8001a223          	sw	zero,-2044(gp) # 20000084 <flag_hb>
    37b2:	04000793          	li	a5,64
    37b6:	00f9a023          	sw	a5,0(s3)
    37ba:	07f00d13          	li	s10,127
    37be:	0009a783          	lw	a5,0(s3)
    37c2:	06fd7b63          	bgeu	s10,a5,3838 <main+0x394>
    37c6:	200007b7          	lui	a5,0x20000
    37ca:	0807a023          	sw	zero,128(a5) # 20000080 <flag_cb>
    37ce:	9c7ff0ef          	jal	ra,3194 <Dac_Init>
    37d2:	a2bff0ef          	jal	ra,31fc <Dac_Dma_Init>
    37d6:	00c92503          	lw	a0,12(s2)
    37da:	c1bff0ef          	jal	ra,33f4 <Timer4_Init>
    37de:	4785                	li	a5,1
    37e0:	00faa023          	sw	a5,0(s5)
    37e4:	bf81                	j	3734 <main+0x290>
    37e6:	00071783          	lh	a5,0(a4) # 2000 <mp3dec_decode_frame+0xa12>
    37ea:	00271583          	lh	a1,2(a4)
    37ee:	97ae                	add	a5,a5,a1
    37f0:	8795                	srai	a5,a5,0x5
    37f2:	7ff78793          	addi	a5,a5,2047
    37f6:	07c2                	slli	a5,a5,0x10
    37f8:	87c1                	srai	a5,a5,0x10
    37fa:	00c78e63          	beq	a5,a2,3816 <main+0x372>
    37fe:	85fc                	sh	a5,26(sp)
    3800:	01a10593          	addi	a1,sp,26
    3804:	35418513          	addi	a0,gp,852 # 20000bd4 <audio_samples>
    3808:	c43a                	sw	a4,8(sp)
    380a:	ea0fd0ef          	jal	ra,eaa <put_sample_FIFO>
    380e:	4722                	lw	a4,8(sp)
    3810:	0d05                	addi	s10,s10,1
    3812:	0711                	addi	a4,a4,4
    3814:	bfa5                	j	378c <main+0x2e8>
    3816:	00011d23          	sh	zero,26(sp)
    381a:	b7dd                	j	3800 <main+0x35c>
    381c:	0009a583          	lw	a1,0(s3)
    3820:	35418513          	addi	a0,gp,852 # 20000bd4 <audio_samples>
    3824:	0586                	slli	a1,a1,0x1
    3826:	95e2                	add	a1,a1,s8
    3828:	ec4fd0ef          	jal	ra,eec <get_sample_FIFO>
    382c:	0009a783          	lw	a5,0(s3)
    3830:	0785                	addi	a5,a5,1
    3832:	00f9a023          	sw	a5,0(s3)
    3836:	bf85                	j	37a6 <main+0x302>
    3838:	0009a583          	lw	a1,0(s3)
    383c:	35418513          	addi	a0,gp,852 # 20000bd4 <audio_samples>
    3840:	0586                	slli	a1,a1,0x1
    3842:	95e2                	add	a1,a1,s8
    3844:	ea8fd0ef          	jal	ra,eec <get_sample_FIFO>
    3848:	0009a783          	lw	a5,0(s3)
    384c:	0785                	addi	a5,a5,1
    384e:	00f9a023          	sw	a5,0(s3)
    3852:	b7b5                	j	37be <main+0x31a>
    3854:	000d2783          	lw	a5,0(s10)
    3858:	0af05863          	blez	a5,3908 <main+0x464>
    385c:	35418513          	addi	a0,gp,852 # 20000bd4 <audio_samples>
    3860:	e38fd0ef          	jal	ra,e98 <n_sample_out_FIFO>
    3864:	0009a783          	lw	a5,0(s3)
    3868:	fef54ae3          	blt	a0,a5,385c <main+0x3b8>
    386c:	00892683          	lw	a3,8(s2)
    3870:	4789                	li	a5,2
    3872:	4701                	li	a4,0
    3874:	04f68263          	beq	a3,a5,38b8 <main+0x414>
    3878:	0009a783          	lw	a5,0(s3)
    387c:	56fd                	li	a3,-1
    387e:	eaf77be3          	bgeu	a4,a5,3734 <main+0x290>
    3882:	20003637          	lui	a2,0x20003
    3886:	00171793          	slli	a5,a4,0x1
    388a:	af060613          	addi	a2,a2,-1296 # 20002af0 <pcm>
    388e:	97b2                	add	a5,a5,a2
    3890:	00079783          	lh	a5,0(a5)
    3894:	8791                	srai	a5,a5,0x4
    3896:	7ff78793          	addi	a5,a5,2047
    389a:	07c2                	slli	a5,a5,0x10
    389c:	87c1                	srai	a5,a5,0x10
    389e:	06d78263          	beq	a5,a3,3902 <main+0x45e>
    38a2:	85fc                	sh	a5,26(sp)
    38a4:	01a10593          	addi	a1,sp,26
    38a8:	35418513          	addi	a0,gp,852 # 20000bd4 <audio_samples>
    38ac:	c43a                	sw	a4,8(sp)
    38ae:	dfcfd0ef          	jal	ra,eaa <put_sample_FIFO>
    38b2:	4722                	lw	a4,8(sp)
    38b4:	0705                	addi	a4,a4,1
    38b6:	b7c9                	j	3878 <main+0x3d4>
    38b8:	af0b8713          	addi	a4,s7,-1296
    38bc:	4681                	li	a3,0
    38be:	0009a783          	lw	a5,0(s3)
    38c2:	567d                	li	a2,-1
    38c4:	e6f6f8e3          	bgeu	a3,a5,3734 <main+0x290>
    38c8:	00071783          	lh	a5,0(a4)
    38cc:	00271583          	lh	a1,2(a4)
    38d0:	97ae                	add	a5,a5,a1
    38d2:	8795                	srai	a5,a5,0x5
    38d4:	7ff78793          	addi	a5,a5,2047
    38d8:	07c2                	slli	a5,a5,0x10
    38da:	87c1                	srai	a5,a5,0x10
    38dc:	02c78063          	beq	a5,a2,38fc <main+0x458>
    38e0:	85fc                	sh	a5,26(sp)
    38e2:	01a10593          	addi	a1,sp,26
    38e6:	35418513          	addi	a0,gp,852 # 20000bd4 <audio_samples>
    38ea:	c63a                	sw	a4,12(sp)
    38ec:	c436                	sw	a3,8(sp)
    38ee:	dbcfd0ef          	jal	ra,eaa <put_sample_FIFO>
    38f2:	46a2                	lw	a3,8(sp)
    38f4:	4732                	lw	a4,12(sp)
    38f6:	0685                	addi	a3,a3,1
    38f8:	0711                	addi	a4,a4,4
    38fa:	b7d1                	j	38be <main+0x41a>
    38fc:	00011d23          	sh	zero,26(sp)
    3900:	b7cd                	j	38e2 <main+0x43e>
    3902:	00011d23          	sh	zero,26(sp)
    3906:	bf79                	j	38a4 <main+0x400>
    3908:	40001537          	lui	a0,0x40001
    390c:	4581                	li	a1,0
    390e:	80050513          	addi	a0,a0,-2048 # 40000800 <_eusrstack+0x1fff8800>
    3912:	035000ef          	jal	ra,4146 <TIM_Cmd>
    3916:	40020537          	lui	a0,0x40020
    391a:	4581                	li	a1,0
    391c:	44450513          	addi	a0,a0,1092 # 40020444 <_eusrstack+0x20018444>
    3920:	2e9d                	jal	3c96 <DMA_Cmd>
    3922:	000aa023          	sw	zero,0(s5)
    3926:	b539                	j	3734 <main+0x290>
    3928:	00092783          	lw	a5,0(s2)
    392c:	d20799e3          	bnez	a5,365e <main+0x1ba>
    3930:	b181                	j	3570 <main+0xcc>

00003932 <SystemInit>:
    3932:	400217b7          	lui	a5,0x40021
    3936:	4398                	lw	a4,0(a5)
    3938:	f0ff06b7          	lui	a3,0xf0ff0
    393c:	00176713          	ori	a4,a4,1
    3940:	c398                	sw	a4,0(a5)
    3942:	43d8                	lw	a4,4(a5)
    3944:	8f75                	and	a4,a4,a3
    3946:	c3d8                	sw	a4,4(a5)
    3948:	4398                	lw	a4,0(a5)
    394a:	fef706b7          	lui	a3,0xfef70
    394e:	16fd                	addi	a3,a3,-1
    3950:	8f75                	and	a4,a4,a3
    3952:	c398                	sw	a4,0(a5)
    3954:	4398                	lw	a4,0(a5)
    3956:	fffc06b7          	lui	a3,0xfffc0
    395a:	16fd                	addi	a3,a3,-1
    395c:	8f75                	and	a4,a4,a3
    395e:	c398                	sw	a4,0(a5)
    3960:	43d8                	lw	a4,4(a5)
    3962:	ff0106b7          	lui	a3,0xff010
    3966:	16fd                	addi	a3,a3,-1
    3968:	8f75                	and	a4,a4,a3
    396a:	c3d8                	sw	a4,4(a5)
    396c:	4398                	lw	a4,0(a5)
    396e:	ec0006b7          	lui	a3,0xec000
    3972:	16fd                	addi	a3,a3,-1
    3974:	8f75                	and	a4,a4,a3
    3976:	c398                	sw	a4,0(a5)
    3978:	00ff0737          	lui	a4,0xff0
    397c:	c798                	sw	a4,8(a5)
    397e:	0207a623          	sw	zero,44(a5) # 4002102c <_eusrstack+0x2001902c>
    3982:	400246b7          	lui	a3,0x40024
    3986:	8006a703          	lw	a4,-2048(a3) # 40023800 <_eusrstack+0x2001b800>
    398a:	01076713          	ori	a4,a4,16
    398e:	80e6a023          	sw	a4,-2048(a3)
    3992:	43d8                	lw	a4,4(a5)
    3994:	ffc106b7          	lui	a3,0xffc10
    3998:	16fd                	addi	a3,a3,-1
    399a:	c3d8                	sw	a4,4(a5)
    399c:	43d8                	lw	a4,4(a5)
    399e:	c3d8                	sw	a4,4(a5)
    39a0:	43d8                	lw	a4,4(a5)
    39a2:	40076713          	ori	a4,a4,1024
    39a6:	c3d8                	sw	a4,4(a5)
    39a8:	43d8                	lw	a4,4(a5)
    39aa:	8f75                	and	a4,a4,a3
    39ac:	c3d8                	sw	a4,4(a5)
    39ae:	43d8                	lw	a4,4(a5)
    39b0:	010006b7          	lui	a3,0x1000
    39b4:	c3d8                	sw	a4,4(a5)
    39b6:	4398                	lw	a4,0(a5)
    39b8:	8f55                	or	a4,a4,a3
    39ba:	c398                	sw	a4,0(a5)
    39bc:	4398                	lw	a4,0(a5)
    39be:	00671693          	slli	a3,a4,0x6
    39c2:	fe06dde3          	bgez	a3,39bc <SystemInit+0x8a>
    39c6:	43d8                	lw	a4,4(a5)
    39c8:	400216b7          	lui	a3,0x40021
    39cc:	9b71                	andi	a4,a4,-4
    39ce:	c3d8                	sw	a4,4(a5)
    39d0:	43d8                	lw	a4,4(a5)
    39d2:	00276713          	ori	a4,a4,2
    39d6:	c3d8                	sw	a4,4(a5)
    39d8:	4721                	li	a4,8
    39da:	42dc                	lw	a5,4(a3)
    39dc:	8bb1                	andi	a5,a5,12
    39de:	fee79ee3          	bne	a5,a4,39da <SystemInit+0xa8>
    39e2:	8082                	ret

000039e4 <SystemCoreClockUpdate>:
    39e4:	400216b7          	lui	a3,0x40021
    39e8:	42d8                	lw	a4,4(a3)
    39ea:	4611                	li	a2,4
    39ec:	8b31                	andi	a4,a4,12
    39ee:	80818793          	addi	a5,gp,-2040 # 20000088 <SystemCoreClock>
    39f2:	00c70563          	beq	a4,a2,39fc <SystemCoreClockUpdate+0x18>
    39f6:	4621                	li	a2,8
    39f8:	02c70863          	beq	a4,a2,3a28 <SystemCoreClockUpdate+0x44>
    39fc:	007a1737          	lui	a4,0x7a1
    3a00:	20070713          	addi	a4,a4,512 # 7a1200 <_data_lma+0x799aac>
    3a04:	c398                	sw	a4,0(a5)
    3a06:	40021737          	lui	a4,0x40021
    3a0a:	4358                	lw	a4,4(a4)
    3a0c:	8311                	srli	a4,a4,0x4
    3a0e:	00f77693          	andi	a3,a4,15
    3a12:	20000737          	lui	a4,0x20000
    3a16:	00070713          	mv	a4,a4
    3a1a:	9736                	add	a4,a4,a3
    3a1c:	2314                	lbu	a3,0(a4)
    3a1e:	4398                	lw	a4,0(a5)
    3a20:	00d75733          	srl	a4,a4,a3
    3a24:	c398                	sw	a4,0(a5)
    3a26:	8082                	ret
    3a28:	42d8                	lw	a4,4(a3)
    3a2a:	42d4                	lw	a3,4(a3)
    3a2c:	6641                	lui	a2,0x10
    3a2e:	8349                	srli	a4,a4,0x12
    3a30:	8b3d                	andi	a4,a4,15
    3a32:	8ef1                	and	a3,a3,a2
    3a34:	00270613          	addi	a2,a4,2 # 20000002 <_data_vma+0x2>
    3a38:	cf15                	beqz	a4,3a74 <SystemCoreClockUpdate+0x90>
    3a3a:	473d                	li	a4,15
    3a3c:	02e60f63          	beq	a2,a4,3a7a <SystemCoreClockUpdate+0x96>
    3a40:	4741                	li	a4,16
    3a42:	02e60f63          	beq	a2,a4,3a80 <SystemCoreClockUpdate+0x9c>
    3a46:	4745                	li	a4,17
    3a48:	4581                	li	a1,0
    3a4a:	00e61363          	bne	a2,a4,3a50 <SystemCoreClockUpdate+0x6c>
    3a4e:	4641                	li	a2,16
    3a50:	e2a1                	bnez	a3,3a90 <SystemCoreClockUpdate+0xac>
    3a52:	40024737          	lui	a4,0x40024
    3a56:	80072703          	lw	a4,-2048(a4) # 40023800 <_eusrstack+0x2001b800>
    3a5a:	8b41                	andi	a4,a4,16
    3a5c:	c70d                	beqz	a4,3a86 <SystemCoreClockUpdate+0xa2>
    3a5e:	007a1737          	lui	a4,0x7a1
    3a62:	20070713          	addi	a4,a4,512 # 7a1200 <_data_lma+0x799aac>
    3a66:	02c70633          	mul	a2,a4,a2
    3a6a:	c390                	sw	a2,0(a5)
    3a6c:	ddc9                	beqz	a1,3a06 <SystemCoreClockUpdate+0x22>
    3a6e:	4398                	lw	a4,0(a5)
    3a70:	8305                	srli	a4,a4,0x1
    3a72:	bf49                	j	3a04 <SystemCoreClockUpdate+0x20>
    3a74:	4581                	li	a1,0
    3a76:	4649                	li	a2,18
    3a78:	bfe1                	j	3a50 <SystemCoreClockUpdate+0x6c>
    3a7a:	4585                	li	a1,1
    3a7c:	4635                	li	a2,13
    3a7e:	bfc9                	j	3a50 <SystemCoreClockUpdate+0x6c>
    3a80:	4581                	li	a1,0
    3a82:	463d                	li	a2,15
    3a84:	b7f1                	j	3a50 <SystemCoreClockUpdate+0x6c>
    3a86:	003d1737          	lui	a4,0x3d1
    3a8a:	90070713          	addi	a4,a4,-1792 # 3d0900 <_data_lma+0x3c91ac>
    3a8e:	bfe1                	j	3a66 <SystemCoreClockUpdate+0x82>
    3a90:	40021537          	lui	a0,0x40021
    3a94:	5558                	lw	a4,44(a0)
    3a96:	00f71693          	slli	a3,a4,0xf
    3a9a:	5558                	lw	a4,44(a0)
    3a9c:	0406df63          	bgez	a3,3afa <SystemCoreClockUpdate+0x116>
    3aa0:	8311                	srli	a4,a4,0x4
    3aa2:	8b3d                	andi	a4,a4,15
    3aa4:	00170693          	addi	a3,a4,1
    3aa8:	007a1737          	lui	a4,0x7a1
    3aac:	20070713          	addi	a4,a4,512 # 7a1200 <_data_lma+0x799aac>
    3ab0:	02d75733          	divu	a4,a4,a3
    3ab4:	c398                	sw	a4,0(a5)
    3ab6:	5554                	lw	a3,44(a0)
    3ab8:	82a1                	srli	a3,a3,0x8
    3aba:	8abd                	andi	a3,a3,15
    3abc:	e28d                	bnez	a3,3ade <SystemCoreClockUpdate+0xfa>
    3abe:	4695                	li	a3,5
    3ac0:	02d70733          	mul	a4,a4,a3
    3ac4:	8305                	srli	a4,a4,0x1
    3ac6:	c398                	sw	a4,0(a5)
    3ac8:	40021737          	lui	a4,0x40021
    3acc:	5758                	lw	a4,44(a4)
    3ace:	4394                	lw	a3,0(a5)
    3ad0:	8b3d                	andi	a4,a4,15
    3ad2:	0705                	addi	a4,a4,1
    3ad4:	02e6d733          	divu	a4,a3,a4
    3ad8:	c398                	sw	a4,0(a5)
    3ada:	4398                	lw	a4,0(a5)
    3adc:	b769                	j	3a66 <SystemCoreClockUpdate+0x82>
    3ade:	4505                	li	a0,1
    3ae0:	00a69463          	bne	a3,a0,3ae8 <SystemCoreClockUpdate+0x104>
    3ae4:	46e5                	li	a3,25
    3ae6:	bfe9                	j	3ac0 <SystemCoreClockUpdate+0xdc>
    3ae8:	453d                	li	a0,15
    3aea:	00a69663          	bne	a3,a0,3af6 <SystemCoreClockUpdate+0x112>
    3aee:	46d1                	li	a3,20
    3af0:	02e68733          	mul	a4,a3,a4
    3af4:	bfc9                	j	3ac6 <SystemCoreClockUpdate+0xe2>
    3af6:	0689                	addi	a3,a3,2
    3af8:	bfe5                	j	3af0 <SystemCoreClockUpdate+0x10c>
    3afa:	8b3d                	andi	a4,a4,15
    3afc:	00170693          	addi	a3,a4,1 # 40021001 <_eusrstack+0x20019001>
    3b00:	007a1737          	lui	a4,0x7a1
    3b04:	20070713          	addi	a4,a4,512 # 7a1200 <_data_lma+0x799aac>
    3b08:	02d75733          	divu	a4,a4,a3
    3b0c:	b7f1                	j	3ad8 <SystemCoreClockUpdate+0xf4>

00003b0e <ADC1_2_IRQHandler>:
    3b0e:	a001                	j	3b0e <ADC1_2_IRQHandler>

00003b10 <handle_reset>:
    3b10:	1fffd197          	auipc	gp,0x1fffd
    3b14:	d7018193          	addi	gp,gp,-656 # 20000880 <__global_pointer$>
    3b18:	20004117          	auipc	sp,0x20004
    3b1c:	4e810113          	addi	sp,sp,1256 # 20008000 <_eusrstack>
    3b20:	00004517          	auipc	a0,0x4
    3b24:	c3450513          	addi	a0,a0,-972 # 7754 <_data_lma>
    3b28:	1fffc597          	auipc	a1,0x1fffc
    3b2c:	4d858593          	addi	a1,a1,1240 # 20000000 <_data_vma>
    3b30:	82018613          	addi	a2,gp,-2016 # 200000a0 <_edata>
    3b34:	00c5fa63          	bgeu	a1,a2,3b48 <handle_reset+0x38>
    3b38:	00052283          	lw	t0,0(a0)
    3b3c:	0055a023          	sw	t0,0(a1)
    3b40:	0511                	addi	a0,a0,4
    3b42:	0591                	addi	a1,a1,4
    3b44:	fec5eae3          	bltu	a1,a2,3b38 <handle_reset+0x28>
    3b48:	82018513          	addi	a0,gp,-2016 # 200000a0 <_edata>
    3b4c:	20000597          	auipc	a1,0x20000
    3b50:	1a858593          	addi	a1,a1,424 # 20003cf4 <_ebss>
    3b54:	00b57763          	bgeu	a0,a1,3b62 <handle_reset+0x52>
    3b58:	00052023          	sw	zero,0(a0)
    3b5c:	0511                	addi	a0,a0,4
    3b5e:	feb56de3          	bltu	a0,a1,3b58 <handle_reset+0x48>
    3b62:	42fd                	li	t0,31
    3b64:	bc029073          	csrw	0xbc0,t0
    3b68:	42ad                	li	t0,11
    3b6a:	80429073          	csrw	0x804,t0
    3b6e:	000062b7          	lui	t0,0x6
    3b72:	08828293          	addi	t0,t0,136 # 6088 <g_win.6851+0x104>
    3b76:	30029073          	csrw	mstatus,t0
    3b7a:	ffffc297          	auipc	t0,0xffffc
    3b7e:	48a28293          	addi	t0,t0,1162 # 4 <_einit>
    3b82:	0032e293          	ori	t0,t0,3
    3b86:	30529073          	csrw	mtvec,t0
    3b8a:	da9ff0ef          	jal	ra,3932 <SystemInit>
    3b8e:	00000297          	auipc	t0,0x0
    3b92:	91628293          	addi	t0,t0,-1770 # 34a4 <main>
    3b96:	34129073          	csrw	mepc,t0
    3b9a:	30200073          	mret

00003b9e <DAC_Init>:
    3b9e:	400076b7          	lui	a3,0x40007
    3ba2:	6705                	lui	a4,0x1
    3ba4:	4006a783          	lw	a5,1024(a3) # 40007400 <_eusrstack+0x1ffff400>
    3ba8:	1779                	addi	a4,a4,-2
    3baa:	00a71733          	sll	a4,a4,a0
    3bae:	fff74713          	not	a4,a4
    3bb2:	41d0                	lw	a2,4(a1)
    3bb4:	8f7d                	and	a4,a4,a5
    3bb6:	419c                	lw	a5,0(a1)
    3bb8:	8fd1                	or	a5,a5,a2
    3bba:	4590                	lw	a2,8(a1)
    3bbc:	8fd1                	or	a5,a5,a2
    3bbe:	45d0                	lw	a2,12(a1)
    3bc0:	8fd1                	or	a5,a5,a2
    3bc2:	00a797b3          	sll	a5,a5,a0
    3bc6:	8fd9                	or	a5,a5,a4
    3bc8:	40f6a023          	sw	a5,1024(a3)
    3bcc:	8082                	ret

00003bce <DAC_Cmd>:
    3bce:	4785                	li	a5,1
    3bd0:	00a79533          	sll	a0,a5,a0
    3bd4:	c989                	beqz	a1,3be6 <DAC_Cmd+0x18>
    3bd6:	40007737          	lui	a4,0x40007
    3bda:	40072783          	lw	a5,1024(a4) # 40007400 <_eusrstack+0x1ffff400>
    3bde:	8d5d                	or	a0,a0,a5
    3be0:	40a72023          	sw	a0,1024(a4)
    3be4:	8082                	ret
    3be6:	400077b7          	lui	a5,0x40007
    3bea:	4007a703          	lw	a4,1024(a5) # 40007400 <_eusrstack+0x1ffff400>
    3bee:	fff54513          	not	a0,a0
    3bf2:	8d79                	and	a0,a0,a4
    3bf4:	40a7a023          	sw	a0,1024(a5)
    3bf8:	8082                	ret

00003bfa <DAC_DMACmd>:
    3bfa:	6785                	lui	a5,0x1
    3bfc:	00a79533          	sll	a0,a5,a0
    3c00:	c989                	beqz	a1,3c12 <DAC_DMACmd+0x18>
    3c02:	40007737          	lui	a4,0x40007
    3c06:	40072783          	lw	a5,1024(a4) # 40007400 <_eusrstack+0x1ffff400>
    3c0a:	8d5d                	or	a0,a0,a5
    3c0c:	40a72023          	sw	a0,1024(a4)
    3c10:	8082                	ret
    3c12:	400077b7          	lui	a5,0x40007
    3c16:	4007a703          	lw	a4,1024(a5) # 40007400 <_eusrstack+0x1ffff400>
    3c1a:	fff54513          	not	a0,a0
    3c1e:	8d79                	and	a0,a0,a4
    3c20:	40a7a023          	sw	a0,1024(a5)
    3c24:	8082                	ret

00003c26 <DBGMCU_GetCHIPID>:
    3c26:	1ffff7b7          	lui	a5,0x1ffff
    3c2a:	7047a503          	lw	a0,1796(a5) # 1ffff704 <_data_lma+0x1fff7fb0>
    3c2e:	8082                	ret

00003c30 <DMA_Init>:
    3c30:	411c                	lw	a5,0(a0)
    3c32:	7761                	lui	a4,0xffff8
    3c34:	073d                	addi	a4,a4,15
    3c36:	5194                	lw	a3,32(a1)
    3c38:	8f7d                	and	a4,a4,a5
    3c3a:	459c                	lw	a5,8(a1)
    3c3c:	8fd5                	or	a5,a5,a3
    3c3e:	4994                	lw	a3,16(a1)
    3c40:	8fd5                	or	a5,a5,a3
    3c42:	49d4                	lw	a3,20(a1)
    3c44:	8fd5                	or	a5,a5,a3
    3c46:	4d94                	lw	a3,24(a1)
    3c48:	8fd5                	or	a5,a5,a3
    3c4a:	4dd4                	lw	a3,28(a1)
    3c4c:	8fd5                	or	a5,a5,a3
    3c4e:	51d4                	lw	a3,36(a1)
    3c50:	8fd5                	or	a5,a5,a3
    3c52:	5594                	lw	a3,40(a1)
    3c54:	8fd5                	or	a5,a5,a3
    3c56:	8fd9                	or	a5,a5,a4
    3c58:	c11c                	sw	a5,0(a0)
    3c5a:	45dc                	lw	a5,12(a1)
    3c5c:	c15c                	sw	a5,4(a0)
    3c5e:	419c                	lw	a5,0(a1)
    3c60:	c51c                	sw	a5,8(a0)
    3c62:	41dc                	lw	a5,4(a1)
    3c64:	c55c                	sw	a5,12(a0)
    3c66:	8082                	ret

00003c68 <DMA_StructInit>:
    3c68:	00052023          	sw	zero,0(a0)
    3c6c:	00052223          	sw	zero,4(a0)
    3c70:	00052423          	sw	zero,8(a0)
    3c74:	00052623          	sw	zero,12(a0)
    3c78:	00052823          	sw	zero,16(a0)
    3c7c:	00052a23          	sw	zero,20(a0)
    3c80:	00052c23          	sw	zero,24(a0)
    3c84:	00052e23          	sw	zero,28(a0)
    3c88:	02052023          	sw	zero,32(a0)
    3c8c:	02052223          	sw	zero,36(a0)
    3c90:	02052423          	sw	zero,40(a0)
    3c94:	8082                	ret

00003c96 <DMA_Cmd>:
    3c96:	411c                	lw	a5,0(a0)
    3c98:	c589                	beqz	a1,3ca2 <DMA_Cmd+0xc>
    3c9a:	0017e793          	ori	a5,a5,1
    3c9e:	c11c                	sw	a5,0(a0)
    3ca0:	8082                	ret
    3ca2:	6741                	lui	a4,0x10
    3ca4:	1779                	addi	a4,a4,-2
    3ca6:	8ff9                	and	a5,a5,a4
    3ca8:	bfdd                	j	3c9e <DMA_Cmd+0x8>

00003caa <DMA_ITConfig>:
    3caa:	411c                	lw	a5,0(a0)
    3cac:	c601                	beqz	a2,3cb4 <DMA_ITConfig+0xa>
    3cae:	8ddd                	or	a1,a1,a5
    3cb0:	c10c                	sw	a1,0(a0)
    3cb2:	8082                	ret
    3cb4:	fff5c593          	not	a1,a1
    3cb8:	8dfd                	and	a1,a1,a5
    3cba:	bfdd                	j	3cb0 <DMA_ITConfig+0x6>

00003cbc <DMA_GetFlagStatus>:
    3cbc:	00351793          	slli	a5,a0,0x3
    3cc0:	0007da63          	bgez	a5,3cd4 <DMA_GetFlagStatus+0x18>
    3cc4:	400207b7          	lui	a5,0x40020
    3cc8:	4007a783          	lw	a5,1024(a5) # 40020400 <_eusrstack+0x20018400>
    3ccc:	8d7d                	and	a0,a0,a5
    3cce:	00a03533          	snez	a0,a0
    3cd2:	8082                	ret
    3cd4:	00251793          	slli	a5,a0,0x2
    3cd8:	0007d763          	bgez	a5,3ce6 <DMA_GetFlagStatus+0x2a>
    3cdc:	400207b7          	lui	a5,0x40020
    3ce0:	4d07a783          	lw	a5,1232(a5) # 400204d0 <_eusrstack+0x200184d0>
    3ce4:	b7e5                	j	3ccc <DMA_GetFlagStatus+0x10>
    3ce6:	400207b7          	lui	a5,0x40020
    3cea:	439c                	lw	a5,0(a5)
    3cec:	b7c5                	j	3ccc <DMA_GetFlagStatus+0x10>

00003cee <DMA_ClearFlag>:
    3cee:	00351793          	slli	a5,a0,0x3
    3cf2:	0007d763          	bgez	a5,3d00 <DMA_ClearFlag+0x12>
    3cf6:	400207b7          	lui	a5,0x40020
    3cfa:	40a7a223          	sw	a0,1028(a5) # 40020404 <_eusrstack+0x20018404>
    3cfe:	8082                	ret
    3d00:	00251793          	slli	a5,a0,0x2
    3d04:	0007d763          	bgez	a5,3d12 <DMA_ClearFlag+0x24>
    3d08:	400207b7          	lui	a5,0x40020
    3d0c:	4ca7aa23          	sw	a0,1236(a5) # 400204d4 <_eusrstack+0x200184d4>
    3d10:	8082                	ret
    3d12:	400207b7          	lui	a5,0x40020
    3d16:	c3c8                	sw	a0,4(a5)
    3d18:	8082                	ret

00003d1a <DMA_GetITStatus>:
    3d1a:	cd6fc2ef          	jal	t0,1f0 <__riscv_save_0>
    3d1e:	3f79                	jal	3cbc <DMA_GetFlagStatus>
    3d20:	cf4fc06f          	j	214 <__riscv_restore_0>

00003d24 <DMA_ClearITPendingBit>:
    3d24:	cccfc2ef          	jal	t0,1f0 <__riscv_save_0>
    3d28:	37d9                	jal	3cee <DMA_ClearFlag>
    3d2a:	ceafc06f          	j	214 <__riscv_restore_0>

00003d2e <GPIO_Init>:
    3d2e:	459c                	lw	a5,8(a1)
    3d30:	0107f713          	andi	a4,a5,16
    3d34:	00f7f813          	andi	a6,a5,15
    3d38:	c701                	beqz	a4,3d40 <GPIO_Init+0x12>
    3d3a:	41d8                	lw	a4,4(a1)
    3d3c:	00e86833          	or	a6,a6,a4
    3d40:	218e                	lhu	a1,0(a1)
    3d42:	0ff5f713          	andi	a4,a1,255
    3d46:	c339                	beqz	a4,3d8c <GPIO_Init+0x5e>
    3d48:	4118                	lw	a4,0(a0)
    3d4a:	4681                	li	a3,0
    3d4c:	4e85                	li	t4,1
    3d4e:	4f3d                	li	t5,15
    3d50:	02800f93          	li	t6,40
    3d54:	04800293          	li	t0,72
    3d58:	4e21                	li	t3,8
    3d5a:	00de9633          	sll	a2,t4,a3
    3d5e:	00c5f8b3          	and	a7,a1,a2
    3d62:	03161163          	bne	a2,a7,3d84 <GPIO_Init+0x56>
    3d66:	00269893          	slli	a7,a3,0x2
    3d6a:	011f1333          	sll	t1,t5,a7
    3d6e:	fff34313          	not	t1,t1
    3d72:	00e37733          	and	a4,t1,a4
    3d76:	011818b3          	sll	a7,a6,a7
    3d7a:	00e8e733          	or	a4,a7,a4
    3d7e:	05f79f63          	bne	a5,t6,3ddc <GPIO_Init+0xae>
    3d82:	c950                	sw	a2,20(a0)
    3d84:	0685                	addi	a3,a3,1
    3d86:	fdc69ae3          	bne	a3,t3,3d5a <GPIO_Init+0x2c>
    3d8a:	c118                	sw	a4,0(a0)
    3d8c:	0ff00713          	li	a4,255
    3d90:	04b77563          	bgeu	a4,a1,3dda <GPIO_Init+0xac>
    3d94:	4154                	lw	a3,4(a0)
    3d96:	4621                	li	a2,8
    3d98:	4e85                	li	t4,1
    3d9a:	4f3d                	li	t5,15
    3d9c:	02800f93          	li	t6,40
    3da0:	04800293          	li	t0,72
    3da4:	4e41                	li	t3,16
    3da6:	00ce98b3          	sll	a7,t4,a2
    3daa:	0115f733          	and	a4,a1,a7
    3dae:	02e89263          	bne	a7,a4,3dd2 <GPIO_Init+0xa4>
    3db2:	00261713          	slli	a4,a2,0x2
    3db6:	1701                	addi	a4,a4,-32
    3db8:	00ef1333          	sll	t1,t5,a4
    3dbc:	fff34313          	not	t1,t1
    3dc0:	00d376b3          	and	a3,t1,a3
    3dc4:	00e81733          	sll	a4,a6,a4
    3dc8:	8ed9                	or	a3,a3,a4
    3dca:	01f79d63          	bne	a5,t6,3de4 <GPIO_Init+0xb6>
    3dce:	01152a23          	sw	a7,20(a0)
    3dd2:	0605                	addi	a2,a2,1
    3dd4:	fdc619e3          	bne	a2,t3,3da6 <GPIO_Init+0x78>
    3dd8:	c154                	sw	a3,4(a0)
    3dda:	8082                	ret
    3ddc:	fa5794e3          	bne	a5,t0,3d84 <GPIO_Init+0x56>
    3de0:	c910                	sw	a2,16(a0)
    3de2:	b74d                	j	3d84 <GPIO_Init+0x56>
    3de4:	fe5797e3          	bne	a5,t0,3dd2 <GPIO_Init+0xa4>
    3de8:	01152823          	sw	a7,16(a0)
    3dec:	b7dd                	j	3dd2 <GPIO_Init+0xa4>

00003dee <GPIO_ReadInputDataBit>:
    3dee:	4508                	lw	a0,8(a0)
    3df0:	8d6d                	and	a0,a0,a1
    3df2:	00a03533          	snez	a0,a0
    3df6:	8082                	ret

00003df8 <GPIO_WriteBit>:
    3df8:	c219                	beqz	a2,3dfe <GPIO_WriteBit+0x6>
    3dfa:	c90c                	sw	a1,16(a0)
    3dfc:	8082                	ret
    3dfe:	c94c                	sw	a1,20(a0)
    3e00:	8082                	ret

00003e02 <NVIC_PriorityGroupConfig>:
    3e02:	84a1a223          	sw	a0,-1980(gp) # 200000c4 <NVIC_Priority_Group>
    3e06:	8082                	ret

00003e08 <RCC_GetClocksFreq>:
    3e08:	40021737          	lui	a4,0x40021
    3e0c:	435c                	lw	a5,4(a4)
    3e0e:	4691                	li	a3,4
    3e10:	8bb1                	andi	a5,a5,12
    3e12:	00d78563          	beq	a5,a3,3e1c <RCC_GetClocksFreq+0x14>
    3e16:	46a1                	li	a3,8
    3e18:	06d78263          	beq	a5,a3,3e7c <RCC_GetClocksFreq+0x74>
    3e1c:	007a17b7          	lui	a5,0x7a1
    3e20:	20078793          	addi	a5,a5,512 # 7a1200 <_data_lma+0x799aac>
    3e24:	c11c                	sw	a5,0(a0)
    3e26:	40021637          	lui	a2,0x40021
    3e2a:	425c                	lw	a5,4(a2)
    3e2c:	20000737          	lui	a4,0x20000
    3e30:	01070713          	addi	a4,a4,16 # 20000010 <APBAHBPrescTable>
    3e34:	8391                	srli	a5,a5,0x4
    3e36:	8bbd                	andi	a5,a5,15
    3e38:	97ba                	add	a5,a5,a4
    3e3a:	2394                	lbu	a3,0(a5)
    3e3c:	411c                	lw	a5,0(a0)
    3e3e:	00d7d7b3          	srl	a5,a5,a3
    3e42:	c15c                	sw	a5,4(a0)
    3e44:	4254                	lw	a3,4(a2)
    3e46:	82a1                	srli	a3,a3,0x8
    3e48:	8a9d                	andi	a3,a3,7
    3e4a:	96ba                	add	a3,a3,a4
    3e4c:	2294                	lbu	a3,0(a3)
    3e4e:	00d7d6b3          	srl	a3,a5,a3
    3e52:	c514                	sw	a3,8(a0)
    3e54:	4254                	lw	a3,4(a2)
    3e56:	82ad                	srli	a3,a3,0xb
    3e58:	8a9d                	andi	a3,a3,7
    3e5a:	9736                	add	a4,a4,a3
    3e5c:	2318                	lbu	a4,0(a4)
    3e5e:	00e7d7b3          	srl	a5,a5,a4
    3e62:	c55c                	sw	a5,12(a0)
    3e64:	4258                	lw	a4,4(a2)
    3e66:	8339                	srli	a4,a4,0xe
    3e68:	00377693          	andi	a3,a4,3
    3e6c:	80c18713          	addi	a4,gp,-2036 # 2000008c <ADCPrescTable>
    3e70:	9736                	add	a4,a4,a3
    3e72:	2318                	lbu	a4,0(a4)
    3e74:	02e7d7b3          	divu	a5,a5,a4
    3e78:	c91c                	sw	a5,16(a0)
    3e7a:	8082                	ret
    3e7c:	435c                	lw	a5,4(a4)
    3e7e:	4358                	lw	a4,4(a4)
    3e80:	66c1                	lui	a3,0x10
    3e82:	83c9                	srli	a5,a5,0x12
    3e84:	8f75                	and	a4,a4,a3
    3e86:	1ffff6b7          	lui	a3,0x1ffff
    3e8a:	70c6a683          	lw	a3,1804(a3) # 1ffff70c <_data_lma+0x1fff7fb8>
    3e8e:	8bbd                	andi	a5,a5,15
    3e90:	0789                	addi	a5,a5,2
    3e92:	01169613          	slli	a2,a3,0x11
    3e96:	00064863          	bltz	a2,3ea6 <RCC_GetClocksFreq+0x9e>
    3e9a:	46c5                	li	a3,17
    3e9c:	4601                	li	a2,0
    3e9e:	02d79263          	bne	a5,a3,3ec2 <RCC_GetClocksFreq+0xba>
    3ea2:	47c9                	li	a5,18
    3ea4:	a839                	j	3ec2 <RCC_GetClocksFreq+0xba>
    3ea6:	4689                	li	a3,2
    3ea8:	02d78f63          	beq	a5,a3,3ee6 <RCC_GetClocksFreq+0xde>
    3eac:	46bd                	li	a3,15
    3eae:	02d78e63          	beq	a5,a3,3eea <RCC_GetClocksFreq+0xe2>
    3eb2:	46c1                	li	a3,16
    3eb4:	02d78e63          	beq	a5,a3,3ef0 <RCC_GetClocksFreq+0xe8>
    3eb8:	46c5                	li	a3,17
    3eba:	4601                	li	a2,0
    3ebc:	00d79363          	bne	a5,a3,3ec2 <RCC_GetClocksFreq+0xba>
    3ec0:	47c1                	li	a5,16
    3ec2:	ef1d                	bnez	a4,3f00 <RCC_GetClocksFreq+0xf8>
    3ec4:	40024737          	lui	a4,0x40024
    3ec8:	80072703          	lw	a4,-2048(a4) # 40023800 <_eusrstack+0x2001b800>
    3ecc:	8b41                	andi	a4,a4,16
    3ece:	c705                	beqz	a4,3ef6 <RCC_GetClocksFreq+0xee>
    3ed0:	007a1737          	lui	a4,0x7a1
    3ed4:	20070713          	addi	a4,a4,512 # 7a1200 <_data_lma+0x799aac>
    3ed8:	02f707b3          	mul	a5,a4,a5
    3edc:	c11c                	sw	a5,0(a0)
    3ede:	d621                	beqz	a2,3e26 <RCC_GetClocksFreq+0x1e>
    3ee0:	411c                	lw	a5,0(a0)
    3ee2:	8385                	srli	a5,a5,0x1
    3ee4:	b781                	j	3e24 <RCC_GetClocksFreq+0x1c>
    3ee6:	4601                	li	a2,0
    3ee8:	bf6d                	j	3ea2 <RCC_GetClocksFreq+0x9a>
    3eea:	4605                	li	a2,1
    3eec:	47b5                	li	a5,13
    3eee:	bfd1                	j	3ec2 <RCC_GetClocksFreq+0xba>
    3ef0:	4601                	li	a2,0
    3ef2:	47bd                	li	a5,15
    3ef4:	b7f9                	j	3ec2 <RCC_GetClocksFreq+0xba>
    3ef6:	003d1737          	lui	a4,0x3d1
    3efa:	90070713          	addi	a4,a4,-1792 # 3d0900 <_data_lma+0x3c91ac>
    3efe:	bfe9                	j	3ed8 <RCC_GetClocksFreq+0xd0>
    3f00:	400215b7          	lui	a1,0x40021
    3f04:	55d8                	lw	a4,44(a1)
    3f06:	00f71693          	slli	a3,a4,0xf
    3f0a:	55d8                	lw	a4,44(a1)
    3f0c:	0406df63          	bgez	a3,3f6a <RCC_GetClocksFreq+0x162>
    3f10:	8311                	srli	a4,a4,0x4
    3f12:	8b3d                	andi	a4,a4,15
    3f14:	00170693          	addi	a3,a4,1
    3f18:	007a1737          	lui	a4,0x7a1
    3f1c:	20070713          	addi	a4,a4,512 # 7a1200 <_data_lma+0x799aac>
    3f20:	02d75733          	divu	a4,a4,a3
    3f24:	c118                	sw	a4,0(a0)
    3f26:	55d4                	lw	a3,44(a1)
    3f28:	82a1                	srli	a3,a3,0x8
    3f2a:	8abd                	andi	a3,a3,15
    3f2c:	e28d                	bnez	a3,3f4e <RCC_GetClocksFreq+0x146>
    3f2e:	4695                	li	a3,5
    3f30:	02d70733          	mul	a4,a4,a3
    3f34:	8305                	srli	a4,a4,0x1
    3f36:	c118                	sw	a4,0(a0)
    3f38:	40021737          	lui	a4,0x40021
    3f3c:	5758                	lw	a4,44(a4)
    3f3e:	4114                	lw	a3,0(a0)
    3f40:	8b3d                	andi	a4,a4,15
    3f42:	0705                	addi	a4,a4,1
    3f44:	02e6d733          	divu	a4,a3,a4
    3f48:	c118                	sw	a4,0(a0)
    3f4a:	4118                	lw	a4,0(a0)
    3f4c:	b771                	j	3ed8 <RCC_GetClocksFreq+0xd0>
    3f4e:	4585                	li	a1,1
    3f50:	00b69463          	bne	a3,a1,3f58 <RCC_GetClocksFreq+0x150>
    3f54:	46e5                	li	a3,25
    3f56:	bfe9                	j	3f30 <RCC_GetClocksFreq+0x128>
    3f58:	45bd                	li	a1,15
    3f5a:	00b69663          	bne	a3,a1,3f66 <RCC_GetClocksFreq+0x15e>
    3f5e:	46d1                	li	a3,20
    3f60:	02e68733          	mul	a4,a3,a4
    3f64:	bfc9                	j	3f36 <RCC_GetClocksFreq+0x12e>
    3f66:	0689                	addi	a3,a3,2
    3f68:	bfe5                	j	3f60 <RCC_GetClocksFreq+0x158>
    3f6a:	8b3d                	andi	a4,a4,15
    3f6c:	00170693          	addi	a3,a4,1 # 40021001 <_eusrstack+0x20019001>
    3f70:	007a1737          	lui	a4,0x7a1
    3f74:	20070713          	addi	a4,a4,512 # 7a1200 <_data_lma+0x799aac>
    3f78:	02d75733          	divu	a4,a4,a3
    3f7c:	b7f1                	j	3f48 <RCC_GetClocksFreq+0x140>

00003f7e <RCC_AHBPeriphClockCmd>:
    3f7e:	c599                	beqz	a1,3f8c <RCC_AHBPeriphClockCmd+0xe>
    3f80:	40021737          	lui	a4,0x40021
    3f84:	4b5c                	lw	a5,20(a4)
    3f86:	8d5d                	or	a0,a0,a5
    3f88:	cb48                	sw	a0,20(a4)
    3f8a:	8082                	ret
    3f8c:	400217b7          	lui	a5,0x40021
    3f90:	4bd8                	lw	a4,20(a5)
    3f92:	fff54513          	not	a0,a0
    3f96:	8d79                	and	a0,a0,a4
    3f98:	cbc8                	sw	a0,20(a5)
    3f9a:	8082                	ret

00003f9c <RCC_APB2PeriphClockCmd>:
    3f9c:	c599                	beqz	a1,3faa <RCC_APB2PeriphClockCmd+0xe>
    3f9e:	40021737          	lui	a4,0x40021
    3fa2:	4f1c                	lw	a5,24(a4)
    3fa4:	8d5d                	or	a0,a0,a5
    3fa6:	cf08                	sw	a0,24(a4)
    3fa8:	8082                	ret
    3faa:	400217b7          	lui	a5,0x40021
    3fae:	4f98                	lw	a4,24(a5)
    3fb0:	fff54513          	not	a0,a0
    3fb4:	8d79                	and	a0,a0,a4
    3fb6:	cf88                	sw	a0,24(a5)
    3fb8:	8082                	ret

00003fba <RCC_APB1PeriphClockCmd>:
    3fba:	c599                	beqz	a1,3fc8 <RCC_APB1PeriphClockCmd+0xe>
    3fbc:	40021737          	lui	a4,0x40021
    3fc0:	4f5c                	lw	a5,28(a4)
    3fc2:	8d5d                	or	a0,a0,a5
    3fc4:	cf48                	sw	a0,28(a4)
    3fc6:	8082                	ret
    3fc8:	400217b7          	lui	a5,0x40021
    3fcc:	4fd8                	lw	a4,28(a5)
    3fce:	fff54513          	not	a0,a0
    3fd2:	8d79                	and	a0,a0,a4
    3fd4:	cfc8                	sw	a0,28(a5)
    3fd6:	8082                	ret

00003fd8 <SPI_Init>:
    3fd8:	211a                	lhu	a4,0(a0)
    3fda:	678d                	lui	a5,0x3
    3fdc:	04078793          	addi	a5,a5,64 # 3040 <mp3dec_decode_frame+0x1a52>
    3fe0:	21b6                	lhu	a3,2(a1)
    3fe2:	8f7d                	and	a4,a4,a5
    3fe4:	219e                	lhu	a5,0(a1)
    3fe6:	8fd5                	or	a5,a5,a3
    3fe8:	21d6                	lhu	a3,4(a1)
    3fea:	8fd5                	or	a5,a5,a3
    3fec:	21f6                	lhu	a3,6(a1)
    3fee:	8fd5                	or	a5,a5,a3
    3ff0:	2596                	lhu	a3,8(a1)
    3ff2:	8fd5                	or	a5,a5,a3
    3ff4:	25b6                	lhu	a3,10(a1)
    3ff6:	8fd5                	or	a5,a5,a3
    3ff8:	25d6                	lhu	a3,12(a1)
    3ffa:	8fd5                	or	a5,a5,a3
    3ffc:	25f6                	lhu	a3,14(a1)
    3ffe:	8fd5                	or	a5,a5,a3
    4000:	8fd9                	or	a5,a5,a4
    4002:	a11e                	sh	a5,0(a0)
    4004:	2d5a                	lhu	a4,28(a0)
    4006:	77fd                	lui	a5,0xfffff
    4008:	7ff78793          	addi	a5,a5,2047 # fffff7ff <_eusrstack+0xdfff77ff>
    400c:	8ff9                	and	a5,a5,a4
    400e:	ad5e                	sh	a5,28(a0)
    4010:	299e                	lhu	a5,16(a1)
    4012:	a91e                	sh	a5,16(a0)
    4014:	8082                	ret

00004016 <SPI_Cmd>:
    4016:	211e                	lhu	a5,0(a0)
    4018:	c589                	beqz	a1,4022 <SPI_Cmd+0xc>
    401a:	0407e793          	ori	a5,a5,64
    401e:	a11e                	sh	a5,0(a0)
    4020:	8082                	ret
    4022:	07c2                	slli	a5,a5,0x10
    4024:	83c1                	srli	a5,a5,0x10
    4026:	fbf7f793          	andi	a5,a5,-65
    402a:	07c2                	slli	a5,a5,0x10
    402c:	83c1                	srli	a5,a5,0x10
    402e:	bfc5                	j	401e <SPI_Cmd+0x8>

00004030 <SPI_I2S_SendData>:
    4030:	a54e                	sh	a1,12(a0)
    4032:	8082                	ret

00004034 <SPI_I2S_ReceiveData>:
    4034:	254a                	lhu	a0,12(a0)
    4036:	8082                	ret

00004038 <SPI_I2S_GetFlagStatus>:
    4038:	250a                	lhu	a0,8(a0)
    403a:	8d6d                	and	a0,a0,a1
    403c:	00a03533          	snez	a0,a0
    4040:	8082                	ret

00004042 <TIM_TimeBaseInit>:
    4042:	1ffff737          	lui	a4,0x1ffff
    4046:	70472703          	lw	a4,1796(a4) # 1ffff704 <_data_lma+0x1fff7fb0>
    404a:	211e                	lhu	a5,0(a0)
    404c:	4691                	li	a3,4
    404e:	8311                	srli	a4,a4,0x4
    4050:	8b3d                	andi	a4,a4,15
    4052:	07c2                	slli	a5,a5,0x10
    4054:	1771                	addi	a4,a4,-4
    4056:	83c1                	srli	a5,a5,0x10
    4058:	02e6e663          	bltu	a3,a4,4084 <TIM_TimeBaseInit+0x42>
    405c:	40013737          	lui	a4,0x40013
    4060:	c0070693          	addi	a3,a4,-1024 # 40012c00 <_eusrstack+0x2000ac00>
    4064:	00d50e63          	beq	a0,a3,4080 <TIM_TimeBaseInit+0x3e>
    4068:	40070713          	addi	a4,a4,1024
    406c:	00e50a63          	beq	a0,a4,4080 <TIM_TimeBaseInit+0x3e>
    4070:	40015737          	lui	a4,0x40015
    4074:	c0070693          	addi	a3,a4,-1024 # 40014c00 <_eusrstack+0x2000cc00>
    4078:	00d50463          	beq	a0,a3,4080 <TIM_TimeBaseInit+0x3e>
    407c:	00e51a63          	bne	a0,a4,4090 <TIM_TimeBaseInit+0x4e>
    4080:	6709                	lui	a4,0x2
    4082:	8fd9                	or	a5,a5,a4
    4084:	40013737          	lui	a4,0x40013
    4088:	c0070713          	addi	a4,a4,-1024 # 40012c00 <_eusrstack+0x2000ac00>
    408c:	04e50263          	beq	a0,a4,40d0 <TIM_TimeBaseInit+0x8e>
    4090:	40000737          	lui	a4,0x40000
    4094:	02e50e63          	beq	a0,a4,40d0 <TIM_TimeBaseInit+0x8e>
    4098:	40070713          	addi	a4,a4,1024 # 40000400 <_eusrstack+0x1fff8400>
    409c:	02e50a63          	beq	a0,a4,40d0 <TIM_TimeBaseInit+0x8e>
    40a0:	40001737          	lui	a4,0x40001
    40a4:	80070693          	addi	a3,a4,-2048 # 40000800 <_eusrstack+0x1fff8800>
    40a8:	02d50463          	beq	a0,a3,40d0 <TIM_TimeBaseInit+0x8e>
    40ac:	c0070713          	addi	a4,a4,-1024
    40b0:	02e50063          	beq	a0,a4,40d0 <TIM_TimeBaseInit+0x8e>
    40b4:	40013737          	lui	a4,0x40013
    40b8:	40070713          	addi	a4,a4,1024 # 40013400 <_eusrstack+0x2000b400>
    40bc:	00e50a63          	beq	a0,a4,40d0 <TIM_TimeBaseInit+0x8e>
    40c0:	40015737          	lui	a4,0x40015
    40c4:	c0070693          	addi	a3,a4,-1024 # 40014c00 <_eusrstack+0x2000cc00>
    40c8:	00d50463          	beq	a0,a3,40d0 <TIM_TimeBaseInit+0x8e>
    40cc:	00e51863          	bne	a0,a4,40dc <TIM_TimeBaseInit+0x9a>
    40d0:	f8f7f793          	andi	a5,a5,-113
    40d4:	21ba                	lhu	a4,2(a1)
    40d6:	07c2                	slli	a5,a5,0x10
    40d8:	83c1                	srli	a5,a5,0x10
    40da:	8fd9                	or	a5,a5,a4
    40dc:	40001737          	lui	a4,0x40001
    40e0:	00e50c63          	beq	a0,a4,40f8 <TIM_TimeBaseInit+0xb6>
    40e4:	40070713          	addi	a4,a4,1024 # 40001400 <_eusrstack+0x1fff9400>
    40e8:	00e50863          	beq	a0,a4,40f8 <TIM_TimeBaseInit+0xb6>
    40ec:	cff7f793          	andi	a5,a5,-769
    40f0:	21fa                	lhu	a4,6(a1)
    40f2:	07c2                	slli	a5,a5,0x10
    40f4:	83c1                	srli	a5,a5,0x10
    40f6:	8fd9                	or	a5,a5,a4
    40f8:	a11e                	sh	a5,0(a0)
    40fa:	21de                	lhu	a5,4(a1)
    40fc:	b55e                	sh	a5,44(a0)
    40fe:	219e                	lhu	a5,0(a1)
    4100:	b51e                	sh	a5,40(a0)
    4102:	400137b7          	lui	a5,0x40013
    4106:	c0078713          	addi	a4,a5,-1024 # 40012c00 <_eusrstack+0x2000ac00>
    410a:	00e50e63          	beq	a0,a4,4126 <TIM_TimeBaseInit+0xe4>
    410e:	40078793          	addi	a5,a5,1024
    4112:	00f50a63          	beq	a0,a5,4126 <TIM_TimeBaseInit+0xe4>
    4116:	400157b7          	lui	a5,0x40015
    411a:	c0078713          	addi	a4,a5,-1024 # 40014c00 <_eusrstack+0x2000cc00>
    411e:	00e50463          	beq	a0,a4,4126 <TIM_TimeBaseInit+0xe4>
    4122:	00f51463          	bne	a0,a5,412a <TIM_TimeBaseInit+0xe8>
    4126:	259c                	lbu	a5,8(a1)
    4128:	b91e                	sh	a5,48(a0)
    412a:	4785                	li	a5,1
    412c:	a95e                	sh	a5,20(a0)
    412e:	8082                	ret

00004130 <TIM_TimeBaseStructInit>:
    4130:	57fd                	li	a5,-1
    4132:	a15e                	sh	a5,4(a0)
    4134:	00051023          	sh	zero,0(a0)
    4138:	00051323          	sh	zero,6(a0)
    413c:	00051123          	sh	zero,2(a0)
    4140:	00050423          	sb	zero,8(a0)
    4144:	8082                	ret

00004146 <TIM_Cmd>:
    4146:	211e                	lhu	a5,0(a0)
    4148:	c589                	beqz	a1,4152 <TIM_Cmd+0xc>
    414a:	0017e793          	ori	a5,a5,1
    414e:	a11e                	sh	a5,0(a0)
    4150:	8082                	ret
    4152:	07c2                	slli	a5,a5,0x10
    4154:	83c1                	srli	a5,a5,0x10
    4156:	9bf9                	andi	a5,a5,-2
    4158:	07c2                	slli	a5,a5,0x10
    415a:	83c1                	srli	a5,a5,0x10
    415c:	bfcd                	j	414e <TIM_Cmd+0x8>

0000415e <TIM_SelectOutputTrigger>:
    415e:	215e                	lhu	a5,4(a0)
    4160:	07c2                	slli	a5,a5,0x10
    4162:	83c1                	srli	a5,a5,0x10
    4164:	f8f7f793          	andi	a5,a5,-113
    4168:	07c2                	slli	a5,a5,0x10
    416a:	83c1                	srli	a5,a5,0x10
    416c:	a15e                	sh	a5,4(a0)
    416e:	215e                	lhu	a5,4(a0)
    4170:	8ddd                	or	a1,a1,a5
    4172:	a14e                	sh	a1,4(a0)
    4174:	8082                	ret

00004176 <USART_Init>:
    4176:	87afc2ef          	jal	t0,1f0 <__riscv_save_0>
    417a:	2916                	lhu	a3,16(a0)
    417c:	77f5                	lui	a5,0xffffd
    417e:	17fd                	addi	a5,a5,-1
    4180:	8ff5                	and	a5,a5,a3
    4182:	21f6                	lhu	a3,6(a1)
    4184:	25da                	lhu	a4,12(a1)
    4186:	7179                	addi	sp,sp,-48
    4188:	8fd5                	or	a5,a5,a3
    418a:	a91e                	sh	a5,16(a0)
    418c:	2556                	lhu	a3,12(a0)
    418e:	77fd                	lui	a5,0xfffff
    4190:	9f378793          	addi	a5,a5,-1549 # ffffe9f3 <_eusrstack+0xdfff69f3>
    4194:	8ff5                	and	a5,a5,a3
    4196:	21d6                	lhu	a3,4(a1)
    4198:	842a                	mv	s0,a0
    419a:	c62e                	sw	a1,12(sp)
    419c:	8fd5                	or	a5,a5,a3
    419e:	2596                	lhu	a3,8(a1)
    41a0:	8fd5                	or	a5,a5,a3
    41a2:	25b6                	lhu	a3,10(a1)
    41a4:	8fd5                	or	a5,a5,a3
    41a6:	a55e                	sh	a5,12(a0)
    41a8:	295e                	lhu	a5,20(a0)
    41aa:	07c2                	slli	a5,a5,0x10
    41ac:	83c1                	srli	a5,a5,0x10
    41ae:	cff7f793          	andi	a5,a5,-769
    41b2:	8fd9                	or	a5,a5,a4
    41b4:	a95e                	sh	a5,20(a0)
    41b6:	0868                	addi	a0,sp,28
    41b8:	c51ff0ef          	jal	ra,3e08 <RCC_GetClocksFreq>
    41bc:	400147b7          	lui	a5,0x40014
    41c0:	80078793          	addi	a5,a5,-2048 # 40013800 <_eusrstack+0x2000b800>
    41c4:	45b2                	lw	a1,12(sp)
    41c6:	02f41e63          	bne	s0,a5,4202 <USART_Init+0x8c>
    41ca:	57a2                	lw	a5,40(sp)
    41cc:	4765                	li	a4,25
    41ce:	02e787b3          	mul	a5,a5,a4
    41d2:	4198                	lw	a4,0(a1)
    41d4:	06400693          	li	a3,100
    41d8:	070a                	slli	a4,a4,0x2
    41da:	02e7d7b3          	divu	a5,a5,a4
    41de:	02d7d733          	divu	a4,a5,a3
    41e2:	02d7f7b3          	remu	a5,a5,a3
    41e6:	0712                	slli	a4,a4,0x4
    41e8:	0792                	slli	a5,a5,0x4
    41ea:	03278793          	addi	a5,a5,50
    41ee:	02d7d7b3          	divu	a5,a5,a3
    41f2:	8bbd                	andi	a5,a5,15
    41f4:	8fd9                	or	a5,a5,a4
    41f6:	07c2                	slli	a5,a5,0x10
    41f8:	83c1                	srli	a5,a5,0x10
    41fa:	a41e                	sh	a5,8(s0)
    41fc:	6145                	addi	sp,sp,48
    41fe:	816fc06f          	j	214 <__riscv_restore_0>
    4202:	5792                	lw	a5,36(sp)
    4204:	b7e1                	j	41cc <USART_Init+0x56>

00004206 <USART_Cmd>:
    4206:	c591                	beqz	a1,4212 <USART_Cmd+0xc>
    4208:	255e                	lhu	a5,12(a0)
    420a:	6709                	lui	a4,0x2
    420c:	8fd9                	or	a5,a5,a4
    420e:	a55e                	sh	a5,12(a0)
    4210:	8082                	ret
    4212:	255a                	lhu	a4,12(a0)
    4214:	77f9                	lui	a5,0xffffe
    4216:	17fd                	addi	a5,a5,-1
    4218:	8ff9                	and	a5,a5,a4
    421a:	bfd5                	j	420e <USART_Cmd+0x8>

0000421c <USART_SendData>:
    421c:	1ff5f593          	andi	a1,a1,511
    4220:	a14e                	sh	a1,4(a0)
    4222:	8082                	ret

00004224 <USART_GetFlagStatus>:
    4224:	210a                	lhu	a0,0(a0)
    4226:	8d6d                	and	a0,a0,a1
    4228:	00a03533          	snez	a0,a0
    422c:	8082                	ret

0000422e <Delay_Init>:
    422e:	8081a783          	lw	a5,-2040(gp) # 20000088 <SystemCoreClock>
    4232:	007a1737          	lui	a4,0x7a1
    4236:	20070713          	addi	a4,a4,512 # 7a1200 <_data_lma+0x799aac>
    423a:	02e7d7b3          	divu	a5,a5,a4
    423e:	0ff7f793          	andi	a5,a5,255
    4242:	84f18523          	sb	a5,-1974(gp) # 200000ca <p_us>
    4246:	3e800713          	li	a4,1000
    424a:	02e787b3          	mul	a5,a5,a4
    424e:	84f19423          	sh	a5,-1976(gp) # 200000c8 <p_ms>
    4252:	8082                	ret

00004254 <Delay_Us>:
    4254:	e000f7b7          	lui	a5,0xe000f
    4258:	43d8                	lw	a4,4(a5)
    425a:	4681                	li	a3,0
    425c:	9b79                	andi	a4,a4,-2
    425e:	c3d8                	sw	a4,4(a5)
    4260:	84a1c703          	lbu	a4,-1974(gp) # 200000ca <p_us>
    4264:	02a70633          	mul	a2,a4,a0
    4268:	cb90                	sw	a2,16(a5)
    426a:	cbd4                	sw	a3,20(a5)
    426c:	4398                	lw	a4,0(a5)
    426e:	01076713          	ori	a4,a4,16
    4272:	c398                	sw	a4,0(a5)
    4274:	4398                	lw	a4,0(a5)
    4276:	02176713          	ori	a4,a4,33
    427a:	c398                	sw	a4,0(a5)
    427c:	43d8                	lw	a4,4(a5)
    427e:	8b05                	andi	a4,a4,1
    4280:	df75                	beqz	a4,427c <Delay_Us+0x28>
    4282:	4398                	lw	a4,0(a5)
    4284:	9b79                	andi	a4,a4,-2
    4286:	c398                	sw	a4,0(a5)
    4288:	8082                	ret

0000428a <Delay_Ms>:
    428a:	e000f7b7          	lui	a5,0xe000f
    428e:	43d8                	lw	a4,4(a5)
    4290:	4681                	li	a3,0
    4292:	9b79                	andi	a4,a4,-2
    4294:	c3d8                	sw	a4,4(a5)
    4296:	8481d703          	lhu	a4,-1976(gp) # 200000c8 <p_ms>
    429a:	02a70633          	mul	a2,a4,a0
    429e:	cb90                	sw	a2,16(a5)
    42a0:	cbd4                	sw	a3,20(a5)
    42a2:	4398                	lw	a4,0(a5)
    42a4:	01076713          	ori	a4,a4,16
    42a8:	c398                	sw	a4,0(a5)
    42aa:	4398                	lw	a4,0(a5)
    42ac:	02176713          	ori	a4,a4,33
    42b0:	c398                	sw	a4,0(a5)
    42b2:	43d8                	lw	a4,4(a5)
    42b4:	8b05                	andi	a4,a4,1
    42b6:	df75                	beqz	a4,42b2 <Delay_Ms+0x28>
    42b8:	4398                	lw	a4,0(a5)
    42ba:	9b79                	andi	a4,a4,-2
    42bc:	c398                	sw	a4,0(a5)
    42be:	8082                	ret

000042c0 <USART_Printf_Init>:
    42c0:	f31fb2ef          	jal	t0,1f0 <__riscv_save_0>
    42c4:	1101                	addi	sp,sp,-32
    42c6:	842a                	mv	s0,a0
    42c8:	4585                	li	a1,1
    42ca:	00040537          	lui	a0,0x40
    42ce:	cedff0ef          	jal	ra,3fba <RCC_APB1PeriphClockCmd>
    42d2:	4585                	li	a1,1
    42d4:	4521                	li	a0,8
    42d6:	cc7ff0ef          	jal	ra,3f9c <RCC_APB2PeriphClockCmd>
    42da:	40000793          	li	a5,1024
    42de:	827c                	sh	a5,4(sp)
    42e0:	40011537          	lui	a0,0x40011
    42e4:	478d                	li	a5,3
    42e6:	c43e                	sw	a5,8(sp)
    42e8:	004c                	addi	a1,sp,4
    42ea:	47e1                	li	a5,24
    42ec:	c0050513          	addi	a0,a0,-1024 # 40010c00 <_eusrstack+0x20008c00>
    42f0:	c63e                	sw	a5,12(sp)
    42f2:	a3dff0ef          	jal	ra,3d2e <GPIO_Init>
    42f6:	c822                	sw	s0,16(sp)
    42f8:	40005437          	lui	s0,0x40005
    42fc:	000807b7          	lui	a5,0x80
    4300:	080c                	addi	a1,sp,16
    4302:	80040513          	addi	a0,s0,-2048 # 40004800 <_eusrstack+0x1fffc800>
    4306:	cc3e                	sw	a5,24(sp)
    4308:	ca02                	sw	zero,20(sp)
    430a:	00011e23          	sh	zero,28(sp)
    430e:	e69ff0ef          	jal	ra,4176 <USART_Init>
    4312:	4585                	li	a1,1
    4314:	80040513          	addi	a0,s0,-2048
    4318:	35fd                	jal	4206 <USART_Cmd>
    431a:	6105                	addi	sp,sp,32
    431c:	ef9fb06f          	j	214 <__riscv_restore_0>

00004320 <_write>:
    4320:	eb7fb2ef          	jal	t0,1d6 <__riscv_save_4>
    4324:	400054b7          	lui	s1,0x40005
    4328:	89ae                	mv	s3,a1
    432a:	8932                	mv	s2,a2
    432c:	4401                	li	s0,0
    432e:	80048493          	addi	s1,s1,-2048 # 40004800 <_eusrstack+0x1fffc800>
    4332:	01244563          	blt	s0,s2,433c <_write+0x1c>
    4336:	854a                	mv	a0,s2
    4338:	ed3fb06f          	j	20a <__riscv_restore_4>
    433c:	04000593          	li	a1,64
    4340:	8526                	mv	a0,s1
    4342:	35cd                	jal	4224 <USART_GetFlagStatus>
    4344:	dd65                	beqz	a0,433c <_write+0x1c>
    4346:	008987b3          	add	a5,s3,s0
    434a:	00078583          	lb	a1,0(a5) # 80000 <_data_lma+0x788ac>
    434e:	8526                	mv	a0,s1
    4350:	0405                	addi	s0,s0,1
    4352:	05c2                	slli	a1,a1,0x10
    4354:	81c1                	srli	a1,a1,0x10
    4356:	35d9                	jal	421c <USART_SendData>
    4358:	bfe9                	j	4332 <_write+0x12>

0000435a <_sbrk>:
    435a:	81018713          	addi	a4,gp,-2032 # 20000090 <curbrk.5275>
    435e:	431c                	lw	a5,0(a4)
    4360:	200046b7          	lui	a3,0x20004
    4364:	cf468693          	addi	a3,a3,-780 # 20003cf4 <_ebss>
    4368:	953e                	add	a0,a0,a5
    436a:	00d56b63          	bltu	a0,a3,4380 <_sbrk+0x26>
    436e:	200076b7          	lui	a3,0x20007
    4372:	00468693          	addi	a3,a3,4 # 20007004 <_heap_end>
    4376:	00a6e563          	bltu	a3,a0,4380 <_sbrk+0x26>
    437a:	c308                	sw	a0,0(a4)
    437c:	853e                	mv	a0,a5
    437e:	8082                	ret
    4380:	57fd                	li	a5,-1
    4382:	bfed                	j	437c <_sbrk+0x22>

00004384 <memcpy>:
    4384:	00a5c7b3          	xor	a5,a1,a0
    4388:	8b8d                	andi	a5,a5,3
    438a:	00c50733          	add	a4,a0,a2
    438e:	e781                	bnez	a5,4396 <memcpy+0x12>
    4390:	478d                	li	a5,3
    4392:	00c7ed63          	bltu	a5,a2,43ac <memcpy+0x28>
    4396:	87aa                	mv	a5,a0
    4398:	08e57e63          	bgeu	a0,a4,4434 <memcpy+0xb0>
    439c:	2194                	lbu	a3,0(a1)
    439e:	0785                	addi	a5,a5,1
    43a0:	0585                	addi	a1,a1,1
    43a2:	fed78fa3          	sb	a3,-1(a5)
    43a6:	fee7ebe3          	bltu	a5,a4,439c <memcpy+0x18>
    43aa:	8082                	ret
    43ac:	00357693          	andi	a3,a0,3
    43b0:	87aa                	mv	a5,a0
    43b2:	ca89                	beqz	a3,43c4 <memcpy+0x40>
    43b4:	2194                	lbu	a3,0(a1)
    43b6:	0785                	addi	a5,a5,1
    43b8:	0585                	addi	a1,a1,1
    43ba:	fed78fa3          	sb	a3,-1(a5)
    43be:	0037f693          	andi	a3,a5,3
    43c2:	bfc5                	j	43b2 <memcpy+0x2e>
    43c4:	ffc77693          	andi	a3,a4,-4
    43c8:	fe068613          	addi	a2,a3,-32
    43cc:	06c7f063          	bgeu	a5,a2,442c <memcpy+0xa8>
    43d0:	0005a383          	lw	t2,0(a1) # 40021000 <_eusrstack+0x20019000>
    43d4:	0045a283          	lw	t0,4(a1)
    43d8:	0085af83          	lw	t6,8(a1)
    43dc:	00c5af03          	lw	t5,12(a1)
    43e0:	0105ae83          	lw	t4,16(a1)
    43e4:	0145ae03          	lw	t3,20(a1)
    43e8:	0185a303          	lw	t1,24(a1)
    43ec:	01c5a883          	lw	a7,28(a1)
    43f0:	02458593          	addi	a1,a1,36
    43f4:	0077a023          	sw	t2,0(a5)
    43f8:	ffc5a803          	lw	a6,-4(a1)
    43fc:	0057a223          	sw	t0,4(a5)
    4400:	01f7a423          	sw	t6,8(a5)
    4404:	01e7a623          	sw	t5,12(a5)
    4408:	01d7a823          	sw	t4,16(a5)
    440c:	01c7aa23          	sw	t3,20(a5)
    4410:	0067ac23          	sw	t1,24(a5)
    4414:	0117ae23          	sw	a7,28(a5)
    4418:	02478793          	addi	a5,a5,36
    441c:	ff07ae23          	sw	a6,-4(a5)
    4420:	b775                	j	43cc <memcpy+0x48>
    4422:	4190                	lw	a2,0(a1)
    4424:	0791                	addi	a5,a5,4
    4426:	0591                	addi	a1,a1,4
    4428:	fec7ae23          	sw	a2,-4(a5)
    442c:	fed7ebe3          	bltu	a5,a3,4422 <memcpy+0x9e>
    4430:	f6e7e6e3          	bltu	a5,a4,439c <memcpy+0x18>
    4434:	8082                	ret

00004436 <memmove>:
    4436:	04a5f163          	bgeu	a1,a0,4478 <memmove+0x42>
    443a:	00c586b3          	add	a3,a1,a2
    443e:	02d57d63          	bgeu	a0,a3,4478 <memmove+0x42>
    4442:	fff64593          	not	a1,a2
    4446:	4781                	li	a5,0
    4448:	17fd                	addi	a5,a5,-1
    444a:	00f59363          	bne	a1,a5,4450 <memmove+0x1a>
    444e:	8082                	ret
    4450:	00f68733          	add	a4,a3,a5
    4454:	00074803          	lbu	a6,0(a4)
    4458:	00c78733          	add	a4,a5,a2
    445c:	972a                	add	a4,a4,a0
    445e:	01070023          	sb	a6,0(a4)
    4462:	b7dd                	j	4448 <memmove+0x12>
    4464:	00f58733          	add	a4,a1,a5
    4468:	2314                	lbu	a3,0(a4)
    446a:	00f50733          	add	a4,a0,a5
    446e:	0785                	addi	a5,a5,1
    4470:	a314                	sb	a3,0(a4)
    4472:	fef619e3          	bne	a2,a5,4464 <memmove+0x2e>
    4476:	8082                	ret
    4478:	4781                	li	a5,0
    447a:	bfe5                	j	4472 <memmove+0x3c>

0000447c <iprintf>:
    447c:	7139                	addi	sp,sp,-64
    447e:	da3e                	sw	a5,52(sp)
    4480:	d22e                	sw	a1,36(sp)
    4482:	d432                	sw	a2,40(sp)
    4484:	d636                	sw	a3,44(sp)
    4486:	d83a                	sw	a4,48(sp)
    4488:	dc42                	sw	a6,56(sp)
    448a:	de46                	sw	a7,60(sp)
    448c:	81418793          	addi	a5,gp,-2028 # 20000094 <_impure_ptr>
    4490:	cc22                	sw	s0,24(sp)
    4492:	4380                	lw	s0,0(a5)
    4494:	ca26                	sw	s1,20(sp)
    4496:	ce06                	sw	ra,28(sp)
    4498:	84aa                	mv	s1,a0
    449a:	c409                	beqz	s0,44a4 <iprintf+0x28>
    449c:	4c1c                	lw	a5,24(s0)
    449e:	e399                	bnez	a5,44a4 <iprintf+0x28>
    44a0:	8522                	mv	a0,s0
    44a2:	233d                	jal	49d0 <__sinit>
    44a4:	440c                	lw	a1,8(s0)
    44a6:	1054                	addi	a3,sp,36
    44a8:	8626                	mv	a2,s1
    44aa:	8522                	mv	a0,s0
    44ac:	c636                	sw	a3,12(sp)
    44ae:	167000ef          	jal	ra,4e14 <_vfiprintf_r>
    44b2:	40f2                	lw	ra,28(sp)
    44b4:	4462                	lw	s0,24(sp)
    44b6:	44d2                	lw	s1,20(sp)
    44b8:	6121                	addi	sp,sp,64
    44ba:	8082                	ret

000044bc <_puts_r>:
    44bc:	1101                	addi	sp,sp,-32
    44be:	ca26                	sw	s1,20(sp)
    44c0:	c84a                	sw	s2,16(sp)
    44c2:	ce06                	sw	ra,28(sp)
    44c4:	cc22                	sw	s0,24(sp)
    44c6:	c64e                	sw	s3,12(sp)
    44c8:	c452                	sw	s4,8(sp)
    44ca:	84aa                	mv	s1,a0
    44cc:	892e                	mv	s2,a1
    44ce:	c501                	beqz	a0,44d6 <_puts_r+0x1a>
    44d0:	4d1c                	lw	a5,24(a0)
    44d2:	e391                	bnez	a5,44d6 <_puts_r+0x1a>
    44d4:	29f5                	jal	49d0 <__sinit>
    44d6:	4c9c                	lw	a5,24(s1)
    44d8:	4480                	lw	s0,8(s1)
    44da:	e399                	bnez	a5,44e0 <_puts_r+0x24>
    44dc:	8526                	mv	a0,s1
    44de:	29cd                	jal	49d0 <__sinit>
    44e0:	00003797          	auipc	a5,0x3
    44e4:	1f878793          	addi	a5,a5,504 # 76d8 <__sf_fake_stdin>
    44e8:	02f41b63          	bne	s0,a5,451e <_puts_r+0x62>
    44ec:	40c0                	lw	s0,4(s1)
    44ee:	245e                	lhu	a5,12(s0)
    44f0:	8ba1                	andi	a5,a5,8
    44f2:	c7b1                	beqz	a5,453e <_puts_r+0x82>
    44f4:	481c                	lw	a5,16(s0)
    44f6:	c7a1                	beqz	a5,453e <_puts_r+0x82>
    44f8:	59fd                	li	s3,-1
    44fa:	4a29                	li	s4,10
    44fc:	441c                	lw	a5,8(s0)
    44fe:	00094583          	lbu	a1,0(s2)
    4502:	17fd                	addi	a5,a5,-1
    4504:	e9b1                	bnez	a1,4558 <_puts_r+0x9c>
    4506:	c41c                	sw	a5,8(s0)
    4508:	0607dd63          	bgez	a5,4582 <_puts_r+0xc6>
    450c:	8622                	mv	a2,s0
    450e:	45a9                	li	a1,10
    4510:	8526                	mv	a0,s1
    4512:	286d                	jal	45cc <__swbuf_r>
    4514:	57fd                	li	a5,-1
    4516:	02f50863          	beq	a0,a5,4546 <_puts_r+0x8a>
    451a:	4529                	li	a0,10
    451c:	a035                	j	4548 <_puts_r+0x8c>
    451e:	00003797          	auipc	a5,0x3
    4522:	1da78793          	addi	a5,a5,474 # 76f8 <__sf_fake_stdout>
    4526:	00f41463          	bne	s0,a5,452e <_puts_r+0x72>
    452a:	4480                	lw	s0,8(s1)
    452c:	b7c9                	j	44ee <_puts_r+0x32>
    452e:	00003797          	auipc	a5,0x3
    4532:	18a78793          	addi	a5,a5,394 # 76b8 <__sf_fake_stderr>
    4536:	faf41ce3          	bne	s0,a5,44ee <_puts_r+0x32>
    453a:	44c0                	lw	s0,12(s1)
    453c:	bf4d                	j	44ee <_puts_r+0x32>
    453e:	85a2                	mv	a1,s0
    4540:	8526                	mv	a0,s1
    4542:	2299                	jal	4688 <__swsetup_r>
    4544:	d955                	beqz	a0,44f8 <_puts_r+0x3c>
    4546:	557d                	li	a0,-1
    4548:	40f2                	lw	ra,28(sp)
    454a:	4462                	lw	s0,24(sp)
    454c:	44d2                	lw	s1,20(sp)
    454e:	4942                	lw	s2,16(sp)
    4550:	49b2                	lw	s3,12(sp)
    4552:	4a22                	lw	s4,8(sp)
    4554:	6105                	addi	sp,sp,32
    4556:	8082                	ret
    4558:	c41c                	sw	a5,8(s0)
    455a:	0905                	addi	s2,s2,1
    455c:	0007d763          	bgez	a5,456a <_puts_r+0xae>
    4560:	4c18                	lw	a4,24(s0)
    4562:	00e7ca63          	blt	a5,a4,4576 <_puts_r+0xba>
    4566:	01458863          	beq	a1,s4,4576 <_puts_r+0xba>
    456a:	401c                	lw	a5,0(s0)
    456c:	00178713          	addi	a4,a5,1
    4570:	c018                	sw	a4,0(s0)
    4572:	a38c                	sb	a1,0(a5)
    4574:	b761                	j	44fc <_puts_r+0x40>
    4576:	8622                	mv	a2,s0
    4578:	8526                	mv	a0,s1
    457a:	2889                	jal	45cc <__swbuf_r>
    457c:	f93510e3          	bne	a0,s3,44fc <_puts_r+0x40>
    4580:	b7d9                	j	4546 <_puts_r+0x8a>
    4582:	401c                	lw	a5,0(s0)
    4584:	00178713          	addi	a4,a5,1
    4588:	c018                	sw	a4,0(s0)
    458a:	4729                	li	a4,10
    458c:	a398                	sb	a4,0(a5)
    458e:	b771                	j	451a <_puts_r+0x5e>

00004590 <puts>:
    4590:	81418793          	addi	a5,gp,-2028 # 20000094 <_impure_ptr>
    4594:	85aa                	mv	a1,a0
    4596:	4388                	lw	a0,0(a5)
    4598:	b715                	j	44bc <_puts_r>

0000459a <strrchr>:
    459a:	e18d                	bnez	a1,45bc <strrchr+0x22>
    459c:	78b0006f          	j	5526 <strchr>
    45a0:	00150793          	addi	a5,a0,1
    45a4:	842a                	mv	s0,a0
    45a6:	85a6                	mv	a1,s1
    45a8:	853e                	mv	a0,a5
    45aa:	77d000ef          	jal	ra,5526 <strchr>
    45ae:	f96d                	bnez	a0,45a0 <strrchr+0x6>
    45b0:	8522                	mv	a0,s0
    45b2:	40b2                	lw	ra,12(sp)
    45b4:	4422                	lw	s0,8(sp)
    45b6:	4492                	lw	s1,4(sp)
    45b8:	0141                	addi	sp,sp,16
    45ba:	8082                	ret
    45bc:	1141                	addi	sp,sp,-16
    45be:	c422                	sw	s0,8(sp)
    45c0:	c226                	sw	s1,4(sp)
    45c2:	c606                	sw	ra,12(sp)
    45c4:	87aa                	mv	a5,a0
    45c6:	84ae                	mv	s1,a1
    45c8:	4401                	li	s0,0
    45ca:	bff1                	j	45a6 <strrchr+0xc>

000045cc <__swbuf_r>:
    45cc:	1101                	addi	sp,sp,-32
    45ce:	cc22                	sw	s0,24(sp)
    45d0:	ca26                	sw	s1,20(sp)
    45d2:	c84a                	sw	s2,16(sp)
    45d4:	ce06                	sw	ra,28(sp)
    45d6:	c64e                	sw	s3,12(sp)
    45d8:	84aa                	mv	s1,a0
    45da:	892e                	mv	s2,a1
    45dc:	8432                	mv	s0,a2
    45de:	c501                	beqz	a0,45e6 <__swbuf_r+0x1a>
    45e0:	4d1c                	lw	a5,24(a0)
    45e2:	e391                	bnez	a5,45e6 <__swbuf_r+0x1a>
    45e4:	26f5                	jal	49d0 <__sinit>
    45e6:	00003797          	auipc	a5,0x3
    45ea:	0f278793          	addi	a5,a5,242 # 76d8 <__sf_fake_stdin>
    45ee:	06f41763          	bne	s0,a5,465c <__swbuf_r+0x90>
    45f2:	40c0                	lw	s0,4(s1)
    45f4:	4c1c                	lw	a5,24(s0)
    45f6:	c41c                	sw	a5,8(s0)
    45f8:	245e                	lhu	a5,12(s0)
    45fa:	8ba1                	andi	a5,a5,8
    45fc:	c3c1                	beqz	a5,467c <__swbuf_r+0xb0>
    45fe:	481c                	lw	a5,16(s0)
    4600:	cfb5                	beqz	a5,467c <__swbuf_r+0xb0>
    4602:	481c                	lw	a5,16(s0)
    4604:	4008                	lw	a0,0(s0)
    4606:	0ff97993          	andi	s3,s2,255
    460a:	0ff97913          	andi	s2,s2,255
    460e:	8d1d                	sub	a0,a0,a5
    4610:	485c                	lw	a5,20(s0)
    4612:	00f54663          	blt	a0,a5,461e <__swbuf_r+0x52>
    4616:	85a2                	mv	a1,s0
    4618:	8526                	mv	a0,s1
    461a:	2c69                	jal	48b4 <_fflush_r>
    461c:	e525                	bnez	a0,4684 <__swbuf_r+0xb8>
    461e:	441c                	lw	a5,8(s0)
    4620:	0505                	addi	a0,a0,1
    4622:	17fd                	addi	a5,a5,-1
    4624:	c41c                	sw	a5,8(s0)
    4626:	401c                	lw	a5,0(s0)
    4628:	00178713          	addi	a4,a5,1
    462c:	c018                	sw	a4,0(s0)
    462e:	01378023          	sb	s3,0(a5)
    4632:	485c                	lw	a5,20(s0)
    4634:	00a78863          	beq	a5,a0,4644 <__swbuf_r+0x78>
    4638:	245e                	lhu	a5,12(s0)
    463a:	8b85                	andi	a5,a5,1
    463c:	cb81                	beqz	a5,464c <__swbuf_r+0x80>
    463e:	47a9                	li	a5,10
    4640:	00f91663          	bne	s2,a5,464c <__swbuf_r+0x80>
    4644:	85a2                	mv	a1,s0
    4646:	8526                	mv	a0,s1
    4648:	24b5                	jal	48b4 <_fflush_r>
    464a:	ed0d                	bnez	a0,4684 <__swbuf_r+0xb8>
    464c:	40f2                	lw	ra,28(sp)
    464e:	4462                	lw	s0,24(sp)
    4650:	854a                	mv	a0,s2
    4652:	44d2                	lw	s1,20(sp)
    4654:	4942                	lw	s2,16(sp)
    4656:	49b2                	lw	s3,12(sp)
    4658:	6105                	addi	sp,sp,32
    465a:	8082                	ret
    465c:	00003797          	auipc	a5,0x3
    4660:	09c78793          	addi	a5,a5,156 # 76f8 <__sf_fake_stdout>
    4664:	00f41463          	bne	s0,a5,466c <__swbuf_r+0xa0>
    4668:	4480                	lw	s0,8(s1)
    466a:	b769                	j	45f4 <__swbuf_r+0x28>
    466c:	00003797          	auipc	a5,0x3
    4670:	04c78793          	addi	a5,a5,76 # 76b8 <__sf_fake_stderr>
    4674:	f8f410e3          	bne	s0,a5,45f4 <__swbuf_r+0x28>
    4678:	44c0                	lw	s0,12(s1)
    467a:	bfad                	j	45f4 <__swbuf_r+0x28>
    467c:	85a2                	mv	a1,s0
    467e:	8526                	mv	a0,s1
    4680:	2021                	jal	4688 <__swsetup_r>
    4682:	d141                	beqz	a0,4602 <__swbuf_r+0x36>
    4684:	597d                	li	s2,-1
    4686:	b7d9                	j	464c <__swbuf_r+0x80>

00004688 <__swsetup_r>:
    4688:	1141                	addi	sp,sp,-16
    468a:	81418793          	addi	a5,gp,-2028 # 20000094 <_impure_ptr>
    468e:	c226                	sw	s1,4(sp)
    4690:	4384                	lw	s1,0(a5)
    4692:	c422                	sw	s0,8(sp)
    4694:	c04a                	sw	s2,0(sp)
    4696:	c606                	sw	ra,12(sp)
    4698:	892a                	mv	s2,a0
    469a:	842e                	mv	s0,a1
    469c:	c489                	beqz	s1,46a6 <__swsetup_r+0x1e>
    469e:	4c9c                	lw	a5,24(s1)
    46a0:	e399                	bnez	a5,46a6 <__swsetup_r+0x1e>
    46a2:	8526                	mv	a0,s1
    46a4:	2635                	jal	49d0 <__sinit>
    46a6:	00003797          	auipc	a5,0x3
    46aa:	03278793          	addi	a5,a5,50 # 76d8 <__sf_fake_stdin>
    46ae:	02f41b63          	bne	s0,a5,46e4 <__swsetup_r+0x5c>
    46b2:	40c0                	lw	s0,4(s1)
    46b4:	00c41703          	lh	a4,12(s0)
    46b8:	01071793          	slli	a5,a4,0x10
    46bc:	83c1                	srli	a5,a5,0x10
    46be:	0087f693          	andi	a3,a5,8
    46c2:	eaad                	bnez	a3,4734 <__swsetup_r+0xac>
    46c4:	0107f693          	andi	a3,a5,16
    46c8:	ee95                	bnez	a3,4704 <__swsetup_r+0x7c>
    46ca:	47a5                	li	a5,9
    46cc:	00f92023          	sw	a5,0(s2)
    46d0:	04076713          	ori	a4,a4,64
    46d4:	a45a                	sh	a4,12(s0)
    46d6:	557d                	li	a0,-1
    46d8:	40b2                	lw	ra,12(sp)
    46da:	4422                	lw	s0,8(sp)
    46dc:	4492                	lw	s1,4(sp)
    46de:	4902                	lw	s2,0(sp)
    46e0:	0141                	addi	sp,sp,16
    46e2:	8082                	ret
    46e4:	00003797          	auipc	a5,0x3
    46e8:	01478793          	addi	a5,a5,20 # 76f8 <__sf_fake_stdout>
    46ec:	00f41463          	bne	s0,a5,46f4 <__swsetup_r+0x6c>
    46f0:	4480                	lw	s0,8(s1)
    46f2:	b7c9                	j	46b4 <__swsetup_r+0x2c>
    46f4:	00003797          	auipc	a5,0x3
    46f8:	fc478793          	addi	a5,a5,-60 # 76b8 <__sf_fake_stderr>
    46fc:	faf41ce3          	bne	s0,a5,46b4 <__swsetup_r+0x2c>
    4700:	44c0                	lw	s0,12(s1)
    4702:	bf4d                	j	46b4 <__swsetup_r+0x2c>
    4704:	8b91                	andi	a5,a5,4
    4706:	c39d                	beqz	a5,472c <__swsetup_r+0xa4>
    4708:	584c                	lw	a1,52(s0)
    470a:	c989                	beqz	a1,471c <__swsetup_r+0x94>
    470c:	04440793          	addi	a5,s0,68
    4710:	00f58463          	beq	a1,a5,4718 <__swsetup_r+0x90>
    4714:	854a                	mv	a0,s2
    4716:	2b21                	jal	4c2e <_free_r>
    4718:	02042a23          	sw	zero,52(s0)
    471c:	245e                	lhu	a5,12(s0)
    471e:	00042223          	sw	zero,4(s0)
    4722:	fdb7f793          	andi	a5,a5,-37
    4726:	a45e                	sh	a5,12(s0)
    4728:	481c                	lw	a5,16(s0)
    472a:	c01c                	sw	a5,0(s0)
    472c:	245e                	lhu	a5,12(s0)
    472e:	0087e793          	ori	a5,a5,8
    4732:	a45e                	sh	a5,12(s0)
    4734:	481c                	lw	a5,16(s0)
    4736:	eb99                	bnez	a5,474c <__swsetup_r+0xc4>
    4738:	245e                	lhu	a5,12(s0)
    473a:	20000713          	li	a4,512
    473e:	2807f793          	andi	a5,a5,640
    4742:	00e78563          	beq	a5,a4,474c <__swsetup_r+0xc4>
    4746:	85a2                	mv	a1,s0
    4748:	854a                	mv	a0,s2
    474a:	2989                	jal	4b9c <__smakebuf_r>
    474c:	245e                	lhu	a5,12(s0)
    474e:	0017f713          	andi	a4,a5,1
    4752:	c31d                	beqz	a4,4778 <__swsetup_r+0xf0>
    4754:	485c                	lw	a5,20(s0)
    4756:	00042423          	sw	zero,8(s0)
    475a:	40f007b3          	neg	a5,a5
    475e:	cc1c                	sw	a5,24(s0)
    4760:	481c                	lw	a5,16(s0)
    4762:	4501                	li	a0,0
    4764:	fbb5                	bnez	a5,46d8 <__swsetup_r+0x50>
    4766:	00c41783          	lh	a5,12(s0)
    476a:	0807f713          	andi	a4,a5,128
    476e:	d72d                	beqz	a4,46d8 <__swsetup_r+0x50>
    4770:	0407e793          	ori	a5,a5,64
    4774:	a45e                	sh	a5,12(s0)
    4776:	b785                	j	46d6 <__swsetup_r+0x4e>
    4778:	8b89                	andi	a5,a5,2
    477a:	4701                	li	a4,0
    477c:	e391                	bnez	a5,4780 <__swsetup_r+0xf8>
    477e:	4858                	lw	a4,20(s0)
    4780:	c418                	sw	a4,8(s0)
    4782:	bff9                	j	4760 <__swsetup_r+0xd8>

00004784 <__sflush_r>:
    4784:	25de                	lhu	a5,12(a1)
    4786:	1101                	addi	sp,sp,-32
    4788:	cc22                	sw	s0,24(sp)
    478a:	ca26                	sw	s1,20(sp)
    478c:	ce06                	sw	ra,28(sp)
    478e:	c84a                	sw	s2,16(sp)
    4790:	c64e                	sw	s3,12(sp)
    4792:	0087f713          	andi	a4,a5,8
    4796:	84aa                	mv	s1,a0
    4798:	842e                	mv	s0,a1
    479a:	eb79                	bnez	a4,4870 <__sflush_r+0xec>
    479c:	41d8                	lw	a4,4(a1)
    479e:	00e04d63          	bgtz	a4,47b8 <__sflush_r+0x34>
    47a2:	41b8                	lw	a4,64(a1)
    47a4:	00e04a63          	bgtz	a4,47b8 <__sflush_r+0x34>
    47a8:	4501                	li	a0,0
    47aa:	40f2                	lw	ra,28(sp)
    47ac:	4462                	lw	s0,24(sp)
    47ae:	44d2                	lw	s1,20(sp)
    47b0:	4942                	lw	s2,16(sp)
    47b2:	49b2                	lw	s3,12(sp)
    47b4:	6105                	addi	sp,sp,32
    47b6:	8082                	ret
    47b8:	5458                	lw	a4,44(s0)
    47ba:	d77d                	beqz	a4,47a8 <__sflush_r+0x24>
    47bc:	0004a903          	lw	s2,0(s1)
    47c0:	01379693          	slli	a3,a5,0x13
    47c4:	0004a023          	sw	zero,0(s1)
    47c8:	0606db63          	bgez	a3,483e <__sflush_r+0xba>
    47cc:	4870                	lw	a2,84(s0)
    47ce:	245e                	lhu	a5,12(s0)
    47d0:	8b91                	andi	a5,a5,4
    47d2:	c799                	beqz	a5,47e0 <__sflush_r+0x5c>
    47d4:	405c                	lw	a5,4(s0)
    47d6:	8e1d                	sub	a2,a2,a5
    47d8:	585c                	lw	a5,52(s0)
    47da:	c399                	beqz	a5,47e0 <__sflush_r+0x5c>
    47dc:	403c                	lw	a5,64(s0)
    47de:	8e1d                	sub	a2,a2,a5
    47e0:	545c                	lw	a5,44(s0)
    47e2:	500c                	lw	a1,32(s0)
    47e4:	4681                	li	a3,0
    47e6:	8526                	mv	a0,s1
    47e8:	9782                	jalr	a5
    47ea:	57fd                	li	a5,-1
    47ec:	245a                	lhu	a4,12(s0)
    47ee:	00f51d63          	bne	a0,a5,4808 <__sflush_r+0x84>
    47f2:	4094                	lw	a3,0(s1)
    47f4:	47f5                	li	a5,29
    47f6:	06d7e863          	bltu	a5,a3,4866 <__sflush_r+0xe2>
    47fa:	204007b7          	lui	a5,0x20400
    47fe:	0785                	addi	a5,a5,1
    4800:	00d7d7b3          	srl	a5,a5,a3
    4804:	8b85                	andi	a5,a5,1
    4806:	c3a5                	beqz	a5,4866 <__sflush_r+0xe2>
    4808:	481c                	lw	a5,16(s0)
    480a:	00042223          	sw	zero,4(s0)
    480e:	c01c                	sw	a5,0(s0)
    4810:	01371793          	slli	a5,a4,0x13
    4814:	0007d863          	bgez	a5,4824 <__sflush_r+0xa0>
    4818:	57fd                	li	a5,-1
    481a:	00f51463          	bne	a0,a5,4822 <__sflush_r+0x9e>
    481e:	409c                	lw	a5,0(s1)
    4820:	e391                	bnez	a5,4824 <__sflush_r+0xa0>
    4822:	c868                	sw	a0,84(s0)
    4824:	584c                	lw	a1,52(s0)
    4826:	0124a023          	sw	s2,0(s1)
    482a:	ddbd                	beqz	a1,47a8 <__sflush_r+0x24>
    482c:	04440793          	addi	a5,s0,68
    4830:	00f58463          	beq	a1,a5,4838 <__sflush_r+0xb4>
    4834:	8526                	mv	a0,s1
    4836:	2ee5                	jal	4c2e <_free_r>
    4838:	02042a23          	sw	zero,52(s0)
    483c:	b7b5                	j	47a8 <__sflush_r+0x24>
    483e:	500c                	lw	a1,32(s0)
    4840:	4601                	li	a2,0
    4842:	4685                	li	a3,1
    4844:	8526                	mv	a0,s1
    4846:	9702                	jalr	a4
    4848:	57fd                	li	a5,-1
    484a:	862a                	mv	a2,a0
    484c:	f8f511e3          	bne	a0,a5,47ce <__sflush_r+0x4a>
    4850:	409c                	lw	a5,0(s1)
    4852:	dfb5                	beqz	a5,47ce <__sflush_r+0x4a>
    4854:	4775                	li	a4,29
    4856:	00e78563          	beq	a5,a4,4860 <__sflush_r+0xdc>
    485a:	4759                	li	a4,22
    485c:	04e79363          	bne	a5,a4,48a2 <__sflush_r+0x11e>
    4860:	0124a023          	sw	s2,0(s1)
    4864:	b791                	j	47a8 <__sflush_r+0x24>
    4866:	04076713          	ori	a4,a4,64
    486a:	a45a                	sh	a4,12(s0)
    486c:	557d                	li	a0,-1
    486e:	bf35                	j	47aa <__sflush_r+0x26>
    4870:	0105a983          	lw	s3,16(a1)
    4874:	f2098ae3          	beqz	s3,47a8 <__sflush_r+0x24>
    4878:	0005a903          	lw	s2,0(a1)
    487c:	8b8d                	andi	a5,a5,3
    487e:	0135a023          	sw	s3,0(a1)
    4882:	41390933          	sub	s2,s2,s3
    4886:	4701                	li	a4,0
    4888:	e391                	bnez	a5,488c <__sflush_r+0x108>
    488a:	49d8                	lw	a4,20(a1)
    488c:	c418                	sw	a4,8(s0)
    488e:	f1205de3          	blez	s2,47a8 <__sflush_r+0x24>
    4892:	541c                	lw	a5,40(s0)
    4894:	500c                	lw	a1,32(s0)
    4896:	86ca                	mv	a3,s2
    4898:	864e                	mv	a2,s3
    489a:	8526                	mv	a0,s1
    489c:	9782                	jalr	a5
    489e:	00a04763          	bgtz	a0,48ac <__sflush_r+0x128>
    48a2:	245e                	lhu	a5,12(s0)
    48a4:	0407e793          	ori	a5,a5,64
    48a8:	a45e                	sh	a5,12(s0)
    48aa:	b7c9                	j	486c <__sflush_r+0xe8>
    48ac:	99aa                	add	s3,s3,a0
    48ae:	40a90933          	sub	s2,s2,a0
    48b2:	bff1                	j	488e <__sflush_r+0x10a>

000048b4 <_fflush_r>:
    48b4:	499c                	lw	a5,16(a1)
    48b6:	c3a5                	beqz	a5,4916 <_fflush_r+0x62>
    48b8:	1101                	addi	sp,sp,-32
    48ba:	cc22                	sw	s0,24(sp)
    48bc:	ce06                	sw	ra,28(sp)
    48be:	842a                	mv	s0,a0
    48c0:	c511                	beqz	a0,48cc <_fflush_r+0x18>
    48c2:	4d1c                	lw	a5,24(a0)
    48c4:	e781                	bnez	a5,48cc <_fflush_r+0x18>
    48c6:	c62e                	sw	a1,12(sp)
    48c8:	2221                	jal	49d0 <__sinit>
    48ca:	45b2                	lw	a1,12(sp)
    48cc:	00003797          	auipc	a5,0x3
    48d0:	e0c78793          	addi	a5,a5,-500 # 76d8 <__sf_fake_stdin>
    48d4:	00f59c63          	bne	a1,a5,48ec <_fflush_r+0x38>
    48d8:	404c                	lw	a1,4(s0)
    48da:	00c59783          	lh	a5,12(a1)
    48de:	c79d                	beqz	a5,490c <_fflush_r+0x58>
    48e0:	8522                	mv	a0,s0
    48e2:	4462                	lw	s0,24(sp)
    48e4:	40f2                	lw	ra,28(sp)
    48e6:	6105                	addi	sp,sp,32
    48e8:	e9dff06f          	j	4784 <__sflush_r>
    48ec:	00003797          	auipc	a5,0x3
    48f0:	e0c78793          	addi	a5,a5,-500 # 76f8 <__sf_fake_stdout>
    48f4:	00f59463          	bne	a1,a5,48fc <_fflush_r+0x48>
    48f8:	440c                	lw	a1,8(s0)
    48fa:	b7c5                	j	48da <_fflush_r+0x26>
    48fc:	00003797          	auipc	a5,0x3
    4900:	dbc78793          	addi	a5,a5,-580 # 76b8 <__sf_fake_stderr>
    4904:	fcf59be3          	bne	a1,a5,48da <_fflush_r+0x26>
    4908:	444c                	lw	a1,12(s0)
    490a:	bfc1                	j	48da <_fflush_r+0x26>
    490c:	40f2                	lw	ra,28(sp)
    490e:	4462                	lw	s0,24(sp)
    4910:	4501                	li	a0,0
    4912:	6105                	addi	sp,sp,32
    4914:	8082                	ret
    4916:	4501                	li	a0,0
    4918:	8082                	ret

0000491a <std>:
    491a:	1141                	addi	sp,sp,-16
    491c:	c422                	sw	s0,8(sp)
    491e:	c606                	sw	ra,12(sp)
    4920:	842a                	mv	s0,a0
    4922:	a54e                	sh	a1,12(a0)
    4924:	a572                	sh	a2,14(a0)
    4926:	00052023          	sw	zero,0(a0)
    492a:	00052223          	sw	zero,4(a0)
    492e:	00052423          	sw	zero,8(a0)
    4932:	06052223          	sw	zero,100(a0)
    4936:	00052823          	sw	zero,16(a0)
    493a:	00052a23          	sw	zero,20(a0)
    493e:	00052c23          	sw	zero,24(a0)
    4942:	4621                	li	a2,8
    4944:	4581                	li	a1,0
    4946:	05c50513          	addi	a0,a0,92
    494a:	8d7fb0ef          	jal	ra,220 <memset>
    494e:	00001797          	auipc	a5,0x1
    4952:	b2e78793          	addi	a5,a5,-1234 # 547c <__sread>
    4956:	d05c                	sw	a5,36(s0)
    4958:	00001797          	auipc	a5,0x1
    495c:	b5078793          	addi	a5,a5,-1200 # 54a8 <__swrite>
    4960:	d41c                	sw	a5,40(s0)
    4962:	00001797          	auipc	a5,0x1
    4966:	b8e78793          	addi	a5,a5,-1138 # 54f0 <__sseek>
    496a:	d45c                	sw	a5,44(s0)
    496c:	00001797          	auipc	a5,0x1
    4970:	bb478793          	addi	a5,a5,-1100 # 5520 <__sclose>
    4974:	d000                	sw	s0,32(s0)
    4976:	d81c                	sw	a5,48(s0)
    4978:	40b2                	lw	ra,12(sp)
    497a:	4422                	lw	s0,8(sp)
    497c:	0141                	addi	sp,sp,16
    497e:	8082                	ret

00004980 <_cleanup_r>:
    4980:	00000597          	auipc	a1,0x0
    4984:	f3458593          	addi	a1,a1,-204 # 48b4 <_fflush_r>
    4988:	aa89                	j	4ada <_fwalk_reent>

0000498a <__sfmoreglue>:
    498a:	1141                	addi	sp,sp,-16
    498c:	c226                	sw	s1,4(sp)
    498e:	06800613          	li	a2,104
    4992:	fff58493          	addi	s1,a1,-1
    4996:	02c484b3          	mul	s1,s1,a2
    499a:	c04a                	sw	s2,0(sp)
    499c:	892e                	mv	s2,a1
    499e:	c422                	sw	s0,8(sp)
    49a0:	c606                	sw	ra,12(sp)
    49a2:	07448593          	addi	a1,s1,116
    49a6:	2e05                	jal	4cd6 <_malloc_r>
    49a8:	842a                	mv	s0,a0
    49aa:	cd01                	beqz	a0,49c2 <__sfmoreglue+0x38>
    49ac:	00052023          	sw	zero,0(a0)
    49b0:	01252223          	sw	s2,4(a0)
    49b4:	0531                	addi	a0,a0,12
    49b6:	c408                	sw	a0,8(s0)
    49b8:	06848613          	addi	a2,s1,104
    49bc:	4581                	li	a1,0
    49be:	863fb0ef          	jal	ra,220 <memset>
    49c2:	8522                	mv	a0,s0
    49c4:	40b2                	lw	ra,12(sp)
    49c6:	4422                	lw	s0,8(sp)
    49c8:	4492                	lw	s1,4(sp)
    49ca:	4902                	lw	s2,0(sp)
    49cc:	0141                	addi	sp,sp,16
    49ce:	8082                	ret

000049d0 <__sinit>:
    49d0:	4d1c                	lw	a5,24(a0)
    49d2:	e7a5                	bnez	a5,4a3a <__sinit+0x6a>
    49d4:	1141                	addi	sp,sp,-16
    49d6:	c606                	sw	ra,12(sp)
    49d8:	c422                	sw	s0,8(sp)
    49da:	00000797          	auipc	a5,0x0
    49de:	fa678793          	addi	a5,a5,-90 # 4980 <_cleanup_r>
    49e2:	d51c                	sw	a5,40(a0)
    49e4:	81c18793          	addi	a5,gp,-2020 # 2000009c <_global_impure_ptr>
    49e8:	439c                	lw	a5,0(a5)
    49ea:	04052423          	sw	zero,72(a0)
    49ee:	04052623          	sw	zero,76(a0)
    49f2:	04052823          	sw	zero,80(a0)
    49f6:	00f51463          	bne	a0,a5,49fe <__sinit+0x2e>
    49fa:	4785                	li	a5,1
    49fc:	cd1c                	sw	a5,24(a0)
    49fe:	842a                	mv	s0,a0
    4a00:	2835                	jal	4a3c <__sfp>
    4a02:	c048                	sw	a0,4(s0)
    4a04:	8522                	mv	a0,s0
    4a06:	281d                	jal	4a3c <__sfp>
    4a08:	c408                	sw	a0,8(s0)
    4a0a:	8522                	mv	a0,s0
    4a0c:	2805                	jal	4a3c <__sfp>
    4a0e:	c448                	sw	a0,12(s0)
    4a10:	4048                	lw	a0,4(s0)
    4a12:	4601                	li	a2,0
    4a14:	4591                	li	a1,4
    4a16:	f05ff0ef          	jal	ra,491a <std>
    4a1a:	4408                	lw	a0,8(s0)
    4a1c:	4605                	li	a2,1
    4a1e:	45a5                	li	a1,9
    4a20:	efbff0ef          	jal	ra,491a <std>
    4a24:	4448                	lw	a0,12(s0)
    4a26:	4609                	li	a2,2
    4a28:	45c9                	li	a1,18
    4a2a:	ef1ff0ef          	jal	ra,491a <std>
    4a2e:	4785                	li	a5,1
    4a30:	cc1c                	sw	a5,24(s0)
    4a32:	40b2                	lw	ra,12(sp)
    4a34:	4422                	lw	s0,8(sp)
    4a36:	0141                	addi	sp,sp,16
    4a38:	8082                	ret
    4a3a:	8082                	ret

00004a3c <__sfp>:
    4a3c:	1141                	addi	sp,sp,-16
    4a3e:	81c18793          	addi	a5,gp,-2020 # 2000009c <_global_impure_ptr>
    4a42:	c226                	sw	s1,4(sp)
    4a44:	4384                	lw	s1,0(a5)
    4a46:	c04a                	sw	s2,0(sp)
    4a48:	c606                	sw	ra,12(sp)
    4a4a:	4c9c                	lw	a5,24(s1)
    4a4c:	c422                	sw	s0,8(sp)
    4a4e:	892a                	mv	s2,a0
    4a50:	e399                	bnez	a5,4a56 <__sfp+0x1a>
    4a52:	8526                	mv	a0,s1
    4a54:	3fb5                	jal	49d0 <__sinit>
    4a56:	04848493          	addi	s1,s1,72
    4a5a:	4480                	lw	s0,8(s1)
    4a5c:	40dc                	lw	a5,4(s1)
    4a5e:	17fd                	addi	a5,a5,-1
    4a60:	0007d663          	bgez	a5,4a6c <__sfp+0x30>
    4a64:	409c                	lw	a5,0(s1)
    4a66:	cfb9                	beqz	a5,4ac4 <__sfp+0x88>
    4a68:	4084                	lw	s1,0(s1)
    4a6a:	bfc5                	j	4a5a <__sfp+0x1e>
    4a6c:	00c41703          	lh	a4,12(s0)
    4a70:	e739                	bnez	a4,4abe <__sfp+0x82>
    4a72:	77c1                	lui	a5,0xffff0
    4a74:	0785                	addi	a5,a5,1
    4a76:	06042223          	sw	zero,100(s0)
    4a7a:	00042023          	sw	zero,0(s0)
    4a7e:	00042223          	sw	zero,4(s0)
    4a82:	00042423          	sw	zero,8(s0)
    4a86:	c45c                	sw	a5,12(s0)
    4a88:	00042823          	sw	zero,16(s0)
    4a8c:	00042a23          	sw	zero,20(s0)
    4a90:	00042c23          	sw	zero,24(s0)
    4a94:	4621                	li	a2,8
    4a96:	4581                	li	a1,0
    4a98:	05c40513          	addi	a0,s0,92
    4a9c:	f84fb0ef          	jal	ra,220 <memset>
    4aa0:	02042a23          	sw	zero,52(s0)
    4aa4:	02042c23          	sw	zero,56(s0)
    4aa8:	04042423          	sw	zero,72(s0)
    4aac:	04042623          	sw	zero,76(s0)
    4ab0:	8522                	mv	a0,s0
    4ab2:	40b2                	lw	ra,12(sp)
    4ab4:	4422                	lw	s0,8(sp)
    4ab6:	4492                	lw	s1,4(sp)
    4ab8:	4902                	lw	s2,0(sp)
    4aba:	0141                	addi	sp,sp,16
    4abc:	8082                	ret
    4abe:	06840413          	addi	s0,s0,104
    4ac2:	bf71                	j	4a5e <__sfp+0x22>
    4ac4:	4591                	li	a1,4
    4ac6:	854a                	mv	a0,s2
    4ac8:	ec3ff0ef          	jal	ra,498a <__sfmoreglue>
    4acc:	c088                	sw	a0,0(s1)
    4ace:	fd49                	bnez	a0,4a68 <__sfp+0x2c>
    4ad0:	47b1                	li	a5,12
    4ad2:	00f92023          	sw	a5,0(s2)
    4ad6:	4401                	li	s0,0
    4ad8:	bfe1                	j	4ab0 <__sfp+0x74>

00004ada <_fwalk_reent>:
    4ada:	7179                	addi	sp,sp,-48
    4adc:	d422                	sw	s0,40(sp)
    4ade:	d04a                	sw	s2,32(sp)
    4ae0:	cc52                	sw	s4,24(sp)
    4ae2:	ca56                	sw	s5,20(sp)
    4ae4:	c85a                	sw	s6,16(sp)
    4ae6:	c65e                	sw	s7,12(sp)
    4ae8:	d606                	sw	ra,44(sp)
    4aea:	d226                	sw	s1,36(sp)
    4aec:	ce4e                	sw	s3,28(sp)
    4aee:	8a2a                	mv	s4,a0
    4af0:	8aae                	mv	s5,a1
    4af2:	04850413          	addi	s0,a0,72
    4af6:	4901                	li	s2,0
    4af8:	4b05                	li	s6,1
    4afa:	5bfd                	li	s7,-1
    4afc:	ec09                	bnez	s0,4b16 <_fwalk_reent+0x3c>
    4afe:	50b2                	lw	ra,44(sp)
    4b00:	5422                	lw	s0,40(sp)
    4b02:	854a                	mv	a0,s2
    4b04:	5492                	lw	s1,36(sp)
    4b06:	5902                	lw	s2,32(sp)
    4b08:	49f2                	lw	s3,28(sp)
    4b0a:	4a62                	lw	s4,24(sp)
    4b0c:	4ad2                	lw	s5,20(sp)
    4b0e:	4b42                	lw	s6,16(sp)
    4b10:	4bb2                	lw	s7,12(sp)
    4b12:	6145                	addi	sp,sp,48
    4b14:	8082                	ret
    4b16:	4404                	lw	s1,8(s0)
    4b18:	00442983          	lw	s3,4(s0)
    4b1c:	19fd                	addi	s3,s3,-1
    4b1e:	0009d463          	bgez	s3,4b26 <_fwalk_reent+0x4c>
    4b22:	4000                	lw	s0,0(s0)
    4b24:	bfe1                	j	4afc <_fwalk_reent+0x22>
    4b26:	24de                	lhu	a5,12(s1)
    4b28:	00fb7b63          	bgeu	s6,a5,4b3e <_fwalk_reent+0x64>
    4b2c:	00e49783          	lh	a5,14(s1)
    4b30:	01778763          	beq	a5,s7,4b3e <_fwalk_reent+0x64>
    4b34:	85a6                	mv	a1,s1
    4b36:	8552                	mv	a0,s4
    4b38:	9a82                	jalr	s5
    4b3a:	00a96933          	or	s2,s2,a0
    4b3e:	06848493          	addi	s1,s1,104
    4b42:	bfe9                	j	4b1c <_fwalk_reent+0x42>

00004b44 <__swhatbuf_r>:
    4b44:	7119                	addi	sp,sp,-128
    4b46:	daa6                	sw	s1,116(sp)
    4b48:	84ae                	mv	s1,a1
    4b4a:	00e59583          	lh	a1,14(a1)
    4b4e:	dca2                	sw	s0,120(sp)
    4b50:	de86                	sw	ra,124(sp)
    4b52:	8432                	mv	s0,a2
    4b54:	0005db63          	bgez	a1,4b6a <__swhatbuf_r+0x26>
    4b58:	24de                	lhu	a5,12(s1)
    4b5a:	0006a023          	sw	zero,0(a3)
    4b5e:	0807f793          	andi	a5,a5,128
    4b62:	e785                	bnez	a5,4b8a <__swhatbuf_r+0x46>
    4b64:	40000793          	li	a5,1024
    4b68:	a01d                	j	4b8e <__swhatbuf_r+0x4a>
    4b6a:	0830                	addi	a2,sp,24
    4b6c:	c636                	sw	a3,12(sp)
    4b6e:	237000ef          	jal	ra,55a4 <_fstat_r>
    4b72:	46b2                	lw	a3,12(sp)
    4b74:	fe0542e3          	bltz	a0,4b58 <__swhatbuf_r+0x14>
    4b78:	4772                	lw	a4,28(sp)
    4b7a:	67bd                	lui	a5,0xf
    4b7c:	8ff9                	and	a5,a5,a4
    4b7e:	7779                	lui	a4,0xffffe
    4b80:	97ba                	add	a5,a5,a4
    4b82:	0017b793          	seqz	a5,a5
    4b86:	c29c                	sw	a5,0(a3)
    4b88:	bff1                	j	4b64 <__swhatbuf_r+0x20>
    4b8a:	04000793          	li	a5,64
    4b8e:	c01c                	sw	a5,0(s0)
    4b90:	50f6                	lw	ra,124(sp)
    4b92:	5466                	lw	s0,120(sp)
    4b94:	54d6                	lw	s1,116(sp)
    4b96:	4501                	li	a0,0
    4b98:	6109                	addi	sp,sp,128
    4b9a:	8082                	ret

00004b9c <__smakebuf_r>:
    4b9c:	25de                	lhu	a5,12(a1)
    4b9e:	1101                	addi	sp,sp,-32
    4ba0:	cc22                	sw	s0,24(sp)
    4ba2:	ce06                	sw	ra,28(sp)
    4ba4:	ca26                	sw	s1,20(sp)
    4ba6:	c84a                	sw	s2,16(sp)
    4ba8:	8b89                	andi	a5,a5,2
    4baa:	842e                	mv	s0,a1
    4bac:	cf89                	beqz	a5,4bc6 <__smakebuf_r+0x2a>
    4bae:	04740793          	addi	a5,s0,71
    4bb2:	c01c                	sw	a5,0(s0)
    4bb4:	c81c                	sw	a5,16(s0)
    4bb6:	4785                	li	a5,1
    4bb8:	c85c                	sw	a5,20(s0)
    4bba:	40f2                	lw	ra,28(sp)
    4bbc:	4462                	lw	s0,24(sp)
    4bbe:	44d2                	lw	s1,20(sp)
    4bc0:	4942                	lw	s2,16(sp)
    4bc2:	6105                	addi	sp,sp,32
    4bc4:	8082                	ret
    4bc6:	0074                	addi	a3,sp,12
    4bc8:	0030                	addi	a2,sp,8
    4bca:	84aa                	mv	s1,a0
    4bcc:	f79ff0ef          	jal	ra,4b44 <__swhatbuf_r>
    4bd0:	45a2                	lw	a1,8(sp)
    4bd2:	892a                	mv	s2,a0
    4bd4:	8526                	mv	a0,s1
    4bd6:	2201                	jal	4cd6 <_malloc_r>
    4bd8:	e919                	bnez	a0,4bee <__smakebuf_r+0x52>
    4bda:	00c41783          	lh	a5,12(s0)
    4bde:	2007f713          	andi	a4,a5,512
    4be2:	ff61                	bnez	a4,4bba <__smakebuf_r+0x1e>
    4be4:	9bf1                	andi	a5,a5,-4
    4be6:	0027e793          	ori	a5,a5,2
    4bea:	a45e                	sh	a5,12(s0)
    4bec:	b7c9                	j	4bae <__smakebuf_r+0x12>
    4bee:	00000797          	auipc	a5,0x0
    4bf2:	d9278793          	addi	a5,a5,-622 # 4980 <_cleanup_r>
    4bf6:	d49c                	sw	a5,40(s1)
    4bf8:	245e                	lhu	a5,12(s0)
    4bfa:	c008                	sw	a0,0(s0)
    4bfc:	c808                	sw	a0,16(s0)
    4bfe:	0807e793          	ori	a5,a5,128
    4c02:	a45e                	sh	a5,12(s0)
    4c04:	47a2                	lw	a5,8(sp)
    4c06:	c85c                	sw	a5,20(s0)
    4c08:	47b2                	lw	a5,12(sp)
    4c0a:	cf81                	beqz	a5,4c22 <__smakebuf_r+0x86>
    4c0c:	00e41583          	lh	a1,14(s0)
    4c10:	8526                	mv	a0,s1
    4c12:	1c5000ef          	jal	ra,55d6 <_isatty_r>
    4c16:	c511                	beqz	a0,4c22 <__smakebuf_r+0x86>
    4c18:	245e                	lhu	a5,12(s0)
    4c1a:	9bf1                	andi	a5,a5,-4
    4c1c:	0017e793          	ori	a5,a5,1
    4c20:	a45e                	sh	a5,12(s0)
    4c22:	245e                	lhu	a5,12(s0)
    4c24:	00f96933          	or	s2,s2,a5
    4c28:	01241623          	sh	s2,12(s0)
    4c2c:	b779                	j	4bba <__smakebuf_r+0x1e>

00004c2e <_free_r>:
    4c2e:	c1dd                	beqz	a1,4cd4 <_free_r+0xa6>
    4c30:	ffc5a783          	lw	a5,-4(a1)
    4c34:	1141                	addi	sp,sp,-16
    4c36:	c422                	sw	s0,8(sp)
    4c38:	c606                	sw	ra,12(sp)
    4c3a:	c226                	sw	s1,4(sp)
    4c3c:	ffc58413          	addi	s0,a1,-4
    4c40:	0007d363          	bgez	a5,4c46 <_free_r+0x18>
    4c44:	943e                	add	s0,s0,a5
    4c46:	84aa                	mv	s1,a0
    4c48:	20b000ef          	jal	ra,5652 <__malloc_lock>
    4c4c:	84c18793          	addi	a5,gp,-1972 # 200000cc <__malloc_free_list>
    4c50:	439c                	lw	a5,0(a5)
    4c52:	ef81                	bnez	a5,4c6a <_free_r+0x3c>
    4c54:	00042223          	sw	zero,4(s0)
    4c58:	8481a623          	sw	s0,-1972(gp) # 200000cc <__malloc_free_list>
    4c5c:	4422                	lw	s0,8(sp)
    4c5e:	40b2                	lw	ra,12(sp)
    4c60:	8526                	mv	a0,s1
    4c62:	4492                	lw	s1,4(sp)
    4c64:	0141                	addi	sp,sp,16
    4c66:	1ef0006f          	j	5654 <__malloc_unlock>
    4c6a:	00f47e63          	bgeu	s0,a5,4c86 <_free_r+0x58>
    4c6e:	4014                	lw	a3,0(s0)
    4c70:	00d40733          	add	a4,s0,a3
    4c74:	00e79663          	bne	a5,a4,4c80 <_free_r+0x52>
    4c78:	4398                	lw	a4,0(a5)
    4c7a:	43dc                	lw	a5,4(a5)
    4c7c:	9736                	add	a4,a4,a3
    4c7e:	c018                	sw	a4,0(s0)
    4c80:	c05c                	sw	a5,4(s0)
    4c82:	bfd9                	j	4c58 <_free_r+0x2a>
    4c84:	87ba                	mv	a5,a4
    4c86:	43d8                	lw	a4,4(a5)
    4c88:	c319                	beqz	a4,4c8e <_free_r+0x60>
    4c8a:	fee47de3          	bgeu	s0,a4,4c84 <_free_r+0x56>
    4c8e:	4394                	lw	a3,0(a5)
    4c90:	00d78633          	add	a2,a5,a3
    4c94:	00861f63          	bne	a2,s0,4cb2 <_free_r+0x84>
    4c98:	4010                	lw	a2,0(s0)
    4c9a:	96b2                	add	a3,a3,a2
    4c9c:	c394                	sw	a3,0(a5)
    4c9e:	00d78633          	add	a2,a5,a3
    4ca2:	fac71de3          	bne	a4,a2,4c5c <_free_r+0x2e>
    4ca6:	4310                	lw	a2,0(a4)
    4ca8:	4358                	lw	a4,4(a4)
    4caa:	96b2                	add	a3,a3,a2
    4cac:	c394                	sw	a3,0(a5)
    4cae:	c3d8                	sw	a4,4(a5)
    4cb0:	b775                	j	4c5c <_free_r+0x2e>
    4cb2:	00c47563          	bgeu	s0,a2,4cbc <_free_r+0x8e>
    4cb6:	47b1                	li	a5,12
    4cb8:	c09c                	sw	a5,0(s1)
    4cba:	b74d                	j	4c5c <_free_r+0x2e>
    4cbc:	4010                	lw	a2,0(s0)
    4cbe:	00c406b3          	add	a3,s0,a2
    4cc2:	00d71663          	bne	a4,a3,4cce <_free_r+0xa0>
    4cc6:	4314                	lw	a3,0(a4)
    4cc8:	4358                	lw	a4,4(a4)
    4cca:	96b2                	add	a3,a3,a2
    4ccc:	c014                	sw	a3,0(s0)
    4cce:	c058                	sw	a4,4(s0)
    4cd0:	c3c0                	sw	s0,4(a5)
    4cd2:	b769                	j	4c5c <_free_r+0x2e>
    4cd4:	8082                	ret

00004cd6 <_malloc_r>:
    4cd6:	1101                	addi	sp,sp,-32
    4cd8:	ca26                	sw	s1,20(sp)
    4cda:	00358493          	addi	s1,a1,3
    4cde:	98f1                	andi	s1,s1,-4
    4ce0:	ce06                	sw	ra,28(sp)
    4ce2:	cc22                	sw	s0,24(sp)
    4ce4:	c84a                	sw	s2,16(sp)
    4ce6:	c64e                	sw	s3,12(sp)
    4ce8:	04a1                	addi	s1,s1,8
    4cea:	47b1                	li	a5,12
    4cec:	04f4f363          	bgeu	s1,a5,4d32 <_malloc_r+0x5c>
    4cf0:	44b1                	li	s1,12
    4cf2:	04b4e263          	bltu	s1,a1,4d36 <_malloc_r+0x60>
    4cf6:	892a                	mv	s2,a0
    4cf8:	15b000ef          	jal	ra,5652 <__malloc_lock>
    4cfc:	84c18793          	addi	a5,gp,-1972 # 200000cc <__malloc_free_list>
    4d00:	4398                	lw	a4,0(a5)
    4d02:	843a                	mv	s0,a4
    4d04:	e039                	bnez	s0,4d4a <_malloc_r+0x74>
    4d06:	85018793          	addi	a5,gp,-1968 # 200000d0 <__malloc_sbrk_start>
    4d0a:	439c                	lw	a5,0(a5)
    4d0c:	e791                	bnez	a5,4d18 <_malloc_r+0x42>
    4d0e:	4581                	li	a1,0
    4d10:	854a                	mv	a0,s2
    4d12:	2f25                	jal	544a <_sbrk_r>
    4d14:	84a1a823          	sw	a0,-1968(gp) # 200000d0 <__malloc_sbrk_start>
    4d18:	85a6                	mv	a1,s1
    4d1a:	854a                	mv	a0,s2
    4d1c:	273d                	jal	544a <_sbrk_r>
    4d1e:	59fd                	li	s3,-1
    4d20:	07351963          	bne	a0,s3,4d92 <_malloc_r+0xbc>
    4d24:	47b1                	li	a5,12
    4d26:	00f92023          	sw	a5,0(s2)
    4d2a:	854a                	mv	a0,s2
    4d2c:	129000ef          	jal	ra,5654 <__malloc_unlock>
    4d30:	a029                	j	4d3a <_malloc_r+0x64>
    4d32:	fc04d0e3          	bgez	s1,4cf2 <_malloc_r+0x1c>
    4d36:	47b1                	li	a5,12
    4d38:	c11c                	sw	a5,0(a0)
    4d3a:	4501                	li	a0,0
    4d3c:	40f2                	lw	ra,28(sp)
    4d3e:	4462                	lw	s0,24(sp)
    4d40:	44d2                	lw	s1,20(sp)
    4d42:	4942                	lw	s2,16(sp)
    4d44:	49b2                	lw	s3,12(sp)
    4d46:	6105                	addi	sp,sp,32
    4d48:	8082                	ret
    4d4a:	401c                	lw	a5,0(s0)
    4d4c:	8f85                	sub	a5,a5,s1
    4d4e:	0207cf63          	bltz	a5,4d8c <_malloc_r+0xb6>
    4d52:	46ad                	li	a3,11
    4d54:	00f6f663          	bgeu	a3,a5,4d60 <_malloc_r+0x8a>
    4d58:	c01c                	sw	a5,0(s0)
    4d5a:	943e                	add	s0,s0,a5
    4d5c:	c004                	sw	s1,0(s0)
    4d5e:	a031                	j	4d6a <_malloc_r+0x94>
    4d60:	405c                	lw	a5,4(s0)
    4d62:	02871363          	bne	a4,s0,4d88 <_malloc_r+0xb2>
    4d66:	84f1a623          	sw	a5,-1972(gp) # 200000cc <__malloc_free_list>
    4d6a:	854a                	mv	a0,s2
    4d6c:	0e9000ef          	jal	ra,5654 <__malloc_unlock>
    4d70:	00b40513          	addi	a0,s0,11
    4d74:	00440793          	addi	a5,s0,4
    4d78:	9961                	andi	a0,a0,-8
    4d7a:	40f50733          	sub	a4,a0,a5
    4d7e:	df5d                	beqz	a4,4d3c <_malloc_r+0x66>
    4d80:	943a                	add	s0,s0,a4
    4d82:	8f89                	sub	a5,a5,a0
    4d84:	c01c                	sw	a5,0(s0)
    4d86:	bf5d                	j	4d3c <_malloc_r+0x66>
    4d88:	c35c                	sw	a5,4(a4)
    4d8a:	b7c5                	j	4d6a <_malloc_r+0x94>
    4d8c:	8722                	mv	a4,s0
    4d8e:	4040                	lw	s0,4(s0)
    4d90:	bf95                	j	4d04 <_malloc_r+0x2e>
    4d92:	00350413          	addi	s0,a0,3
    4d96:	9871                	andi	s0,s0,-4
    4d98:	fc8502e3          	beq	a0,s0,4d5c <_malloc_r+0x86>
    4d9c:	40a405b3          	sub	a1,s0,a0
    4da0:	854a                	mv	a0,s2
    4da2:	2565                	jal	544a <_sbrk_r>
    4da4:	fb351ce3          	bne	a0,s3,4d5c <_malloc_r+0x86>
    4da8:	bfb5                	j	4d24 <_malloc_r+0x4e>

00004daa <__sfputc_r>:
    4daa:	461c                	lw	a5,8(a2)
    4dac:	17fd                	addi	a5,a5,-1
    4dae:	c61c                	sw	a5,8(a2)
    4db0:	0007da63          	bgez	a5,4dc4 <__sfputc_r+0x1a>
    4db4:	4e18                	lw	a4,24(a2)
    4db6:	00e7c563          	blt	a5,a4,4dc0 <__sfputc_r+0x16>
    4dba:	47a9                	li	a5,10
    4dbc:	00f59463          	bne	a1,a5,4dc4 <__sfputc_r+0x1a>
    4dc0:	80dff06f          	j	45cc <__swbuf_r>
    4dc4:	421c                	lw	a5,0(a2)
    4dc6:	852e                	mv	a0,a1
    4dc8:	00178713          	addi	a4,a5,1
    4dcc:	c218                	sw	a4,0(a2)
    4dce:	a38c                	sb	a1,0(a5)
    4dd0:	8082                	ret

00004dd2 <__sfputs_r>:
    4dd2:	1101                	addi	sp,sp,-32
    4dd4:	cc22                	sw	s0,24(sp)
    4dd6:	ca26                	sw	s1,20(sp)
    4dd8:	c84a                	sw	s2,16(sp)
    4dda:	c64e                	sw	s3,12(sp)
    4ddc:	c452                	sw	s4,8(sp)
    4dde:	ce06                	sw	ra,28(sp)
    4de0:	892a                	mv	s2,a0
    4de2:	89ae                	mv	s3,a1
    4de4:	8432                	mv	s0,a2
    4de6:	00d604b3          	add	s1,a2,a3
    4dea:	5a7d                	li	s4,-1
    4dec:	00941463          	bne	s0,s1,4df4 <__sfputs_r+0x22>
    4df0:	4501                	li	a0,0
    4df2:	a809                	j	4e04 <__sfputs_r+0x32>
    4df4:	200c                	lbu	a1,0(s0)
    4df6:	864e                	mv	a2,s3
    4df8:	854a                	mv	a0,s2
    4dfa:	fb1ff0ef          	jal	ra,4daa <__sfputc_r>
    4dfe:	0405                	addi	s0,s0,1
    4e00:	ff4516e3          	bne	a0,s4,4dec <__sfputs_r+0x1a>
    4e04:	40f2                	lw	ra,28(sp)
    4e06:	4462                	lw	s0,24(sp)
    4e08:	44d2                	lw	s1,20(sp)
    4e0a:	4942                	lw	s2,16(sp)
    4e0c:	49b2                	lw	s3,12(sp)
    4e0e:	4a22                	lw	s4,8(sp)
    4e10:	6105                	addi	sp,sp,32
    4e12:	8082                	ret

00004e14 <_vfiprintf_r>:
    4e14:	7135                	addi	sp,sp,-160
    4e16:	cd22                	sw	s0,152(sp)
    4e18:	cb26                	sw	s1,148(sp)
    4e1a:	c94a                	sw	s2,144(sp)
    4e1c:	c74e                	sw	s3,140(sp)
    4e1e:	cf06                	sw	ra,156(sp)
    4e20:	c552                	sw	s4,136(sp)
    4e22:	c356                	sw	s5,132(sp)
    4e24:	c15a                	sw	s6,128(sp)
    4e26:	dede                	sw	s7,124(sp)
    4e28:	dce2                	sw	s8,120(sp)
    4e2a:	dae6                	sw	s9,116(sp)
    4e2c:	89aa                	mv	s3,a0
    4e2e:	84ae                	mv	s1,a1
    4e30:	8932                	mv	s2,a2
    4e32:	8436                	mv	s0,a3
    4e34:	c509                	beqz	a0,4e3e <_vfiprintf_r+0x2a>
    4e36:	4d1c                	lw	a5,24(a0)
    4e38:	e399                	bnez	a5,4e3e <_vfiprintf_r+0x2a>
    4e3a:	b97ff0ef          	jal	ra,49d0 <__sinit>
    4e3e:	00003797          	auipc	a5,0x3
    4e42:	89a78793          	addi	a5,a5,-1894 # 76d8 <__sf_fake_stdin>
    4e46:	0cf49863          	bne	s1,a5,4f16 <_vfiprintf_r+0x102>
    4e4a:	0049a483          	lw	s1,4(s3)
    4e4e:	24de                	lhu	a5,12(s1)
    4e50:	8ba1                	andi	a5,a5,8
    4e52:	c7e5                	beqz	a5,4f3a <_vfiprintf_r+0x126>
    4e54:	489c                	lw	a5,16(s1)
    4e56:	c3f5                	beqz	a5,4f3a <_vfiprintf_r+0x126>
    4e58:	02000793          	li	a5,32
    4e5c:	02f104a3          	sb	a5,41(sp)
    4e60:	03000793          	li	a5,48
    4e64:	d202                	sw	zero,36(sp)
    4e66:	02f10523          	sb	a5,42(sp)
    4e6a:	c622                	sw	s0,12(sp)
    4e6c:	02500b93          	li	s7,37
    4e70:	00003a97          	auipc	s5,0x3
    4e74:	8a8a8a93          	addi	s5,s5,-1880 # 7718 <__sf_fake_stdout+0x20>
    4e78:	4c05                	li	s8,1
    4e7a:	4b29                	li	s6,10
    4e7c:	844a                	mv	s0,s2
    4e7e:	201c                	lbu	a5,0(s0)
    4e80:	c399                	beqz	a5,4e86 <_vfiprintf_r+0x72>
    4e82:	0d779f63          	bne	a5,s7,4f60 <_vfiprintf_r+0x14c>
    4e86:	41240cb3          	sub	s9,s0,s2
    4e8a:	000c8e63          	beqz	s9,4ea6 <_vfiprintf_r+0x92>
    4e8e:	86e6                	mv	a3,s9
    4e90:	864a                	mv	a2,s2
    4e92:	85a6                	mv	a1,s1
    4e94:	854e                	mv	a0,s3
    4e96:	f3dff0ef          	jal	ra,4dd2 <__sfputs_r>
    4e9a:	57fd                	li	a5,-1
    4e9c:	1cf50f63          	beq	a0,a5,507a <_vfiprintf_r+0x266>
    4ea0:	5692                	lw	a3,36(sp)
    4ea2:	96e6                	add	a3,a3,s9
    4ea4:	d236                	sw	a3,36(sp)
    4ea6:	201c                	lbu	a5,0(s0)
    4ea8:	1c078963          	beqz	a5,507a <_vfiprintf_r+0x266>
    4eac:	57fd                	li	a5,-1
    4eae:	00140913          	addi	s2,s0,1
    4eb2:	c802                	sw	zero,16(sp)
    4eb4:	ce02                	sw	zero,28(sp)
    4eb6:	ca3e                	sw	a5,20(sp)
    4eb8:	cc02                	sw	zero,24(sp)
    4eba:	040109a3          	sb	zero,83(sp)
    4ebe:	d482                	sw	zero,104(sp)
    4ec0:	00094583          	lbu	a1,0(s2)
    4ec4:	4615                	li	a2,5
    4ec6:	8556                	mv	a0,s5
    4ec8:	2f8d                	jal	563a <memchr>
    4eca:	00190413          	addi	s0,s2,1
    4ece:	47c2                	lw	a5,16(sp)
    4ed0:	e951                	bnez	a0,4f64 <_vfiprintf_r+0x150>
    4ed2:	0107f713          	andi	a4,a5,16
    4ed6:	c709                	beqz	a4,4ee0 <_vfiprintf_r+0xcc>
    4ed8:	02000713          	li	a4,32
    4edc:	04e109a3          	sb	a4,83(sp)
    4ee0:	0087f713          	andi	a4,a5,8
    4ee4:	c709                	beqz	a4,4eee <_vfiprintf_r+0xda>
    4ee6:	02b00713          	li	a4,43
    4eea:	04e109a3          	sb	a4,83(sp)
    4eee:	00094683          	lbu	a3,0(s2)
    4ef2:	02a00713          	li	a4,42
    4ef6:	06e68f63          	beq	a3,a4,4f74 <_vfiprintf_r+0x160>
    4efa:	47f2                	lw	a5,28(sp)
    4efc:	844a                	mv	s0,s2
    4efe:	4681                	li	a3,0
    4f00:	4625                	li	a2,9
    4f02:	2018                	lbu	a4,0(s0)
    4f04:	00140593          	addi	a1,s0,1
    4f08:	fd070713          	addi	a4,a4,-48 # ffffdfd0 <_eusrstack+0xdfff5fd0>
    4f0c:	0ae67763          	bgeu	a2,a4,4fba <_vfiprintf_r+0x1a6>
    4f10:	cab5                	beqz	a3,4f84 <_vfiprintf_r+0x170>
    4f12:	ce3e                	sw	a5,28(sp)
    4f14:	a885                	j	4f84 <_vfiprintf_r+0x170>
    4f16:	00002797          	auipc	a5,0x2
    4f1a:	7e278793          	addi	a5,a5,2018 # 76f8 <__sf_fake_stdout>
    4f1e:	00f49563          	bne	s1,a5,4f28 <_vfiprintf_r+0x114>
    4f22:	0089a483          	lw	s1,8(s3)
    4f26:	b725                	j	4e4e <_vfiprintf_r+0x3a>
    4f28:	00002797          	auipc	a5,0x2
    4f2c:	79078793          	addi	a5,a5,1936 # 76b8 <__sf_fake_stderr>
    4f30:	f0f49fe3          	bne	s1,a5,4e4e <_vfiprintf_r+0x3a>
    4f34:	00c9a483          	lw	s1,12(s3)
    4f38:	bf19                	j	4e4e <_vfiprintf_r+0x3a>
    4f3a:	85a6                	mv	a1,s1
    4f3c:	854e                	mv	a0,s3
    4f3e:	f4aff0ef          	jal	ra,4688 <__swsetup_r>
    4f42:	d919                	beqz	a0,4e58 <_vfiprintf_r+0x44>
    4f44:	557d                	li	a0,-1
    4f46:	40fa                	lw	ra,156(sp)
    4f48:	446a                	lw	s0,152(sp)
    4f4a:	44da                	lw	s1,148(sp)
    4f4c:	494a                	lw	s2,144(sp)
    4f4e:	49ba                	lw	s3,140(sp)
    4f50:	4a2a                	lw	s4,136(sp)
    4f52:	4a9a                	lw	s5,132(sp)
    4f54:	4b0a                	lw	s6,128(sp)
    4f56:	5bf6                	lw	s7,124(sp)
    4f58:	5c66                	lw	s8,120(sp)
    4f5a:	5cd6                	lw	s9,116(sp)
    4f5c:	610d                	addi	sp,sp,160
    4f5e:	8082                	ret
    4f60:	0405                	addi	s0,s0,1
    4f62:	bf31                	j	4e7e <_vfiprintf_r+0x6a>
    4f64:	41550533          	sub	a0,a0,s5
    4f68:	00ac1533          	sll	a0,s8,a0
    4f6c:	8fc9                	or	a5,a5,a0
    4f6e:	c83e                	sw	a5,16(sp)
    4f70:	8922                	mv	s2,s0
    4f72:	b7b9                	j	4ec0 <_vfiprintf_r+0xac>
    4f74:	4732                	lw	a4,12(sp)
    4f76:	00470693          	addi	a3,a4,4
    4f7a:	4318                	lw	a4,0(a4)
    4f7c:	c636                	sw	a3,12(sp)
    4f7e:	02074763          	bltz	a4,4fac <_vfiprintf_r+0x198>
    4f82:	ce3a                	sw	a4,28(sp)
    4f84:	2018                	lbu	a4,0(s0)
    4f86:	02e00793          	li	a5,46
    4f8a:	04f71d63          	bne	a4,a5,4fe4 <_vfiprintf_r+0x1d0>
    4f8e:	3018                	lbu	a4,1(s0)
    4f90:	02a00793          	li	a5,42
    4f94:	02f71b63          	bne	a4,a5,4fca <_vfiprintf_r+0x1b6>
    4f98:	47b2                	lw	a5,12(sp)
    4f9a:	0409                	addi	s0,s0,2
    4f9c:	00478713          	addi	a4,a5,4
    4fa0:	439c                	lw	a5,0(a5)
    4fa2:	c63a                	sw	a4,12(sp)
    4fa4:	0207c163          	bltz	a5,4fc6 <_vfiprintf_r+0x1b2>
    4fa8:	ca3e                	sw	a5,20(sp)
    4faa:	a82d                	j	4fe4 <_vfiprintf_r+0x1d0>
    4fac:	40e00733          	neg	a4,a4
    4fb0:	0027e793          	ori	a5,a5,2
    4fb4:	ce3a                	sw	a4,28(sp)
    4fb6:	c83e                	sw	a5,16(sp)
    4fb8:	b7f1                	j	4f84 <_vfiprintf_r+0x170>
    4fba:	036787b3          	mul	a5,a5,s6
    4fbe:	4685                	li	a3,1
    4fc0:	842e                	mv	s0,a1
    4fc2:	97ba                	add	a5,a5,a4
    4fc4:	bf3d                	j	4f02 <_vfiprintf_r+0xee>
    4fc6:	57fd                	li	a5,-1
    4fc8:	b7c5                	j	4fa8 <_vfiprintf_r+0x194>
    4fca:	0405                	addi	s0,s0,1
    4fcc:	ca02                	sw	zero,20(sp)
    4fce:	4681                	li	a3,0
    4fd0:	4781                	li	a5,0
    4fd2:	4625                	li	a2,9
    4fd4:	2018                	lbu	a4,0(s0)
    4fd6:	00140593          	addi	a1,s0,1
    4fda:	fd070713          	addi	a4,a4,-48
    4fde:	06e67463          	bgeu	a2,a4,5046 <_vfiprintf_r+0x232>
    4fe2:	f2f9                	bnez	a3,4fa8 <_vfiprintf_r+0x194>
    4fe4:	200c                	lbu	a1,0(s0)
    4fe6:	460d                	li	a2,3
    4fe8:	00002517          	auipc	a0,0x2
    4fec:	73850513          	addi	a0,a0,1848 # 7720 <__sf_fake_stdout+0x28>
    4ff0:	25a9                	jal	563a <memchr>
    4ff2:	cd11                	beqz	a0,500e <_vfiprintf_r+0x1fa>
    4ff4:	00002797          	auipc	a5,0x2
    4ff8:	72c78793          	addi	a5,a5,1836 # 7720 <__sf_fake_stdout+0x28>
    4ffc:	8d1d                	sub	a0,a0,a5
    4ffe:	04000793          	li	a5,64
    5002:	00a797b3          	sll	a5,a5,a0
    5006:	4542                	lw	a0,16(sp)
    5008:	0405                	addi	s0,s0,1
    500a:	8d5d                	or	a0,a0,a5
    500c:	c82a                	sw	a0,16(sp)
    500e:	200c                	lbu	a1,0(s0)
    5010:	4619                	li	a2,6
    5012:	00002517          	auipc	a0,0x2
    5016:	71250513          	addi	a0,a0,1810 # 7724 <__sf_fake_stdout+0x2c>
    501a:	00140913          	addi	s2,s0,1
    501e:	02b10423          	sb	a1,40(sp)
    5022:	2d21                	jal	563a <memchr>
    5024:	c135                	beqz	a0,5088 <_vfiprintf_r+0x274>
    5026:	ffffb797          	auipc	a5,0xffffb
    502a:	fda78793          	addi	a5,a5,-38 # 0 <_sinit>
    502e:	e795                	bnez	a5,505a <_vfiprintf_r+0x246>
    5030:	4742                	lw	a4,16(sp)
    5032:	47b2                	lw	a5,12(sp)
    5034:	10077713          	andi	a4,a4,256
    5038:	cf09                	beqz	a4,5052 <_vfiprintf_r+0x23e>
    503a:	0791                	addi	a5,a5,4
    503c:	c63e                	sw	a5,12(sp)
    503e:	5792                	lw	a5,36(sp)
    5040:	97d2                	add	a5,a5,s4
    5042:	d23e                	sw	a5,36(sp)
    5044:	bd25                	j	4e7c <_vfiprintf_r+0x68>
    5046:	036787b3          	mul	a5,a5,s6
    504a:	4685                	li	a3,1
    504c:	842e                	mv	s0,a1
    504e:	97ba                	add	a5,a5,a4
    5050:	b751                	j	4fd4 <_vfiprintf_r+0x1c0>
    5052:	079d                	addi	a5,a5,7
    5054:	9be1                	andi	a5,a5,-8
    5056:	07a1                	addi	a5,a5,8
    5058:	b7d5                	j	503c <_vfiprintf_r+0x228>
    505a:	0078                	addi	a4,sp,12
    505c:	00000697          	auipc	a3,0x0
    5060:	d7668693          	addi	a3,a3,-650 # 4dd2 <__sfputs_r>
    5064:	8626                	mv	a2,s1
    5066:	080c                	addi	a1,sp,16
    5068:	854e                	mv	a0,s3
    506a:	00000097          	auipc	ra,0x0
    506e:	000000e7          	jalr	zero # 0 <_sinit>
    5072:	57fd                	li	a5,-1
    5074:	8a2a                	mv	s4,a0
    5076:	fcf514e3          	bne	a0,a5,503e <_vfiprintf_r+0x22a>
    507a:	24de                	lhu	a5,12(s1)
    507c:	0407f793          	andi	a5,a5,64
    5080:	ec0792e3          	bnez	a5,4f44 <_vfiprintf_r+0x130>
    5084:	5512                	lw	a0,36(sp)
    5086:	b5c1                	j	4f46 <_vfiprintf_r+0x132>
    5088:	0078                	addi	a4,sp,12
    508a:	00000697          	auipc	a3,0x0
    508e:	d4868693          	addi	a3,a3,-696 # 4dd2 <__sfputs_r>
    5092:	8626                	mv	a2,s1
    5094:	080c                	addi	a1,sp,16
    5096:	854e                	mv	a0,s3
    5098:	2a01                	jal	51a8 <_printf_i>
    509a:	bfe1                	j	5072 <_vfiprintf_r+0x25e>

0000509c <_printf_common>:
    509c:	7179                	addi	sp,sp,-48
    509e:	ca56                	sw	s5,20(sp)
    50a0:	499c                	lw	a5,16(a1)
    50a2:	8aba                	mv	s5,a4
    50a4:	4598                	lw	a4,8(a1)
    50a6:	d422                	sw	s0,40(sp)
    50a8:	d226                	sw	s1,36(sp)
    50aa:	ce4e                	sw	s3,28(sp)
    50ac:	cc52                	sw	s4,24(sp)
    50ae:	d606                	sw	ra,44(sp)
    50b0:	d04a                	sw	s2,32(sp)
    50b2:	c85a                	sw	s6,16(sp)
    50b4:	c65e                	sw	s7,12(sp)
    50b6:	89aa                	mv	s3,a0
    50b8:	842e                	mv	s0,a1
    50ba:	84b2                	mv	s1,a2
    50bc:	8a36                	mv	s4,a3
    50be:	00e7d363          	bge	a5,a4,50c4 <_printf_common+0x28>
    50c2:	87ba                	mv	a5,a4
    50c4:	c09c                	sw	a5,0(s1)
    50c6:	04344703          	lbu	a4,67(s0)
    50ca:	c319                	beqz	a4,50d0 <_printf_common+0x34>
    50cc:	0785                	addi	a5,a5,1
    50ce:	c09c                	sw	a5,0(s1)
    50d0:	401c                	lw	a5,0(s0)
    50d2:	0207f793          	andi	a5,a5,32
    50d6:	c781                	beqz	a5,50de <_printf_common+0x42>
    50d8:	409c                	lw	a5,0(s1)
    50da:	0789                	addi	a5,a5,2
    50dc:	c09c                	sw	a5,0(s1)
    50de:	00042903          	lw	s2,0(s0)
    50e2:	00697913          	andi	s2,s2,6
    50e6:	00091a63          	bnez	s2,50fa <_printf_common+0x5e>
    50ea:	01940b13          	addi	s6,s0,25
    50ee:	5bfd                	li	s7,-1
    50f0:	445c                	lw	a5,12(s0)
    50f2:	4098                	lw	a4,0(s1)
    50f4:	8f99                	sub	a5,a5,a4
    50f6:	04f94c63          	blt	s2,a5,514e <_printf_common+0xb2>
    50fa:	401c                	lw	a5,0(s0)
    50fc:	04344683          	lbu	a3,67(s0)
    5100:	0207f793          	andi	a5,a5,32
    5104:	00d036b3          	snez	a3,a3
    5108:	eba5                	bnez	a5,5178 <_printf_common+0xdc>
    510a:	04340613          	addi	a2,s0,67
    510e:	85d2                	mv	a1,s4
    5110:	854e                	mv	a0,s3
    5112:	9a82                	jalr	s5
    5114:	57fd                	li	a5,-1
    5116:	04f50363          	beq	a0,a5,515c <_printf_common+0xc0>
    511a:	401c                	lw	a5,0(s0)
    511c:	4611                	li	a2,4
    511e:	4098                	lw	a4,0(s1)
    5120:	8b99                	andi	a5,a5,6
    5122:	4454                	lw	a3,12(s0)
    5124:	4481                	li	s1,0
    5126:	00c79763          	bne	a5,a2,5134 <_printf_common+0x98>
    512a:	40e684b3          	sub	s1,a3,a4
    512e:	0004d363          	bgez	s1,5134 <_printf_common+0x98>
    5132:	4481                	li	s1,0
    5134:	441c                	lw	a5,8(s0)
    5136:	4818                	lw	a4,16(s0)
    5138:	00f75463          	bge	a4,a5,5140 <_printf_common+0xa4>
    513c:	8f99                	sub	a5,a5,a4
    513e:	94be                	add	s1,s1,a5
    5140:	4901                	li	s2,0
    5142:	0469                	addi	s0,s0,26
    5144:	5b7d                	li	s6,-1
    5146:	05249863          	bne	s1,s2,5196 <_printf_common+0xfa>
    514a:	4501                	li	a0,0
    514c:	a809                	j	515e <_printf_common+0xc2>
    514e:	4685                	li	a3,1
    5150:	865a                	mv	a2,s6
    5152:	85d2                	mv	a1,s4
    5154:	854e                	mv	a0,s3
    5156:	9a82                	jalr	s5
    5158:	01751e63          	bne	a0,s7,5174 <_printf_common+0xd8>
    515c:	557d                	li	a0,-1
    515e:	50b2                	lw	ra,44(sp)
    5160:	5422                	lw	s0,40(sp)
    5162:	5492                	lw	s1,36(sp)
    5164:	5902                	lw	s2,32(sp)
    5166:	49f2                	lw	s3,28(sp)
    5168:	4a62                	lw	s4,24(sp)
    516a:	4ad2                	lw	s5,20(sp)
    516c:	4b42                	lw	s6,16(sp)
    516e:	4bb2                	lw	s7,12(sp)
    5170:	6145                	addi	sp,sp,48
    5172:	8082                	ret
    5174:	0905                	addi	s2,s2,1
    5176:	bfad                	j	50f0 <_printf_common+0x54>
    5178:	00d40733          	add	a4,s0,a3
    517c:	03000613          	li	a2,48
    5180:	04c701a3          	sb	a2,67(a4)
    5184:	04544703          	lbu	a4,69(s0)
    5188:	00168793          	addi	a5,a3,1
    518c:	97a2                	add	a5,a5,s0
    518e:	0689                	addi	a3,a3,2
    5190:	04e781a3          	sb	a4,67(a5)
    5194:	bf9d                	j	510a <_printf_common+0x6e>
    5196:	4685                	li	a3,1
    5198:	8622                	mv	a2,s0
    519a:	85d2                	mv	a1,s4
    519c:	854e                	mv	a0,s3
    519e:	9a82                	jalr	s5
    51a0:	fb650ee3          	beq	a0,s6,515c <_printf_common+0xc0>
    51a4:	0905                	addi	s2,s2,1
    51a6:	b745                	j	5146 <_printf_common+0xaa>

000051a8 <_printf_i>:
    51a8:	7179                	addi	sp,sp,-48
    51aa:	d422                	sw	s0,40(sp)
    51ac:	d226                	sw	s1,36(sp)
    51ae:	d04a                	sw	s2,32(sp)
    51b0:	ce4e                	sw	s3,28(sp)
    51b2:	d606                	sw	ra,44(sp)
    51b4:	cc52                	sw	s4,24(sp)
    51b6:	ca56                	sw	s5,20(sp)
    51b8:	c85a                	sw	s6,16(sp)
    51ba:	89b6                	mv	s3,a3
    51bc:	2d94                	lbu	a3,24(a1)
    51be:	06900793          	li	a5,105
    51c2:	8932                	mv	s2,a2
    51c4:	84aa                	mv	s1,a0
    51c6:	842e                	mv	s0,a1
    51c8:	04358613          	addi	a2,a1,67
    51cc:	02f68d63          	beq	a3,a5,5206 <_printf_i+0x5e>
    51d0:	06d7e263          	bltu	a5,a3,5234 <_printf_i+0x8c>
    51d4:	05800793          	li	a5,88
    51d8:	18f68663          	beq	a3,a5,5364 <_printf_i+0x1bc>
    51dc:	00d7ed63          	bltu	a5,a3,51f6 <_printf_i+0x4e>
    51e0:	20068e63          	beqz	a3,53fc <_printf_i+0x254>
    51e4:	04300793          	li	a5,67
    51e8:	0af68e63          	beq	a3,a5,52a4 <_printf_i+0xfc>
    51ec:	04240a93          	addi	s5,s0,66
    51f0:	04d40123          	sb	a3,66(s0)
    51f4:	a0c9                	j	52b6 <_printf_i+0x10e>
    51f6:	06300793          	li	a5,99
    51fa:	0af68563          	beq	a3,a5,52a4 <_printf_i+0xfc>
    51fe:	06400793          	li	a5,100
    5202:	fef695e3          	bne	a3,a5,51ec <_printf_i+0x44>
    5206:	401c                	lw	a5,0(s0)
    5208:	4308                	lw	a0,0(a4)
    520a:	0807f693          	andi	a3,a5,128
    520e:	00450593          	addi	a1,a0,4
    5212:	c6c5                	beqz	a3,52ba <_printf_i+0x112>
    5214:	411c                	lw	a5,0(a0)
    5216:	c30c                	sw	a1,0(a4)
    5218:	0007d863          	bgez	a5,5228 <_printf_i+0x80>
    521c:	02d00713          	li	a4,45
    5220:	40f007b3          	neg	a5,a5
    5224:	04e401a3          	sb	a4,67(s0)
    5228:	00002697          	auipc	a3,0x2
    522c:	50468693          	addi	a3,a3,1284 # 772c <__sf_fake_stdout+0x34>
    5230:	4729                	li	a4,10
    5232:	a865                	j	52ea <_printf_i+0x142>
    5234:	07000793          	li	a5,112
    5238:	16f68263          	beq	a3,a5,539c <_printf_i+0x1f4>
    523c:	02d7e563          	bltu	a5,a3,5266 <_printf_i+0xbe>
    5240:	06e00793          	li	a5,110
    5244:	18f68963          	beq	a3,a5,53d6 <_printf_i+0x22e>
    5248:	06f00793          	li	a5,111
    524c:	faf690e3          	bne	a3,a5,51ec <_printf_i+0x44>
    5250:	400c                	lw	a1,0(s0)
    5252:	431c                	lw	a5,0(a4)
    5254:	0805f813          	andi	a6,a1,128
    5258:	00478513          	addi	a0,a5,4
    525c:	06080763          	beqz	a6,52ca <_printf_i+0x122>
    5260:	c308                	sw	a0,0(a4)
    5262:	439c                	lw	a5,0(a5)
    5264:	a885                	j	52d4 <_printf_i+0x12c>
    5266:	07500793          	li	a5,117
    526a:	fef683e3          	beq	a3,a5,5250 <_printf_i+0xa8>
    526e:	07800793          	li	a5,120
    5272:	12f68963          	beq	a3,a5,53a4 <_printf_i+0x1fc>
    5276:	07300793          	li	a5,115
    527a:	f6f699e3          	bne	a3,a5,51ec <_printf_i+0x44>
    527e:	431c                	lw	a5,0(a4)
    5280:	41d0                	lw	a2,4(a1)
    5282:	4581                	li	a1,0
    5284:	00478693          	addi	a3,a5,4
    5288:	c314                	sw	a3,0(a4)
    528a:	0007aa83          	lw	s5,0(a5)
    528e:	8556                	mv	a0,s5
    5290:	266d                	jal	563a <memchr>
    5292:	c501                	beqz	a0,529a <_printf_i+0xf2>
    5294:	41550533          	sub	a0,a0,s5
    5298:	c048                	sw	a0,4(s0)
    529a:	405c                	lw	a5,4(s0)
    529c:	c81c                	sw	a5,16(s0)
    529e:	040401a3          	sb	zero,67(s0)
    52a2:	a861                	j	533a <_printf_i+0x192>
    52a4:	431c                	lw	a5,0(a4)
    52a6:	04240a93          	addi	s5,s0,66
    52aa:	00478693          	addi	a3,a5,4
    52ae:	439c                	lw	a5,0(a5)
    52b0:	c314                	sw	a3,0(a4)
    52b2:	04f40123          	sb	a5,66(s0)
    52b6:	4785                	li	a5,1
    52b8:	b7d5                	j	529c <_printf_i+0xf4>
    52ba:	0407f693          	andi	a3,a5,64
    52be:	411c                	lw	a5,0(a0)
    52c0:	c30c                	sw	a1,0(a4)
    52c2:	dab9                	beqz	a3,5218 <_printf_i+0x70>
    52c4:	07c2                	slli	a5,a5,0x10
    52c6:	87c1                	srai	a5,a5,0x10
    52c8:	bf81                	j	5218 <_printf_i+0x70>
    52ca:	0405f593          	andi	a1,a1,64
    52ce:	c308                	sw	a0,0(a4)
    52d0:	d9c9                	beqz	a1,5262 <_printf_i+0xba>
    52d2:	239e                	lhu	a5,0(a5)
    52d4:	06f00713          	li	a4,111
    52d8:	0ee68763          	beq	a3,a4,53c6 <_printf_i+0x21e>
    52dc:	00002697          	auipc	a3,0x2
    52e0:	45068693          	addi	a3,a3,1104 # 772c <__sf_fake_stdout+0x34>
    52e4:	4729                	li	a4,10
    52e6:	040401a3          	sb	zero,67(s0)
    52ea:	404c                	lw	a1,4(s0)
    52ec:	c40c                	sw	a1,8(s0)
    52ee:	0005c563          	bltz	a1,52f8 <_printf_i+0x150>
    52f2:	4008                	lw	a0,0(s0)
    52f4:	996d                	andi	a0,a0,-5
    52f6:	c008                	sw	a0,0(s0)
    52f8:	e399                	bnez	a5,52fe <_printf_i+0x156>
    52fa:	8ab2                	mv	s5,a2
    52fc:	cd89                	beqz	a1,5316 <_printf_i+0x16e>
    52fe:	8ab2                	mv	s5,a2
    5300:	02e7f5b3          	remu	a1,a5,a4
    5304:	1afd                	addi	s5,s5,-1
    5306:	95b6                	add	a1,a1,a3
    5308:	218c                	lbu	a1,0(a1)
    530a:	00ba8023          	sb	a1,0(s5)
    530e:	02e7d5b3          	divu	a1,a5,a4
    5312:	0ce7f063          	bgeu	a5,a4,53d2 <_printf_i+0x22a>
    5316:	47a1                	li	a5,8
    5318:	00f71e63          	bne	a4,a5,5334 <_printf_i+0x18c>
    531c:	401c                	lw	a5,0(s0)
    531e:	8b85                	andi	a5,a5,1
    5320:	cb91                	beqz	a5,5334 <_printf_i+0x18c>
    5322:	4058                	lw	a4,4(s0)
    5324:	481c                	lw	a5,16(s0)
    5326:	00e7c763          	blt	a5,a4,5334 <_printf_i+0x18c>
    532a:	03000793          	li	a5,48
    532e:	fefa8fa3          	sb	a5,-1(s5)
    5332:	1afd                	addi	s5,s5,-1
    5334:	41560633          	sub	a2,a2,s5
    5338:	c810                	sw	a2,16(s0)
    533a:	874e                	mv	a4,s3
    533c:	86ca                	mv	a3,s2
    533e:	0070                	addi	a2,sp,12
    5340:	85a2                	mv	a1,s0
    5342:	8526                	mv	a0,s1
    5344:	d59ff0ef          	jal	ra,509c <_printf_common>
    5348:	5a7d                	li	s4,-1
    534a:	0b451d63          	bne	a0,s4,5404 <_printf_i+0x25c>
    534e:	557d                	li	a0,-1
    5350:	50b2                	lw	ra,44(sp)
    5352:	5422                	lw	s0,40(sp)
    5354:	5492                	lw	s1,36(sp)
    5356:	5902                	lw	s2,32(sp)
    5358:	49f2                	lw	s3,28(sp)
    535a:	4a62                	lw	s4,24(sp)
    535c:	4ad2                	lw	s5,20(sp)
    535e:	4b42                	lw	s6,16(sp)
    5360:	6145                	addi	sp,sp,48
    5362:	8082                	ret
    5364:	04d582a3          	sb	a3,69(a1)
    5368:	00002697          	auipc	a3,0x2
    536c:	3c468693          	addi	a3,a3,964 # 772c <__sf_fake_stdout+0x34>
    5370:	400c                	lw	a1,0(s0)
    5372:	4308                	lw	a0,0(a4)
    5374:	0805f813          	andi	a6,a1,128
    5378:	411c                	lw	a5,0(a0)
    537a:	0511                	addi	a0,a0,4
    537c:	02080d63          	beqz	a6,53b6 <_printf_i+0x20e>
    5380:	c308                	sw	a0,0(a4)
    5382:	0015f713          	andi	a4,a1,1
    5386:	c701                	beqz	a4,538e <_printf_i+0x1e6>
    5388:	0205e593          	ori	a1,a1,32
    538c:	c00c                	sw	a1,0(s0)
    538e:	4741                	li	a4,16
    5390:	fbb9                	bnez	a5,52e6 <_printf_i+0x13e>
    5392:	400c                	lw	a1,0(s0)
    5394:	fdf5f593          	andi	a1,a1,-33
    5398:	c00c                	sw	a1,0(s0)
    539a:	b7b1                	j	52e6 <_printf_i+0x13e>
    539c:	419c                	lw	a5,0(a1)
    539e:	0207e793          	ori	a5,a5,32
    53a2:	c19c                	sw	a5,0(a1)
    53a4:	07800793          	li	a5,120
    53a8:	04f402a3          	sb	a5,69(s0)
    53ac:	00002697          	auipc	a3,0x2
    53b0:	39468693          	addi	a3,a3,916 # 7740 <__sf_fake_stdout+0x48>
    53b4:	bf75                	j	5370 <_printf_i+0x1c8>
    53b6:	0405f813          	andi	a6,a1,64
    53ba:	c308                	sw	a0,0(a4)
    53bc:	fc0803e3          	beqz	a6,5382 <_printf_i+0x1da>
    53c0:	07c2                	slli	a5,a5,0x10
    53c2:	83c1                	srli	a5,a5,0x10
    53c4:	bf7d                	j	5382 <_printf_i+0x1da>
    53c6:	00002697          	auipc	a3,0x2
    53ca:	36668693          	addi	a3,a3,870 # 772c <__sf_fake_stdout+0x34>
    53ce:	4721                	li	a4,8
    53d0:	bf19                	j	52e6 <_printf_i+0x13e>
    53d2:	87ae                	mv	a5,a1
    53d4:	b735                	j	5300 <_printf_i+0x158>
    53d6:	4194                	lw	a3,0(a1)
    53d8:	431c                	lw	a5,0(a4)
    53da:	49cc                	lw	a1,20(a1)
    53dc:	0806f813          	andi	a6,a3,128
    53e0:	00478513          	addi	a0,a5,4
    53e4:	00080663          	beqz	a6,53f0 <_printf_i+0x248>
    53e8:	c308                	sw	a0,0(a4)
    53ea:	439c                	lw	a5,0(a5)
    53ec:	c38c                	sw	a1,0(a5)
    53ee:	a039                	j	53fc <_printf_i+0x254>
    53f0:	c308                	sw	a0,0(a4)
    53f2:	0406f693          	andi	a3,a3,64
    53f6:	439c                	lw	a5,0(a5)
    53f8:	daf5                	beqz	a3,53ec <_printf_i+0x244>
    53fa:	a38e                	sh	a1,0(a5)
    53fc:	00042823          	sw	zero,16(s0)
    5400:	8ab2                	mv	s5,a2
    5402:	bf25                	j	533a <_printf_i+0x192>
    5404:	4814                	lw	a3,16(s0)
    5406:	8656                	mv	a2,s5
    5408:	85ca                	mv	a1,s2
    540a:	8526                	mv	a0,s1
    540c:	9982                	jalr	s3
    540e:	f54500e3          	beq	a0,s4,534e <_printf_i+0x1a6>
    5412:	401c                	lw	a5,0(s0)
    5414:	8b89                	andi	a5,a5,2
    5416:	e78d                	bnez	a5,5440 <_printf_i+0x298>
    5418:	47b2                	lw	a5,12(sp)
    541a:	4448                	lw	a0,12(s0)
    541c:	f2f55ae3          	bge	a0,a5,5350 <_printf_i+0x1a8>
    5420:	853e                	mv	a0,a5
    5422:	b73d                	j	5350 <_printf_i+0x1a8>
    5424:	4685                	li	a3,1
    5426:	8656                	mv	a2,s5
    5428:	85ca                	mv	a1,s2
    542a:	8526                	mv	a0,s1
    542c:	9982                	jalr	s3
    542e:	f36500e3          	beq	a0,s6,534e <_printf_i+0x1a6>
    5432:	0a05                	addi	s4,s4,1
    5434:	445c                	lw	a5,12(s0)
    5436:	4732                	lw	a4,12(sp)
    5438:	8f99                	sub	a5,a5,a4
    543a:	fefa45e3          	blt	s4,a5,5424 <_printf_i+0x27c>
    543e:	bfe9                	j	5418 <_printf_i+0x270>
    5440:	4a01                	li	s4,0
    5442:	01940a93          	addi	s5,s0,25
    5446:	5b7d                	li	s6,-1
    5448:	b7f5                	j	5434 <_printf_i+0x28c>

0000544a <_sbrk_r>:
    544a:	1141                	addi	sp,sp,-16
    544c:	c422                	sw	s0,8(sp)
    544e:	842a                	mv	s0,a0
    5450:	852e                	mv	a0,a1
    5452:	1ffff797          	auipc	a5,0x1ffff
    5456:	8807af23          	sw	zero,-1890(a5) # 20003cf0 <errno>
    545a:	c606                	sw	ra,12(sp)
    545c:	efffe0ef          	jal	ra,435a <_sbrk>
    5460:	57fd                	li	a5,-1
    5462:	00f51963          	bne	a0,a5,5474 <_sbrk_r+0x2a>
    5466:	1ffff797          	auipc	a5,0x1ffff
    546a:	88a78793          	addi	a5,a5,-1910 # 20003cf0 <errno>
    546e:	439c                	lw	a5,0(a5)
    5470:	c391                	beqz	a5,5474 <_sbrk_r+0x2a>
    5472:	c01c                	sw	a5,0(s0)
    5474:	40b2                	lw	ra,12(sp)
    5476:	4422                	lw	s0,8(sp)
    5478:	0141                	addi	sp,sp,16
    547a:	8082                	ret

0000547c <__sread>:
    547c:	1141                	addi	sp,sp,-16
    547e:	c422                	sw	s0,8(sp)
    5480:	842e                	mv	s0,a1
    5482:	00e59583          	lh	a1,14(a1)
    5486:	c606                	sw	ra,12(sp)
    5488:	22f9                	jal	5656 <_read_r>
    548a:	00054963          	bltz	a0,549c <__sread+0x20>
    548e:	487c                	lw	a5,84(s0)
    5490:	97aa                	add	a5,a5,a0
    5492:	c87c                	sw	a5,84(s0)
    5494:	40b2                	lw	ra,12(sp)
    5496:	4422                	lw	s0,8(sp)
    5498:	0141                	addi	sp,sp,16
    549a:	8082                	ret
    549c:	245e                	lhu	a5,12(s0)
    549e:	777d                	lui	a4,0xfffff
    54a0:	177d                	addi	a4,a4,-1
    54a2:	8ff9                	and	a5,a5,a4
    54a4:	a45e                	sh	a5,12(s0)
    54a6:	b7fd                	j	5494 <__sread+0x18>

000054a8 <__swrite>:
    54a8:	25de                	lhu	a5,12(a1)
    54aa:	1101                	addi	sp,sp,-32
    54ac:	cc22                	sw	s0,24(sp)
    54ae:	ca26                	sw	s1,20(sp)
    54b0:	c84a                	sw	s2,16(sp)
    54b2:	c64e                	sw	s3,12(sp)
    54b4:	ce06                	sw	ra,28(sp)
    54b6:	1007f793          	andi	a5,a5,256
    54ba:	84aa                	mv	s1,a0
    54bc:	842e                	mv	s0,a1
    54be:	8932                	mv	s2,a2
    54c0:	89b6                	mv	s3,a3
    54c2:	c791                	beqz	a5,54ce <__swrite+0x26>
    54c4:	00e59583          	lh	a1,14(a1)
    54c8:	4689                	li	a3,2
    54ca:	4601                	li	a2,0
    54cc:	2a2d                	jal	5606 <_lseek_r>
    54ce:	245e                	lhu	a5,12(s0)
    54d0:	777d                	lui	a4,0xfffff
    54d2:	177d                	addi	a4,a4,-1
    54d4:	8ff9                	and	a5,a5,a4
    54d6:	a45e                	sh	a5,12(s0)
    54d8:	00e41583          	lh	a1,14(s0)
    54dc:	4462                	lw	s0,24(sp)
    54de:	40f2                	lw	ra,28(sp)
    54e0:	86ce                	mv	a3,s3
    54e2:	864a                	mv	a2,s2
    54e4:	49b2                	lw	s3,12(sp)
    54e6:	4942                	lw	s2,16(sp)
    54e8:	8526                	mv	a0,s1
    54ea:	44d2                	lw	s1,20(sp)
    54ec:	6105                	addi	sp,sp,32
    54ee:	a881                	j	553e <_write_r>

000054f0 <__sseek>:
    54f0:	1141                	addi	sp,sp,-16
    54f2:	c422                	sw	s0,8(sp)
    54f4:	842e                	mv	s0,a1
    54f6:	00e59583          	lh	a1,14(a1)
    54fa:	c606                	sw	ra,12(sp)
    54fc:	2229                	jal	5606 <_lseek_r>
    54fe:	57fd                	li	a5,-1
    5500:	245a                	lhu	a4,12(s0)
    5502:	00f51a63          	bne	a0,a5,5516 <__sseek+0x26>
    5506:	77fd                	lui	a5,0xfffff
    5508:	17fd                	addi	a5,a5,-1
    550a:	8ff9                	and	a5,a5,a4
    550c:	a45e                	sh	a5,12(s0)
    550e:	40b2                	lw	ra,12(sp)
    5510:	4422                	lw	s0,8(sp)
    5512:	0141                	addi	sp,sp,16
    5514:	8082                	ret
    5516:	6785                	lui	a5,0x1
    5518:	8fd9                	or	a5,a5,a4
    551a:	a45e                	sh	a5,12(s0)
    551c:	c868                	sw	a0,84(s0)
    551e:	bfc5                	j	550e <__sseek+0x1e>

00005520 <__sclose>:
    5520:	00e59583          	lh	a1,14(a1)
    5524:	a881                	j	5574 <_close_r>

00005526 <strchr>:
    5526:	0ff5f593          	andi	a1,a1,255
    552a:	211c                	lbu	a5,0(a0)
    552c:	c791                	beqz	a5,5538 <strchr+0x12>
    552e:	00b79363          	bne	a5,a1,5534 <strchr+0xe>
    5532:	8082                	ret
    5534:	0505                	addi	a0,a0,1
    5536:	bfd5                	j	552a <strchr+0x4>
    5538:	c191                	beqz	a1,553c <strchr+0x16>
    553a:	4501                	li	a0,0
    553c:	8082                	ret

0000553e <_write_r>:
    553e:	1141                	addi	sp,sp,-16
    5540:	c422                	sw	s0,8(sp)
    5542:	842a                	mv	s0,a0
    5544:	852e                	mv	a0,a1
    5546:	85b2                	mv	a1,a2
    5548:	8636                	mv	a2,a3
    554a:	1fffe797          	auipc	a5,0x1fffe
    554e:	7a07a323          	sw	zero,1958(a5) # 20003cf0 <errno>
    5552:	c606                	sw	ra,12(sp)
    5554:	dcdfe0ef          	jal	ra,4320 <_write>
    5558:	57fd                	li	a5,-1
    555a:	00f51963          	bne	a0,a5,556c <_write_r+0x2e>
    555e:	1fffe797          	auipc	a5,0x1fffe
    5562:	79278793          	addi	a5,a5,1938 # 20003cf0 <errno>
    5566:	439c                	lw	a5,0(a5)
    5568:	c391                	beqz	a5,556c <_write_r+0x2e>
    556a:	c01c                	sw	a5,0(s0)
    556c:	40b2                	lw	ra,12(sp)
    556e:	4422                	lw	s0,8(sp)
    5570:	0141                	addi	sp,sp,16
    5572:	8082                	ret

00005574 <_close_r>:
    5574:	1141                	addi	sp,sp,-16
    5576:	c422                	sw	s0,8(sp)
    5578:	842a                	mv	s0,a0
    557a:	852e                	mv	a0,a1
    557c:	1fffe797          	auipc	a5,0x1fffe
    5580:	7607aa23          	sw	zero,1908(a5) # 20003cf0 <errno>
    5584:	c606                	sw	ra,12(sp)
    5586:	2211                	jal	568a <_close>
    5588:	57fd                	li	a5,-1
    558a:	00f51963          	bne	a0,a5,559c <_close_r+0x28>
    558e:	1fffe797          	auipc	a5,0x1fffe
    5592:	76278793          	addi	a5,a5,1890 # 20003cf0 <errno>
    5596:	439c                	lw	a5,0(a5)
    5598:	c391                	beqz	a5,559c <_close_r+0x28>
    559a:	c01c                	sw	a5,0(s0)
    559c:	40b2                	lw	ra,12(sp)
    559e:	4422                	lw	s0,8(sp)
    55a0:	0141                	addi	sp,sp,16
    55a2:	8082                	ret

000055a4 <_fstat_r>:
    55a4:	1141                	addi	sp,sp,-16
    55a6:	c422                	sw	s0,8(sp)
    55a8:	842a                	mv	s0,a0
    55aa:	852e                	mv	a0,a1
    55ac:	85b2                	mv	a1,a2
    55ae:	1fffe797          	auipc	a5,0x1fffe
    55b2:	7407a123          	sw	zero,1858(a5) # 20003cf0 <errno>
    55b6:	c606                	sw	ra,12(sp)
    55b8:	20cd                	jal	569a <_fstat>
    55ba:	57fd                	li	a5,-1
    55bc:	00f51963          	bne	a0,a5,55ce <_fstat_r+0x2a>
    55c0:	1fffe797          	auipc	a5,0x1fffe
    55c4:	73078793          	addi	a5,a5,1840 # 20003cf0 <errno>
    55c8:	439c                	lw	a5,0(a5)
    55ca:	c391                	beqz	a5,55ce <_fstat_r+0x2a>
    55cc:	c01c                	sw	a5,0(s0)
    55ce:	40b2                	lw	ra,12(sp)
    55d0:	4422                	lw	s0,8(sp)
    55d2:	0141                	addi	sp,sp,16
    55d4:	8082                	ret

000055d6 <_isatty_r>:
    55d6:	1141                	addi	sp,sp,-16
    55d8:	c422                	sw	s0,8(sp)
    55da:	842a                	mv	s0,a0
    55dc:	852e                	mv	a0,a1
    55de:	1fffe797          	auipc	a5,0x1fffe
    55e2:	7007a923          	sw	zero,1810(a5) # 20003cf0 <errno>
    55e6:	c606                	sw	ra,12(sp)
    55e8:	20c9                	jal	56aa <_isatty>
    55ea:	57fd                	li	a5,-1
    55ec:	00f51963          	bne	a0,a5,55fe <_isatty_r+0x28>
    55f0:	1fffe797          	auipc	a5,0x1fffe
    55f4:	70078793          	addi	a5,a5,1792 # 20003cf0 <errno>
    55f8:	439c                	lw	a5,0(a5)
    55fa:	c391                	beqz	a5,55fe <_isatty_r+0x28>
    55fc:	c01c                	sw	a5,0(s0)
    55fe:	40b2                	lw	ra,12(sp)
    5600:	4422                	lw	s0,8(sp)
    5602:	0141                	addi	sp,sp,16
    5604:	8082                	ret

00005606 <_lseek_r>:
    5606:	1141                	addi	sp,sp,-16
    5608:	c422                	sw	s0,8(sp)
    560a:	842a                	mv	s0,a0
    560c:	852e                	mv	a0,a1
    560e:	85b2                	mv	a1,a2
    5610:	8636                	mv	a2,a3
    5612:	1fffe797          	auipc	a5,0x1fffe
    5616:	6c07af23          	sw	zero,1758(a5) # 20003cf0 <errno>
    561a:	c606                	sw	ra,12(sp)
    561c:	2879                	jal	56ba <_lseek>
    561e:	57fd                	li	a5,-1
    5620:	00f51963          	bne	a0,a5,5632 <_lseek_r+0x2c>
    5624:	1fffe797          	auipc	a5,0x1fffe
    5628:	6cc78793          	addi	a5,a5,1740 # 20003cf0 <errno>
    562c:	439c                	lw	a5,0(a5)
    562e:	c391                	beqz	a5,5632 <_lseek_r+0x2c>
    5630:	c01c                	sw	a5,0(s0)
    5632:	40b2                	lw	ra,12(sp)
    5634:	4422                	lw	s0,8(sp)
    5636:	0141                	addi	sp,sp,16
    5638:	8082                	ret

0000563a <memchr>:
    563a:	0ff5f593          	andi	a1,a1,255
    563e:	962a                	add	a2,a2,a0
    5640:	00c51463          	bne	a0,a2,5648 <memchr+0xe>
    5644:	4501                	li	a0,0
    5646:	8082                	ret
    5648:	211c                	lbu	a5,0(a0)
    564a:	feb78ee3          	beq	a5,a1,5646 <memchr+0xc>
    564e:	0505                	addi	a0,a0,1
    5650:	bfc5                	j	5640 <memchr+0x6>

00005652 <__malloc_lock>:
    5652:	8082                	ret

00005654 <__malloc_unlock>:
    5654:	8082                	ret

00005656 <_read_r>:
    5656:	1141                	addi	sp,sp,-16
    5658:	c422                	sw	s0,8(sp)
    565a:	842a                	mv	s0,a0
    565c:	852e                	mv	a0,a1
    565e:	85b2                	mv	a1,a2
    5660:	8636                	mv	a2,a3
    5662:	1fffe797          	auipc	a5,0x1fffe
    5666:	6807a723          	sw	zero,1678(a5) # 20003cf0 <errno>
    566a:	c606                	sw	ra,12(sp)
    566c:	28b9                	jal	56ca <_read>
    566e:	57fd                	li	a5,-1
    5670:	00f51963          	bne	a0,a5,5682 <_read_r+0x2c>
    5674:	1fffe797          	auipc	a5,0x1fffe
    5678:	67c78793          	addi	a5,a5,1660 # 20003cf0 <errno>
    567c:	439c                	lw	a5,0(a5)
    567e:	c391                	beqz	a5,5682 <_read_r+0x2c>
    5680:	c01c                	sw	a5,0(s0)
    5682:	40b2                	lw	ra,12(sp)
    5684:	4422                	lw	s0,8(sp)
    5686:	0141                	addi	sp,sp,16
    5688:	8082                	ret

0000568a <_close>:
    568a:	05800793          	li	a5,88
    568e:	1fffe717          	auipc	a4,0x1fffe
    5692:	66f72123          	sw	a5,1634(a4) # 20003cf0 <errno>
    5696:	557d                	li	a0,-1
    5698:	8082                	ret

0000569a <_fstat>:
    569a:	05800793          	li	a5,88
    569e:	1fffe717          	auipc	a4,0x1fffe
    56a2:	64f72923          	sw	a5,1618(a4) # 20003cf0 <errno>
    56a6:	557d                	li	a0,-1
    56a8:	8082                	ret

000056aa <_isatty>:
    56aa:	05800793          	li	a5,88
    56ae:	1fffe717          	auipc	a4,0x1fffe
    56b2:	64f72123          	sw	a5,1602(a4) # 20003cf0 <errno>
    56b6:	4501                	li	a0,0
    56b8:	8082                	ret

000056ba <_lseek>:
    56ba:	05800793          	li	a5,88
    56be:	1fffe717          	auipc	a4,0x1fffe
    56c2:	62f72923          	sw	a5,1586(a4) # 20003cf0 <errno>
    56c6:	557d                	li	a0,-1
    56c8:	8082                	ret

000056ca <_read>:
    56ca:	05800793          	li	a5,88
    56ce:	1fffe717          	auipc	a4,0x1fffe
    56d2:	62f72123          	sw	a5,1570(a4) # 20003cf0 <errno>
    56d6:	557d                	li	a0,-1
    56d8:	8082                	ret
	...

000056dc <cvt.1731>:
    56dc:	9a80 4145 418e 808f 4545 4945 4949 8f8e     ..EA.A..EEEIII..
    56ec:	9290 4f92 4f99 5555 9959 9b9a 9d9c 9f9e     ...O.OUUY.......
    56fc:	4941 554f a5a5 a7a6 a9a8 abaa adac afae     AIOU............
    570c:	b1b0 b3b2 b5b4 b7b6 b9b8 bbba bdbc bfbe     ................
    571c:	c1c0 c3c2 c5c4 c7c6 c9c8 cbca cdcc cfce     ................
    572c:	d1d0 d3d2 d5d4 d7d6 d9d8 dbda dddc dfde     ................
    573c:	e1e0 e3e2 e5e4 e7e6 e9e8 ebea edec efee     ................
    574c:	f1f0 f3f2 f5f4 f7f6 f9f8 fbfa fdfc fffe     ................
    575c:	0000 3f00 1b7d 3f44 d0d4 3e31 8fb2 3f70     ...?}.D?..1>..p?
    576c:	1c5c 3f7c 1d44 3eaf b3d7 3f5d 8dbb 3f24     \.|?D..>..]?..$?

0000577c <g_aa.6667>:
    577c:	84a8 3f5b b9d8 3f61 1add 3f73 ba81 3f7b     ..[?..a?..s?..{?
    578c:	da41 3f7e c8fd 3f7f f965 3f7f ff8d 3f7f     A.~?...?e..?...?
    579c:	b5fe 3f03 86da 3ef1 7302 3ea0 4774 3e3a     ...?...>.s.>tG:>
    57ac:	b01d 3dc1 cb86 3d27 a114 3c68 7b32 3b72     ...=..'=..h<2{r;

000057bc <g_expfrac.6455>:
    57bc:	0000 3080 44fd 3057 04f3 3035 37f0 3018     ...0.DW0..50.7.0

000057cc <g_hz.6403>:
    57cc:	ac44 0000 bb80 0000 7d00 0000               D........}..

000057d8 <g_linbits.6518>:
	...
    57e8:	0201 0403 0806 0d0a 0504 0706 0908 0d0b     ................

000057f8 <g_mdct_window.6762>:
    57f8:	c1a0 3f7f cf55 3f7d ee89 3f79 26cb 3f74     ...?U.}?..y?.&t?
    5808:	835e 3f6c 1324 3f63 e881 3f57 1934 3f4b     ^.l?$.c?..W?4.K?
    5818:	be35 3f3c aa3c 3d32 a8a8 3e05 a258 3e5d     5.<?<.2=...>X.]>
    5828:	f61c 3e99 ef15 3ec3 6a50 3eec 8c78 3f09     ...>...>Pj.>x..?
    5838:	d7ca 3f1b f37b 3f2c 0000 3f80 0000 3f80     ...?{.,?...?...?
    5848:	0000 3f80 0000 3f80 0000 3f80 0000 3f80     ...?...?...?...?
    5858:	cf55 3f7d 835e 3f6c 1934 3f4b 0000 0000     U.}?^.l?4.K?....
	...
    587c:	a8a8 3e05 ef15 3ec3 d7ca 3f1b               ...>...>...?

00005888 <g_mod.6478>:
    5888:	0505 0404 0505 0104 0304 0101 0605 0106     ................
    5898:	0404 0104 0304 0101                         ........

000058a0 <g_pan.6622>:
    58a0:	0000 0000 0000 3f80 658c 3e58 e69d 3f49     .......?.eX>..I?
    58b0:	67ae 3ebb 4c29 3f22 0000 3f00 0000 3f00     .g.>)L"?...?...?
    58c0:	4c29 3f22 67ae 3ebb e69d 3f49 658c 3e58     )L"?.g.>..I?.eX>
    58d0:	0000 3f80 0000 0000                         ...?....

000058d8 <g_pow43>:
    58d8:	0000 0000 0000 bf80 4517 c021 74ba c08a     .........E!..t..
    58e8:	2ff5 c0cb cc4f c108 718f c12e 3f90 c156     ./..O....q...?V.
    58f8:	0000 c180 c41b c195 5ad3 c1ac b5d3 c1c3     .........Z......
    5908:	c8ff c1db 89ef c1f4 f7cd c206 f904 c213     ................
    5918:	0000 0000 0000 3f80 4517 4021 74ba 408a     .......?.E!@.t.@
    5928:	2ff5 40cb cc4f 4108 718f 412e 3f90 4156     ./.@O..A.q.A.?VA
    5938:	0000 4180 c41b 4195 5ad3 41ac b5d3 41c3     ...A...A.Z.A...A
    5948:	c8ff 41db 89ef 41f4 f7cd 4206 f904 4213     ...A...A...B...B
    5958:	4518 4221 d8df 422e b181 423c cc6c 424a     .E!B...B..<Bl.JB
    5968:	2746 4259 bfe8 4267 9457 4276 d161 4282     F'YB..gBW.vBa..B
    5978:	74ba 428a 336d 4292 0cbf 429a 0000 42a2     .t.Bm3.B...B...B
    5988:	0c8a 42aa 31c3 42b2 6f17 42ba c3fe 42c2     ...B.1.B.o.B...B
    5998:	2ff5 42cb b280 42d3 4b2a 42dc f982 42e4     ./.B...B*K.B...B
    59a8:	bd20 42ed 959c 42f6 8298 42ff 41db 4304      ..B...B...B.A.C
    59b8:	cc4f 4308 607d 430d fe3d 4311 a568 4316     O..C}`.C=..Ch..C
    59c8:	55d8 431b 0f69 4320 d1f9 4324 9d65 4329     .U.Ci. C..$Ce.)C
    59d8:	718e 432e 4e55 4333 339a 4338 2142 433d     .q.CUN3C.38CB!=C
    59e8:	1730 4342 1549 4347 1b72 434c 2992 4351     0.BCI.GCr.LC.)QC
    59f8:	3f90 4356 5d54 435b 82c7 4360 afd1 4365     .?VCT][C..`C..eC
    5a08:	e45e 436a 2057 4370 63a8 4375 ae3c 437a     ^.jCW pC.cuC<.zC
    5a18:	0000 4380 ac70 4382 5c65 4385 0fd6 4388     ...Cp..Ce\.C...C
    5a28:	c6ba 438a 8108 438d 3eb7 4390 ffc0 4392     ...C...C.>.C...C
    5a38:	c41b 4395 8bbf 4398 56a5 439b 24c5 439e     ...C...C.V.C.$.C
    5a48:	f617 43a0 ca96 43a3 a239 43a6 7cfa 43a9     ...C...C9..C.|.C
    5a58:	5ad3 43ac 3bbb 43af 1fad 43b2 06a4 43b5     .Z.C.;.C...C...C
    5a68:	f097 43b7 dd82 43ba cd5e 43bd c025 43c0     ...C...C^..C%..C
    5a78:	b5d3 43c3 ae60 43c6 a9c8 43c9 a806 43cc     ...C`..C...C...C
    5a88:	a913 43cf acea 43d2 b388 43d5 bce5 43d8     ...C...C...C...C
    5a98:	c8ff 43db d7ce 43de e950 43e1 fd7f 43e4     ...C...CP..C...C
    5aa8:	1456 43e8 2dd2 43eb 49ed 43ee 68a2 43f1     V..C.-.C.I.C.h.C
    5ab8:	89ef 43f4 adcf 43f7 d43c 43fa fd34 43fd     ...C...C<..C4..C
    5ac8:	9459 4400 2b59 4402 c399 4403 5d15 4405     Y..DY+.D...D.].D
    5ad8:	f7cd 4406 93be 4408 30e6 440a cf45 440b     ...D...D.0.DE..D
    5ae8:	6ed7 440d 0f9c 440f b190 4410 54b4 4412     .n.D...D...D.T.D
    5af8:	f904 4413 9e80 4415 4526 4417 ecf3 4418     ...D...D&E.D...D
    5b08:	95e7 441a 4000 441c eb3c 441d 979a 441f     ...D.@.D<..D...D
    5b18:	4518 4421                                   .E!D

00005b1c <g_preamp.6493>:
    5b1c:	0101 0101 0202 0303 0203 0000               ............

00005b28 <g_scf_long.6420>:
    5b28:	0606 0606 0606 0a08 0e0c 1410 1c18 2620     .............. &
    5b38:	342e 443c 363a 0c00 0c0c 0c0c 100c 1814     .4<D:6..........
    5b48:	201c 3028 4038 5a4c 0202 0202 0002 0606     . (08@LZ........
    5b58:	0606 0606 0a08 0e0c 1410 1c18 2620 342e     ............ &.4
    5b68:	443c 363a 0600 0606 0606 0806 0c0a 100e     <D:6............
    5b78:	1612 201a 2e26 3e36 4c46 0024 0606 0606     ... &.6>FL$.....
    5b88:	0606 0a08 0e0c 1410 1c18 2620 342e 443c     .......... &.4<D
    5b98:	363a 0400 0404 0404 0604 0806 0a08 100c     :6..............
    5ba8:	1814 221c 322a 4c36 009e 0404 0404 0404     ..."*26L........
    5bb8:	0606 0806 0c0a 1210 1c16 2822 362e c036     .........."(.66.
    5bc8:	0400 0404 0404 0604 0806 0c0a 1410 1e18     ................
    5bd8:	2e26 4438 6654 001a                         &.8DTf..

00005be0 <g_scf_mixed.6422>:
    5be0:	0606 0606 0606 0606 0806 0808 0a0a 0c0a     ................
    5bf0:	0c0c 0e0e 120e 1212 1818 1e18 1e1e 2828     ..............((
    5c00:	1228 1212 0000 0000 0c0c 040c 0404 0808     (...............
    5c10:	0c08 0c0c 1010 1410 1414 1818 1c18 1c1c     ................
    5c20:	2424 0224 0202 0202 0202 0202 1a1a 001a     $$$.............
    5c30:	0606 0606 0606 0606 0606 0606 0808 0a08     ................
    5c40:	0a0a 0e0e 120e 1212 1a1a 201a 2020 2a2a     ...........   **
    5c50:	122a 1212 0000 0000 0606 0606 0606 0606     *...............
    5c60:	0806 0808 0a0a 0c0a 0c0c 0e0e 120e 1212     ................
    5c70:	1818 2018 2020 2c2c 0c2c 0c0c 0000 0000     ...   ,,,.......
    5c80:	0606 0606 0606 0606 0806 0808 0a0a 0c0a     ................
    5c90:	0c0c 0e0e 120e 1212 1818 1e18 1e1e 2828     ..............((
    5ca0:	1228 1212 0000 0000 0404 0404 0404 0606     (...............
    5cb0:	0404 0604 0606 0808 0a08 0a0a 0c0c 0e0c     ................
    5cc0:	0e0e 1212 1612 1616 1e1e 381e 3838 0000     ...........888..
    5cd0:	0404 0404 0404 0606 0404 0604 0606 0606     ................
    5ce0:	0a06 0a0a 0c0c 0e0c 0e0e 1010 1410 1414     ................
    5cf0:	1a1a 421a 4242 0000 0404 0404 0404 0606     ...BBB..........
    5d00:	0404 0604 0606 0808 0c08 0c0c 1010 1410     ................
    5d10:	1414 1a1a 221a 2222 2a2a 0c2a 0c0c 0000     ....."""***.....

00005d20 <g_scf_partitions.6467>:
    5d20:	0506 0505 0506 0505 0506 0307 0a0b 0000     ................
    5d30:	0707 0007 0606 0306 0808 0005 0908 0c06     ................
    5d40:	0906 0909 0906 060c 120f 0000 0f06 000c     ................
    5d50:	0c06 0609 1206 0009 0909 0c06 0909 0909     ................
    5d60:	0909 060c 1212 0000 0c0c 000c 090c 0609     ................
    5d70:	0c0f 0009                                   ....

00005d74 <g_scf_short.6421>:
    5d74:	0404 0404 0404 0404 0604 0606 0808 0a08     ................
    5d84:	0a0a 0c0c 0e0c 0e0e 1212 1812 1818 1e1e     ................
    5d94:	281e 2828 1212 0012 0808 0808 0808 0808     .(((............
    5da4:	0c08 0c0c 1010 1410 1414 1818 1c18 1c1c     ................
    5db4:	2424 0224 0202 0202 0202 0202 1a1a 001a     $$$.............
    5dc4:	0404 0404 0404 0404 0604 0606 0606 0806     ................
    5dd4:	0808 0a0a 0e0a 0e0e 1212 1a12 1a1a 2020     ..............  
    5de4:	2a20 2a2a 1212 0012 0404 0404 0404 0404      ***............
    5df4:	0604 0606 0808 0a08 0a0a 0c0c 0e0c 0e0e     ................
    5e04:	1212 1812 1818 2020 2c20 2c2c 0c0c 000c     ......   ,,,....
    5e14:	0404 0404 0404 0404 0604 0606 0808 0a08     ................
    5e24:	0a0a 0c0c 0e0c 0e0e 1212 1812 1818 1e1e     ................
    5e34:	281e 2828 1212 0012 0404 0404 0404 0404     .(((............
    5e44:	0404 0404 0606 0806 0808 0a0a 0c0a 0c0c     ................
    5e54:	0e0e 120e 1212 1616 1e16 1e1e 3838 0038     ............888.
    5e64:	0404 0404 0404 0404 0404 0404 0606 0606     ................
    5e74:	0606 0a0a 0c0a 0c0c 0e0e 100e 1010 1414     ................
    5e84:	1a14 1a1a 4242 0042 0404 0404 0404 0404     ....BBB.........
    5e94:	0404 0404 0606 0806 0808 0c0c 100c 1010     ................
    5ea4:	1414 1a14 1a1a 2222 2a22 2a2a 0c0c 000c     ......"""***....

00005eb4 <g_scfc_decode.6476>:
    5eb4:	0100 0302 050c 0706 0a09 0d0b 0f0e 1312     ................

00005ec4 <g_sec.6797>:
    5ec4:	0a46 4123 2785 3f00 9e8d 3f00 1642 405a     F.#A.'.?...?B.Z@
    5ed4:	668b 3f01 c278 3f05 b2af 4003 f45b 3f03     .f.?x..?...@[..?
    5ee4:	233f 3f11 f91b 3fbd f268 3f07 961d 3f25     ?#.?...?h..?..%?
    5ef4:	b035 3f95 9838 3f0d c480 3f49 fa3b 3f78     5..?8..?..I?;.x?
    5f04:	3b3a 3f15 c449 3f87 df9e 3f56 5c6e 3f1f     :;.?I..?..V?n\.?
    5f14:	7926 3fdc 99ee 3f3e c03d 3f2c 3c9c 40a3     &y.?..>?=.,?.<.@

00005f24 <g_twid3.6727>:
    5f24:	1934 3f4b 835e 3f6c cf55 3f7d d7ca 3f1b     4.K?^.l?U.}?...?
    5f34:	ef15 3ec3 a8a8 3e05                         ...>...>

00005f3c <g_twid9.6700>:
    5f3c:	be35 3f3c 1934 3f4b e881 3f57 1324 3f63     5.<?4.K?..W?$.c?
    5f4c:	835e 3f6c 26cb 3f74 ee89 3f79 cf55 3f7d     ^.l?.&t?..y?U.}?
    5f5c:	c1a0 3f7f f37b 3f2c d7ca 3f1b 8c78 3f09     ...?{.,?...?x..?
    5f6c:	6a50 3eec ef15 3ec3 f61c 3e99 a258 3e5d     Pj.>...>...>X.]>
    5f7c:	a8a8 3e05 aa3c 3d32                         ...><.2=

00005f84 <g_win.6851>:
    5f84:	0000 bf80 0000 41d0 0000 c1f8 0000 4350     .......A......PC
    5f94:	0000 435a 8000 43c8 c000 c401 f000 4500     ..ZC...C.......E
    5fa4:	0000 44fa a000 4595 6800 c5ac f000 45de     ...D...E.h.....E
    5fb4:	3800 45ba 3800 470b a800 c719 7800 4792     .8.E.8.G.....x.G
    5fc4:	0000 bf80 0000 41c0 0000 c20c 0000 434a     .......A......JC
    5fd4:	0000 435e 8000 43ad 4000 c411 0000 4502     ..^C...C.@.....E
    5fe4:	0000 44f4 4800 458a b800 c5b7 c000 45ee     ...D.H.E.......E
    5ff4:	4000 45a5 ff00 4703 d800 c720 3400 4792     .@.E...G.. ..4.G
    6004:	0000 bf80 0000 41a8 0000 c218 0000 4344     .......A......DC
    6014:	0000 4361 0000 4393 4000 c421 7000 4502     ..aC...C.@!..p.E
    6024:	a000 44ec f000 457d e800 c5c2 e000 45fc     ...D..}E.......E
    6034:	8800 458e 9600 46f9 fe00 c727 c300 4791     ...E...F..'....G
    6044:	0000 bf80 0000 4198 0000 c224 0000 433e     .......A..$...>C
    6054:	0000 4363 0000 4374 c000 c431 5000 4502     ..cC..tC..1..P.E
    6064:	c000 44e3 9000 4567 e800 c5cd b000 4604     ...D..gE.......F
    6074:	0000 456c 4000 46eb 1500 c72f 2480 4791     ..lE.@.F../..$.G
    6084:	0000 bf80 0000 4188 0000 c234 0000 4337     .......A..4...7C
    6094:	0000 4364 0000 4345 c000 c442 b000 4501     ..dC..EC..B....E
    60a4:	6000 44d9 7000 4551 b800 c5d8 2000 460a     .`.D.pQE..... .F
    60b4:	7000 4537 0200 46dd 1900 c736 5a00 4790     .p7E...F..6..Z.G
    60c4:	0000 bf80 0000 4180 0000 c244 0000 4330     .......A..D...0C
    60d4:	0000 4364 0000 4319 0000 c454 9000 4500     ..dC...C..T....E
    60e4:	8000 44cd c000 453b 3800 c5e3 cc00 460e     ...D..;E.8.....F
    60f4:	a000 44fe e400 46ce 0600 c73d 6380 478f     ...D...F..=..c.G
    6104:	0000 c000 0000 4160 0000 c254 0000 4329     ......`A..T...)C
    6114:	0000 4363 0000 42de c000 c465 0000 44fe     ..cC...B..e....D
    6124:	e000 44bf 7000 4526 6800 c5ed b400 4612     ...D.p&E.h.....F
    6134:	4000 4487 ec00 46c0 d900 c743 4180 478e     .@.D...F..C..A.G
    6144:	0000 c000 0000 4150 0000 c268 0000 4321     ......PA..h...!C
    6154:	0000 4360 0000 4290 c000 c477 2000 44fa     ..`C...B..w.. .D
    6164:	c000 44b0 a000 4511 3000 c5f7 e000 4615     ...D...E.0.....F
    6174:	0000 428c 2200 46b3 8d00 c74a f480 478c     ...B.".F..J....G
    6184:	0000 c000 0000 4130 0000 c27c 0000 431a     ......0A..|....C
    6194:	0000 435d 0000 4210 0000 c485 4000 44f5     ..]C...B.....@.D
    61a4:	0000 44a0 c000 44fa 4400 c600 5800 4618     ...D...D.D...X.F
    61b4:	8000 c479 8a00 46a5 1e00 c751 7e00 478b     ..y....F..Q..~.G
    61c4:	0000 c000 0000 4120 0000 c288 0000 4313     ...... A.......C
    61d4:	0000 4357 0000 4000 2000 c48e e000 44ef     ..WC...@. .....D
    61e4:	6000 448d 8000 44d3 ac00 c604 1c00 461a     .`.D...D.......F
    61f4:	a000 c504 2c00 4698 8a00 c757 df00 4789     .....,.F..W....G
    6204:	0000 c040 0000 4110 0000 c292 0000 430b     ..@....A.......C
    6214:	0000 4350 0000 c1e8 4000 c497 c000 44e9     ..PC.....@.....D
    6224:	8000 4472 8000 44ad cc00 c608 3c00 461b     ..rD...D.....<.F
    6234:	4000 c54e 0e00 468b ca00 c75d 1780 4788     .@N....F..]....G
    6244:	0000 c040 0000 4100 0000 c29e 0000 4304     ..@....A.......C
    6254:	0000 4348 0000 c264 6000 c4a0 2000 44e3     ..HC..d..`... .D
    6264:	8000 4446 e000 4488 9800 c60c b800 461b     ..FD...D.......F
    6274:	a800 c58d 6c00 467c dd00 c763 2a00 4786     .....l|F..c..*.G
    6284:	0000 c080 0000 40e0 0000 c2aa 0000 42fa     .......@.......B
    6294:	0000 433d 0000 c2a6 8000 c4a9 e000 44db     ..=C...........D
    62a4:	4000 4417 8000 444b 0c00 c610 9c00 461b     .@.D..KD.......F
    62b4:	d000 c5b5 5000 4663 be00 c769 1680 4784     .....PcF..i....G
    62c4:	0000 c080 0000 40e0 0000 c2b6 0000 42ea     .......@.......B
    62d4:	0000 4331 0000 c2d4 8000 c4b2 4000 44d4     ..1C.........@.D
    62e4:	0000 43c9 4000 4408 2000 c613 f000 461a     ...C.@.D. .....F
    62f4:	9000 c5df d000 464a 6900 c76f df00 4781     ......JF.io....G
    6304:	0000 c0a0 0000 40c0 0000 c2c2 0000 42de     .......@.......B
    6314:	0000 4323 0000 c2fe 4000 c4bb 4000 44cc     ..#C.....@...@.D
    6324:	0000 4339 0000 4390 c400 c615 b800 4619     ..9C...C.......F
    6334:	7000 c605 fc00 4632 dc00 c774 0a00 477f     .p....2F..t....G

00006344 <halfrate.6399>:
    6344:	0400 0c08 1410 1c18 2820 3830 4840 0050     ........ (08@HP.
    6354:	0804 100c 1814 201c 3028 4038 5048 1000     ....... (08@HP..
    6364:	1c18 2820 3830 4840 5850 7060 0080 1410     .. (08@HPX`p....
    6374:	1c18 2820 3830 5040 7060 a080 1000 1c18     .. (08@P`p......
    6384:	2820 3830 5040 7060 a080 00c0 2010 4030      (08@P`p..... 0@
    6394:	6050 8070 a090 c0b0 e0d0 0000 7953 7473     P`p.........Syst
    63a4:	6d65 6c43 3a6b 6425 0a0d 0000 6843 7069     emClk:%d....Chip
    63b4:	4449 253a 3830 0d78 000a 0000 6f43 766e     ID:%08x.....Conv
    63c4:	7265 6f73 2072 6164 2063 6170 6172 6720     ersor dac para g
    63d4:	7265 7261 7320 6e69 6c61 000d 6f4d 6e75     erar sinal..Moun
    63e4:	6974 676e 7620 6c6f 6d75 2e65 0d0a 0000     ting volume.....
    63f4:	7245 6f72 2031 4453 3a20 7525 0a0d 0000     Erro1 SD :%u....
    6404:	6144 6f64 2073 6f64 6320 7261 6174 206f     Dados do cartao 
    6414:	4453 0d0a 0000 0000 7245 6f72 2032 4453     SD......Erro2 SD
    6424:	3a20 7525 0a0d 0000 6552 6f74 6e72 2061      :%u....Retorna 
    6434:	6172 7a69 2520 2075 7325 0a0d 0000 0000     raiz %u %s......
    6444:	2020 3c20 6964 3e72 2020 7325 0a0d 0000        <dir>  %s....
    6454:	3825 756c 2020 7325 0a0d 0000 4d2e 3350     %8lu  %s.....MP3
    6464:	0000 0000 7250 636f 7365 6173 646e 3a6f     ....Processando:
    6474:	2520 0a73 0000 0000 6e49 6369 6169 646e      %s.....Iniciand
    6484:	206f 6564 6f63 6964 6966 6163 6163 2e6f     o decodificacao.
    6494:	2e2e 000d 6946 656c 7020 253a 2064 3a73     ....File p:%d s:
    64a4:	6425 2020 3a6e 6425 0d20 000a 7346 253d     %d  n:%d ...Fs=%
    64b4:	2c64 5320 3d52 6425 4820 2c7a 4320 253d     d, SR=%d Hz, C=%
    64c4:	2c64 5020 253d 2064 7962 6574 2c73 6220     d, P=%d bytes, b
    64d4:	2072 6425 6b20 7062 0d73 000a fd00 46ff     r %d kbps......F
    64e4:	ff00 c6ff 0000 4355 0000 41e8 8000 43e5     ......UC...A...C
    64f4:	a000 44fe 0800 45a1 7000 45cd 7100 4712     ...D...E.p.E.q.G
    6504:	8f00 4792 e000 44c3 0000 42d0 fc00 4617     ...G...D...B...F
    6514:	1300 477a dc00 c61b 0000 c234 0000 4312     ..zG......4....C
    6524:	0000 c0a0 0000 bf80 0000 3f80 04f3 3fb5     ...........?...?
    6534:	0000 4500 8e39 3e63 aaab 3faa 04f3 3f35     ...E9.c>...?..5?
    6544:	afaf 3e4b ef15 3ec3 81f7 3f02 8bd4 3f0a     ..K>...>...?...?
    6554:	f1bd 3f19 64d7 3f66 3d75 3fa7 06cf 4024     ...?.df?u=.?..$@

00006564 <tab32.6515>:
    6564:	a282 d1c1 1c2c 8c4c 0909 0909 0909 0909     ....,.L.........
    6574:	febe eede 5e7e 9d9d 3d6d cdad               ....~^..m=..

00006580 <tab33.6516>:
    6580:	ecfc ccdc acbc 8c9c 6c7c 4c5c 2c3c 0c1c     ........|l\L<,..

00006590 <tabindex.6517>:
    6590:	0000 0020 0040 0062 0000 0084 00b4 00da     .. .@.b.........
    65a0:	0124 016c 01aa 021a 0288 02ea 0000 0466     $.l...........f.
    65b0:	05b4 05b4 05b4 05b4 05b4 05b4 05b4 05b4     ................
    65c0:	0732 0732 0732 0732 0732 0732 0732 0732     2.2.2.2.2.2.2.2.

000065d0 <tabs.6514>:
	...
    6610:	0311 0311 0311 0311 0310 0310 0310 0310     ................
    6620:	0201 0201 0201 0201 0201 0201 0201 0201     ................
    6630:	0100 0100 0100 0100 0100 0100 0100 0100     ................
    6640:	0100 0100 0100 0100 0100 0100 0100 0100     ................
    6650:	ff01 0521 0512 0502 0311 0311 0311 0311     ..!.............
    6660:	0310 0310 0310 0310 0301 0301 0301 0301     ................
    6670:	0100 0100 0100 0100 0100 0100 0100 0100     ................
    6680:	0100 0100 0100 0100 0100 0100 0100 0100     ................
    6690:	0122 0120 ff01 0521 0512 0502 0301 0301     ". ...!.........
    66a0:	0301 0301 0211 0211 0211 0211 0211 0211     ................
    66b0:	0211 0211 0210 0210 0210 0210 0210 0210     ................
    66c0:	0210 0210 0200 0200 0200 0200 0200 0200     ................
    66d0:	0200 0200 0122 0120 ff03 fec2 fea1 fe91     ....". .........
    66e0:	0311 0311 0311 0311 0310 0310 0310 0310     ................
    66f0:	0301 0301 0301 0301 0100 0100 0100 0100     ................
    6700:	0100 0100 0100 0100 0100 0100 0100 0100     ................
    6710:	0100 0100 0100 0100 0333 0332 0223 0223     ........3.2.#.#.
    6720:	0113 0113 0113 0113 0231 0230 0203 0222     ........1.0...".
    6730:	0121 0112 0120 0102 ff02 fee1 0531 0513     !... .......1...
    6740:	0522 0520 0421 0421 0412 0412 0402 0402     ". .!.!.........
    6750:	0310 0310 0310 0310 0211 0211 0211 0211     ................
    6760:	0211 0211 0211 0211 0301 0301 0301 0301     ................
    6770:	0300 0300 0300 0300 0233 0230 0132 0132     ........3.0.2.2.
    6780:	0123 0103 ff04 fe63 fe23 fde2 0512 fdc1     #.....c.#.......
    6790:	0411 0411 0310 0310 0310 0310 0301 0301     ................
    67a0:	0301 0301 0100 0100 0100 0100 0100 0100     ................
    67b0:	0100 0100 0100 0100 0100 0100 0100 0100     ................
    67c0:	0100 0100 fe81 fe71 0453 0444 0452 0425     ......q.S.D.R.%.
    67d0:	0351 0351 0315 0315 0450 0443 0305 0305     Q.Q.....P.C.....
    67e0:	0434 0433 0155 0154 0145 0135 0342 0324     4.3.U.T.E.5.B.$.
    67f0:	0241 0241 0214 0214 0204 0204 0340 0332     A.A.........@.2.
    6800:	0323 0330 0231 0231 0213 0213 0203 0222     #.0.1.1.......".
    6810:	0121 0121 0120 0102 ff04 fe53 fe13 fdd1     !.!. .....S.....
    6820:	0421 0421 0412 0412 0211 0211 0211 0211     !.!.............
    6830:	0211 0211 0211 0211 0310 0310 0310 0310     ................
    6840:	0301 0301 0301 0301 0200 0200 0200 0200     ................
    6850:	0200 0200 0200 0200 fe82 0435 fe61 0452     ..........5.a.R.
    6860:	0425 0450 0351 0351 0315 0315 0443 0434     %.P.Q.Q.....C.4.
    6870:	0405 0433 0342 0342 0255 0245 0154 0154     ..3.B.B.U.E.T.T.
    6880:	0153 0144 0324 0341 0214 0214 0340 0304     S.D.$.A.....@...
    6890:	0332 0323 0331 0313 0330 0303 0122 0122     2.#.1...0...".".
    68a0:	0122 0122 0120 0102 ff03 fea3 fe62 fe41     ".". .......b.A.
    68b0:	fe31 0531 0513 fe21 0522 0520 0421 0421     1.1...!.". .!.!.
    68c0:	0412 0412 0402 0402 0311 0311 0311 0311     ................
    68d0:	0310 0310 0310 0310 0301 0301 0301 0301     ................
    68e0:	0300 0300 0300 0300 fec1 0353 0335 feb1     ..........S.5...
    68f0:	0344 0352 0325 0351 0155 0154 0145 0150     D.R.%.Q.U.T.E.P.
    6900:	0215 0215 0243 0243 0234 0234 0305 0340     ....C.C.4.4...@.
    6910:	0242 0224 0233 0204 0141 0114 0132 0123     B.$.3...A...2.#.
    6920:	0130 0103 ff05 fdc4 fd23 fcc2 fca1 fc91     0.......#.......
    6930:	0411 0411 0310 0310 0310 0310 0301 0301     ................
    6940:	0301 0301 0100 0100 0100 0100 0100 0100     ................
    6950:	0100 0100 0100 0100 0100 0100 0100 0100     ................
    6960:	0100 0100 fe01 fdf1 fde1 0574 0547 0565     ..........t.G.e.
    6970:	0556 0573 0537 0564 fdd1 0536 0472 0472     V.s.7.d...6.r.r.
    6980:	0427 0427 0546 0570 0407 0407 0426 0426     '.'.F.p.....&.&.
    6990:	0554 0553 0460 0460 0535 0544 0371 0371     T.S.`.`.5.D.q.q.
    69a0:	0371 0371 0177 0176 0167 0175 0157 0166     q.q.w.v.g.u.W.f.
    69b0:	0155 0145 0317 0317 0463 0462 fd41 0451     U.E.....c.b.A.Q.
    69c0:	0415 fd31 0361 0361 0316 0316 0306 0306     ..1.a.a.........
    69d0:	0450 0405 0152 0125 0143 0134 fce1 fcd1     P...R.%.C.4.....
    69e0:	0341 0314 0304 0332 0323 0330 0142 0124     A.....2.#.0.B.$.
    69f0:	0133 0140 0231 0213 0203 0222 0121 0112     3.@.1.....".!...
    6a00:	0120 0102 ff05 fdf3 fda3 fd53 fd03 fcc1      .........S.....
    6a10:	fcb2 0512 0421 0421 0520 0502 0311 0311     ....!.!. .......
    6a20:	0311 0311 0310 0310 0310 0310 0301 0301     ................
    6a30:	0301 0301 0200 0200 0200 0200 0200 0200     ................
    6a40:	0200 0200 0577 0576 0567 0557 0566 0574     ....w.v.g.W.f.t.
    6a50:	0547 fe01 0565 0556 0473 0473 0437 0437     G...e.V.s.s.7.7.
    6a60:	0464 0464 0554 0545 0553 0535 0372 0372     d.d.T.E.S.5.r.r.
    6a70:	0372 0372 0327 0327 0327 0327 0446 0446     r.r.'.'.'.'.F.F.
    6a80:	0470 0470 0175 0155 0217 0217 0371 0307     p.p.u.U.....q...
    6a90:	0363 0336 0306 fdb1 0144 0152 fd61 0351     c.6.....D.R.a.Q.
    6aa0:	0226 0226 0362 0360 0261 0261 0125 0150     &.&.b.`.a.a.%.P.
    6ab0:	0216 0216 0315 0343 0305 fd11 0342 0324     ......C.....B.$.
    6ac0:	0134 0133 0341 0314 0340 0304 0232 0232     4.3.A...@...2.2.
    6ad0:	0223 0223 0131 0113 0230 0203 0122 0122     #.#.1...0...".".
    6ae0:	ff04 fe73 fe23 fdd3 fd92 fd73 fd31 fd21     ..s.#.....s.1.!.
    6af0:	fd12 0531 0513 0522 0421 0421 0412 0412     ..1...".!.!.....
    6b00:	0520 0502 0400 0400 0311 0311 0311 0311      ...............
    6b10:	0310 0310 0310 0310 0301 0301 0301 0301     ................
    6b20:	fe81 0467 0475 0457 0466 0474 0447 0456     ..g.u.W.f.t.G.V.
    6b30:	0365 0365 0373 0373 0437 0455 0372 0372     e.e.s.s.7.U.r.r.
    6b40:	0177 0176 0327 0364 0346 0371 0317 fe31     w.v.'.d.F.q...1.
    6b50:	0363 0336 0170 0107 0354 0345 0344 fde1     c.6.p...T.E.D...
    6b60:	0262 0262 0226 0226 0160 0150 0216 0216     b.b.&.&.`.P.....
    6b70:	0361 0306 0353 0335 0352 0325 0251 0215     a...S.5.R.%.Q...
    6b80:	0243 0234 0305 0340 0242 0242 0224 0224     C.4...@.B.B.$.$.
    6b90:	0241 0241 0133 0114 0132 0123 0204 0230     A.A.3...2.#...0.
    6ba0:	0103 0103 ff06 f7c5 f635 f534 f4a3 f462     ........5.4...b.
    6bb0:	f441 f431 0411 0411 0410 0410 0301 0301     A.1.............
    6bc0:	0301 0301 0100 0100 0100 0100 0100 0100     ................
    6bd0:	0100 0100 0100 0100 0100 0100 0100 0100     ................
    6be0:	0100 0100 fd01 fbe4 fb43 fb03 fab2 fa83     ........C.......
    6bf0:	fa43 fa01 f9f2 f9d2 f9b2 f991 f982 f962     C.............b.
    6c00:	f942 f921 f912 f8f1 f8e2 f8c2 f8a2 061d     B.!.............
    6c10:	f881 f871 f861 f851 06c3 06c2 062c 06b5     ..q.a.Q.....,...
    6c20:	f841 06c1 061c f831 060c f821 f811 06b3     A.....1...!.....
    6c30:	063b f801 06b2 f7f1 064a f7e1 0649 f7d1     ;.......J...I...
    6c40:	052b 052b 05b1 05b1 051b 051b 06b0 060b     +.+.............
    6c50:	0669 06a4 06a3 063a 0695 0659 05a2 05a2     i.....:...Y.....
    6c60:	052a 052a fcf4 fc33 fc72 04ff 04fe 04fd     *.*...3.r.......
    6c70:	04ee 04fc 04ed 04fb 04bf 04ec 04cd fc41     ..............A.
    6c80:	03ce 03ce 03dd 03dd fc51 02df 01de 01de     ........Q.......
    6c90:	01ef 01cf 01fa 019e fbf1 03eb 03be 03f9     ................
    6ca0:	039f 03ae 03db 03bd 01af 01dc 04f8 048f     ................
    6cb0:	04cc fb61 04e8 fb51 037f 037f 03ad 03ad     ..a...Q.........
    6cc0:	04da 04cb 04bc 046f 03f6 03f6 01ea 01e9     ......o.........
    6cd0:	01f7 01e7 038e 03f5 03d9 039d 035f 037e     ............_.~.
    6ce0:	03ca 03bb 03f4 034f fac1 033f 02f3 02f3     ......O...?.....
    6cf0:	03d8 038d 01ac 016e 02f2 022f fa91 02f0     ......n.../.....
    6d00:	01e6 01c9 039c 03e5 02ba 02ba 03d7 037d     ..............}.
    6d10:	02e4 02e4 038c 036d 02e3 02e3 029b 029b     ......m.........
    6d20:	03b9 03aa 01f1 011f 010f 010f 02ab 025e     ..............^.
    6d30:	024e 02c8 02d6 023e 012e 012e 02e2 02e0     N.....>.........
    6d40:	01e1 011e 020e 02d5 025d 02c7 027c 02d4     ........]...|...
    6d50:	02b8 028b 024d 02a9 029a 02c6 016c 01d3     ....M.......l...
    6d60:	023d 02b7 01d2 01d2 012d 01d1 017b 017b     =.......-...{.{.
    6d70:	02c5 025c 0299 02a7 013c 013c 027a 0279     ..\.....<.<.z.y.
    6d80:	01b4 01b4 01d0 010d 01a8 018a 01c4 014c     ..............L.
    6d90:	01b6 016b 015b 0198 0189 01c0 014b 01a6     ..k.[.......K...
    6da0:	016a 0197 0188 01a5 015a 0196 0187 0178     j.......Z.....x.
    6db0:	0177 0167 05a1 051a f6c1 050a f6b1 0539     w.g...........9.
    6dc0:	f6a1 f691 0592 0529 f681 0583 0538 f671     ......).....8.q.
    6dd0:	f661 f651 0491 0491 0419 0419 0590 0509     a.Q.............
    6de0:	0584 0548 0527 f641 0482 0482 0428 0428     ..H.'.A.....(.(.
    6df0:	0481 0481 01a0 0186 0168 0194 0193 0185     ........h.......
    6e00:	0158 0176 0175 0157 0166 0174 0147 0165     X.v.u.W.f.t.G.e.
    6e10:	0156 0137 0164 0146 0573 0572 0471 0471     V.7.d.F.s.r.q.q.
    6e20:	0417 0417 0555 0570 0507 0563 0536 0554     ....U.p...c.6.T.
    6e30:	0545 0562 0526 0553 0318 0318 0318 0318     E.b.&.S.........
    6e40:	0480 0480 0408 0408 0461 0461 0416 0416     ........a.a.....
    6e50:	0460 0460 0406 0406 f4b1 0452 0425 0450     `.`.......R.%.P.
    6e60:	0351 0351 0315 0315 0443 0434 0405 0442     Q.Q.....C.4...B.
    6e70:	0424 0433 0341 0341 0135 0144 0214 0214     $.3.A.A.5.D.....
    6e80:	0340 0304 0332 0323 0231 0231 0213 0230     @...2.#.1.1...0.
    6e90:	0203 0222 0121 0112 0120 0102 ff06 fb65     ..".!... .....e.
    6ea0:	f9d5 f8d4 f834 f7b4 f733 f6e3 f693 f653     ....4...3.....S.
    6eb0:	f612 f5f2 f5d1 f5c2 f5a1 0522 0521 0512     ..........".!...
    6ec0:	0520 0502 0311 0311 0311 0311 0410 0410      ...............
    6ed0:	0401 0401 0300 0300 0300 0300 fd02 fce2     ................
    6ee0:	fcc2 fca2 fc81 fc71 fc61 fc51 fc41 fc31     ......q.a.Q.A.1.
    6ef0:	fc21 fc11 fc01 fbf1 fbe1 fbd2 06bc 066f     !.............o.
    6f00:	fbb1 fba1 065f 06e7 067e 06ca 06ac 06bb     ...._...~.......
    6f10:	fb91 06f4 064f 06f3 063f 068d 066e 06f2     ....O...?...n...
    6f20:	062f fb81 06f1 061f 06c9 069c 06e5 06ba     /...............
    6f30:	06ab 065e 06d7 067d 06e4 064e 06c8 068c     ..^...}...N.....
    6f40:	06e3 06d6 066d 063e 06b9 069b 06e2 06aa     ....m.>.........
    6f50:	062e 06e1 061e fb71 06d5 065d 02ff 02fe     ......q...].....
    6f60:	02ef 02fd 01ee 01ee 02df 02fc 02cf 02ed     ................
    6f70:	02de 02fb 01bf 01bf 02ec 02ce 01dd 01fa     ................
    6f80:	01af 01eb 01be 01dc 01cd 01f9 019f 01ae     ................
    6f90:	01db 01bd 01f8 018f 01cc 01e9 019e 01f7     ................
    6fa0:	017f 01da 01ad 01cb 01f6 01f6 02ea 02f0     ................
    6fb0:	01e8 018e 01f5 01d9 019d 01d8 01e6 010f     ................
    6fc0:	01e0 010e fa61 fa51 054d fa41 fa31 fa21     ....a.Q.M.A.1.!.
    6fd0:	053d 052d fa11 05d1 05b7 057b 051d fa01     =.-.......{.....
    6fe0:	055c 05a8 058a 05c4 054c 05b6 056b f9f1     \.......L...k...
    6ff0:	05c3 053c 05a7 057a 056a f9e1 042c 042c     ..<...z.j...,.,.
    7000:	05c2 05b5 01c7 017c 01d4 01b8 018b 01a9     ......|.........
    7010:	019a 01c6 016c 01d3 01d2 01d0 01c5 010d     ....l...........
    7020:	0199 01c0 010c 01b0 055b 05c1 0598 0589     ........[.......
    7030:	051c 05b4 054b 05a6 05b3 0597 043b 043b     ....K.......;.;.
    7040:	0579 0588 05b2 05a5 042b 042b 055a 05b1     y.......+.+.Z...
    7050:	041b 041b 050b 0596 0569 05a4 054a 0587     ........i...J...
    7060:	0578 05a3 043a 043a 0495 0459 04a2 042a     x...:.:...Y...*.
    7070:	04a1 041a f851 0486 0468 0494 0449 0493     ....Q...h...I...
    7080:	0439 f841 0485 0458 01a0 010a 0177 0190     9.A...X.....w...
    7090:	0492 0476 0467 0429 0319 0319 0491 0409     ..v.g.).........
    70a0:	0484 0448 0475 0457 0483 0438 0466 0474     ..H.u.W...8.f.t.
    70b0:	0382 0382 0328 0328 0381 0381 0318 0318     ....(.(.........
    70c0:	0447 0480 0408 0465 0456 0473 0437 0464     G.....e.V.s.7.d.
    70d0:	0372 0327 0346 0371 0355 0317 f6f1 0363     r.'.F.q.U.....c.
    70e0:	0170 0107 0336 0354 0345 0362 0326 0361     p...6.T.E.b.&.a.
    70f0:	f6a1 0353 0160 0106 0216 0216 0335 0344     ..S.`.......5.D.
    7100:	0252 0252 0225 0225 0251 0251 0215 0215     R.R.%.%.Q.Q.....
    7110:	0350 0305 0243 0243 0234 0242 0224 0233     P...C.C.4.B.$.3.
    7120:	0114 0114 0241 0240 0132 0123 0204 0230     ....A.@.2.#...0.
    7130:	0131 0131 0113 0103 ff05 fc84 f7f6 f5c4     1.1.............
    7140:	f4f4 f473 f431 f421 0411 0411 0410 0410     ..s.1.!.........
    7150:	0301 0301 0301 0301 0100 0100 0100 0100     ................
    7160:	0100 0100 0100 0100 0100 0100 0100 0100     ................
    7170:	0100 0100 0100 0100 fe01 fdf1 fde1 fdd1     ................
    7180:	05fa fdc1 fdb1 05f8 05f7 057f 05f6 056f     ..............o.
    7190:	03ff 03ff 03ff 03ff 05f5 055f 04f4 04f4     .........._.....
    71a0:	044f 044f 043f 043f 040f 040f 05f3 fda4     O.O.?.?.........
    71b0:	032f 032f 032f 032f 01fe 01ef 01fd 01df     /./././.........
    71c0:	01fc 01cf 01fb 01bf 01af 01f9 019f 018f     ................
    71d0:	fd22 fcf2 04ee fcd1 04eb 04dc fcc1 04ea     "...............
    71e0:	04cc fcb1 fca1 04ac fc91 04e5 03db 03db     ................
    71f0:	02ec fd01 01ed 01ed 01ce 01dd 019e 019e     ................
    7200:	02ae 029d 01de 01be 01cd 01bd 01da 01ad     ................
    7210:	01e7 01ca 019c 01d7 04f2 04f0 03f1 03f1     ................
    7220:	031f 031f fc05 fb04 fa54 f9d3 f973 f923     ........T...s.#.
    7230:	f8e3 f8a2 f873 f833 04e9 04e9 05cb 05bc     ....s.3.........
    7240:	05e8 058e 05d9 057e 05bb 05d8 058d 05e6     ......~.........
    7250:	046e 046e 04c9 04c9 05ba 05ab 055e 057d     n.n.........^.}.
    7260:	04e4 04e4 054e 05c8 048c 048c 04e3 04e3     ....N...........
    7270:	04d6 04d6 056d 05b9 fa81 041e 044d fa71     ....m.......M.q.
    7280:	04b7 fa61 033e 033e 04e0 040e 04d5 045d     ..a.>.>.......].
    7290:	04c7 047c 04d4 04b8 019b 01aa 018b 019a     ..|.............
    72a0:	017b 010d 04a9 04c6 046c 04d3 04c5 045c     {.......l.....\.
    72b0:	03d0 03d0 04a8 048a 0499 04c4 046b 04a7     ............k...
    72c0:	03c3 03c3 f991 03c1 030c f981 022e 022e     ................
    72d0:	03e2 03e1 01b5 0198 0189 0197 033d 03d2     ............=...
    72e0:	032d 031d 03b3 f931 02d1 02d1 0179 0188     -.....1.....y...
    72f0:	034c 03b6 033c 037a 02c2 02c2 032c 035b     L...<.z.....,.[.
    7300:	031c 03c0 03b4 034b 03a6 036a 023b 023b     ......K...j.;.;.
    7310:	f881 02b2 022b 02b1 01a5 015a 021b 021b     ....+.....Z.....
    7320:	03b0 030b 0396 0369 03a4 034a 0387 0378     ......i...J...x.
    7330:	023a 023a 03a3 0395 02a2 02a2 f5f1 061a     :.:.............
    7340:	f5e1 0649 f5d1 0676 052a 052a 05a1 05a1     ..I...v.*.*.....
    7350:	06a0 060a 0693 0639 0685 0658 0592 0592     ......9...X.....
    7360:	0529 0529 0667 0690 0591 0591 0519 0519     ).).g...........
    7370:	0609 0684 0648 0657 0683 0638 0666 0682     ....H.W...8.f...
    7380:	0528 0528 0674 0647 0581 0581 0518 0518     (.(.t.G.........
    7390:	0508 0508 0680 0665 0573 0573 0537 0537     ......e.s.s.7.7.
    73a0:	0656 0664 0572 0572 0527 0527 0646 0655     V.d.r.r.'.'.F.U.
    73b0:	0570 0570 0471 0471 0471 0471 0159 0186     p.p.q.q.q.q.Y...
    73c0:	0168 0177 0194 0175 0417 f541 f531 f521     h.w...u...A.1.!.
    73d0:	0426 0461 0416 f511 0435 f501 0452 0425     &.a.....5...R.%.
    73e0:	0315 0315 0451 0450 0107 0163 0136 0154     ....Q.P...c.6.T.
    73f0:	0145 0162 0160 0106 0153 0144 0443 0434     E.b.`...S.D.C.4.
    7400:	0405 0442 0424 0433 0341 0341 0314 0314     ..B.$.3.A.A.....
    7410:	0440 0404 0332 0332 0323 0323 0231 0231     @...2.2.#.#.1.1.
    7420:	0213 0213 0330 0303 0222 0222 0121 0112     ....0...".".!...
    7430:	0120 0102 ff03 fec3 fe83 fe42 fe22 fe03      .........B."...
    7440:	04ff 04ff fcd5 fb65 fa55 f924 f894 f814     ......e.U.$.....
    7450:	f773 f733 f6e3 f692 f673 f631 f622 0521     s.3.....s.1.".!.
    7460:	0512 f601 0411 0411 0410 0410 0401 0401     ................
    7470:	0400 0400 03fe 03ef 03fd 03df 03fc 03cf     ................
    7480:	03fb 03bf 02af 02af 03fa 03f9 029f 029f     ................
    7490:	028f 028f 03f8 03f7 027f 027f 02f6 02f6     ................
    74a0:	026f 026f 02f5 025f 02f4 024f 02f3 023f     o.o..._...O...?.
    74b0:	02f2 022f 021f 021f 03f1 030f fdc1 fd93     ../.............
    74c0:	fd53 fd13 01f0 fdb2 02ee 02ed 02de 02ec     S...............
    74d0:	03ce 03dd 03eb 03be 03dc 03cd 03ea 03ae     ................
    74e0:	03db 03bd 03cc 03e9 039e 03da 03ad 03cb     ................
    74f0:	03bc 03e8 038e 03d9 039d 03e7 037e 03ca     ............~...
    7500:	fbd1 fbc1 fbb2 056e fb91 059c 05e5 05ab     ......n.........
    7510:	055e fb81 057d 054e 05c8 058c fb71 05e3     ^...}.N.....q...
    7520:	05d6 056d 053e 05b9 059b 05aa 052e 05e1     ..m.>...........
    7530:	051e 05d5 055d 05c7 057c 05d4 05b8 058b     ....]...|.......
    7540:	01ac 01bb 01d8 018d 02e0 020e 01d0 01d0     ................
    7550:	01e6 01c9 01ba 01d7 01e4 01e2 054d 05a9     ............M...
    7560:	059a 05c6 056c 05d3 053d 05d2 052d 05d1     ....l...=...-...
    7570:	05b7 057b 051d 05c5 055c 05a8 058a 0599     ..{.....\.......
    7580:	05c4 054c 05b6 056b fa61 05c3 053c 05a7     ..L...k.a...<...
    7590:	057a 05c2 052c 05b5 055b 05c1 010d 01c0     z...,...[.......
    75a0:	0598 0589 051c 05b4 f951 05b3 f941 05a1     ........Q...A...
    75b0:	044b 044b 05a6 056a 0597 0579 f931 0509     K.K...j...y.1...
    75c0:	043b 043b 0488 0488 05b2 05a5 042b 042b     ;.;.........+.+.
    75d0:	055a 05b1 051b 0596 0469 0469 044a 044a     Z.......i.i.J.J.
    75e0:	010c 01b0 010b 01a0 010a 0190 f8a1 0478     ..............x.
    75f0:	04a3 043a 0495 0459 04a2 042a 041a 0486     ..:...Y...*.....
    7600:	0468 0477 0494 0449 0493 0439 01a4 0187     h.w...I...9.....
    7610:	0485 0458 0492 0476 0467 0429 0491 0419     ..X...v.g.).....
    7620:	0484 0448 0475 0457 0483 0438 0466 0482     ..H.u.W...8.f...
    7630:	0428 0481 0474 0447 0418 f791 0465 0456     (...t.G.....e.V.
    7640:	0471 f781 0337 0337 0473 0472 0327 0327     q...7.7.s.r.'.'.
    7650:	0180 0108 0170 0107 0364 0346 0355 0317     ....p...d.F.U...
    7660:	0363 0336 0354 0345 0362 0326 0361 0316     c.6.T.E.b.&.a...
    7670:	f6f1 0353 0335 0344 0160 0106 0352 0325     ..S.5.D.`...R.%.
    7680:	0351 f6a1 0215 0215 0343 0334 0150 0105     Q.......C.4.P...
    7690:	0242 0224 0233 0241 0214 0214 0340 0304     B.$.3.A.....@...
    76a0:	0232 0232 0223 0223 0131 0113 0230 0203     2.2.#.#.1...0...
    76b0:	0122 0122 0120 0102                         ".". ...

000076b8 <__sf_fake_stderr>:
	...

000076d8 <__sf_fake_stdin>:
	...

000076f8 <__sf_fake_stdout>:
	...
    7718:	2d23 2b30 0020 0000 6c68 004c 6665 4567     #-0+ ...hlL.efgE
    7728:	4746 0000 3130 3332 3534 3736 3938 4241     FG..0123456789AB
    7738:	4443 4645 0000 0000 3130 3332 3534 3736     CDEF....01234567
    7748:	3938 6261 6463 6665 0000 0000               89abcdef....
